
ProducerConsumer3:     file format elf64-x86-64


Disassembly of section .init:

0000000000404f48 <_init>:
  404f48:	48 83 ec 08          	sub    $0x8,%rsp
  404f4c:	48 8b 05 7d 10 21 00 	mov    0x21107d(%rip),%rax        # 615fd0 <_DYNAMIC+0x240>
  404f53:	48 85 c0             	test   %rax,%rax
  404f56:	74 05                	je     404f5d <_init+0x15>
  404f58:	e8 73 03 00 00       	callq  4052d0 <__gmon_start__@plt>
  404f5d:	48 83 c4 08          	add    $0x8,%rsp
  404f61:	c3                   	retq   

Disassembly of section .plt:

0000000000404f70 <_ZN6QMutexC1ENS_13RecursionModeE@plt-0x10>:
  404f70:	ff 35 92 10 21 00    	pushq  0x211092(%rip)        # 616008 <_GLOBAL_OFFSET_TABLE_+0x8>
  404f76:	ff 25 94 10 21 00    	jmpq   *0x211094(%rip)        # 616010 <_GLOBAL_OFFSET_TABLE_+0x10>
  404f7c:	0f 1f 40 00          	nopl   0x0(%rax)

0000000000404f80 <_ZN6QMutexC1ENS_13RecursionModeE@plt>:
  404f80:	ff 25 92 10 21 00    	jmpq   *0x211092(%rip)        # 616018 <_GLOBAL_OFFSET_TABLE_+0x18>
  404f86:	68 00 00 00 00       	pushq  $0x0
  404f8b:	e9 e0 ff ff ff       	jmpq   404f70 <_init+0x28>

0000000000404f90 <_ZN12QApplicationD1Ev@plt>:
  404f90:	ff 25 8a 10 21 00    	jmpq   *0x21108a(%rip)        # 616020 <_GLOBAL_OFFSET_TABLE_+0x20>
  404f96:	68 01 00 00 00       	pushq  $0x1
  404f9b:	e9 d0 ff ff ff       	jmpq   404f70 <_init+0x28>

0000000000404fa0 <_ZN7QWidget10paintEventEP11QPaintEvent@plt>:
  404fa0:	ff 25 82 10 21 00    	jmpq   *0x211082(%rip)        # 616028 <_GLOBAL_OFFSET_TABLE_+0x28>
  404fa6:	68 02 00 00 00       	pushq  $0x2
  404fab:	e9 c0 ff ff ff       	jmpq   404f70 <_init+0x28>

0000000000404fb0 <_ZN7QWidget13dragMoveEventEP14QDragMoveEvent@plt>:
  404fb0:	ff 25 7a 10 21 00    	jmpq   *0x21107a(%rip)        # 616030 <_GLOBAL_OFFSET_TABLE_+0x30>
  404fb6:	68 03 00 00 00       	pushq  $0x3
  404fbb:	e9 b0 ff ff ff       	jmpq   404f70 <_init+0x28>

0000000000404fc0 <memcpy@plt>:
  404fc0:	ff 25 72 10 21 00    	jmpq   *0x211072(%rip)        # 616038 <_GLOBAL_OFFSET_TABLE_+0x38>
  404fc6:	68 04 00 00 00       	pushq  $0x4
  404fcb:	e9 a0 ff ff ff       	jmpq   404f70 <_init+0x28>

0000000000404fd0 <_ZN7QWidget9showEventEP10QShowEvent@plt>:
  404fd0:	ff 25 6a 10 21 00    	jmpq   *0x21106a(%rip)        # 616040 <_GLOBAL_OFFSET_TABLE_+0x40>
  404fd6:	68 05 00 00 00       	pushq  $0x5
  404fdb:	e9 90 ff ff ff       	jmpq   404f70 <_init+0x28>

0000000000404fe0 <_ZN7QwtPlot11qt_metacallEN11QMetaObject4CallEiPPv@plt>:
  404fe0:	ff 25 62 10 21 00    	jmpq   *0x211062(%rip)        # 616048 <_GLOBAL_OFFSET_TABLE_+0x48>
  404fe6:	68 06 00 00 00       	pushq  $0x6
  404feb:	e9 80 ff ff ff       	jmpq   404f70 <_init+0x28>

0000000000404ff0 <_ZN6QBrushC1EN2Qt11GlobalColorENS0_10BrushStyleE@plt>:
  404ff0:	ff 25 5a 10 21 00    	jmpq   *0x21105a(%rip)        # 616050 <_GLOBAL_OFFSET_TABLE_+0x50>
  404ff6:	68 07 00 00 00       	pushq  $0x7
  404ffb:	e9 70 ff ff ff       	jmpq   404f70 <_init+0x28>

0000000000405000 <_ZN14QWaitCondition7wakeAllEv@plt>:
  405000:	ff 25 52 10 21 00    	jmpq   *0x211052(%rip)        # 616058 <_GLOBAL_OFFSET_TABLE_+0x58>
  405006:	68 08 00 00 00       	pushq  $0x8
  40500b:	e9 60 ff ff ff       	jmpq   404f70 <_init+0x28>

0000000000405010 <_ZN7QWidget6resizeERK5QSize@plt>:
  405010:	ff 25 4a 10 21 00    	jmpq   *0x21104a(%rip)        # 616060 <_GLOBAL_OFFSET_TABLE_+0x60>
  405016:	68 09 00 00 00       	pushq  $0x9
  40501b:	e9 50 ff ff ff       	jmpq   404f70 <_init+0x28>

0000000000405020 <_ZN12QProgressBarC1EP7QWidget@plt>:
  405020:	ff 25 42 10 21 00    	jmpq   *0x211042(%rip)        # 616068 <_GLOBAL_OFFSET_TABLE_+0x68>
  405026:	68 0a 00 00 00       	pushq  $0xa
  40502b:	e9 40 ff ff ff       	jmpq   404f70 <_init+0x28>

0000000000405030 <_ZN7QwtPlot5eventEP6QEvent@plt>:
  405030:	ff 25 3a 10 21 00    	jmpq   *0x21103a(%rip)        # 616070 <_GLOBAL_OFFSET_TABLE_+0x70>
  405036:	68 0b 00 00 00       	pushq  $0xb
  40503b:	e9 30 ff ff ff       	jmpq   404f70 <_init+0x28>

0000000000405040 <_ZNSo9_M_insertIeEERSoT_@plt>:
  405040:	ff 25 32 10 21 00    	jmpq   *0x211032(%rip)        # 616078 <_GLOBAL_OFFSET_TABLE_+0x78>
  405046:	68 0c 00 00 00       	pushq  $0xc
  40504b:	e9 20 ff ff ff       	jmpq   404f70 <_init+0x28>

0000000000405050 <_ZThn16_NK7QWidget6metricEN12QPaintDevice17PaintDeviceMetricE@plt>:
  405050:	ff 25 2a 10 21 00    	jmpq   *0x21102a(%rip)        # 616080 <_GLOBAL_OFFSET_TABLE_+0x80>
  405056:	68 0d 00 00 00       	pushq  $0xd
  40505b:	e9 10 ff ff ff       	jmpq   404f70 <_init+0x28>

0000000000405060 <_Znwm@plt>:
  405060:	ff 25 22 10 21 00    	jmpq   *0x211022(%rip)        # 616088 <_GLOBAL_OFFSET_TABLE_+0x88>
  405066:	68 0e 00 00 00       	pushq  $0xe
  40506b:	e9 00 ff ff ff       	jmpq   404f70 <_init+0x28>

0000000000405070 <_ZN6QBrushD1Ev@plt>:
  405070:	ff 25 1a 10 21 00    	jmpq   *0x21101a(%rip)        # 616090 <_GLOBAL_OFFSET_TABLE_+0x90>
  405076:	68 0f 00 00 00       	pushq  $0xf
  40507b:	e9 f0 fe ff ff       	jmpq   404f70 <_init+0x28>

0000000000405080 <_ZN11QMainWindow5eventEP6QEvent@plt>:
  405080:	ff 25 12 10 21 00    	jmpq   *0x211012(%rip)        # 616098 <_GLOBAL_OFFSET_TABLE_+0x98>
  405086:	68 10 00 00 00       	pushq  $0x10
  40508b:	e9 e0 fe ff ff       	jmpq   404f70 <_init+0x28>

0000000000405090 <_ZN11QMetaObject10ConnectionD1Ev@plt>:
  405090:	ff 25 0a 10 21 00    	jmpq   *0x21100a(%rip)        # 6160a0 <_GLOBAL_OFFSET_TABLE_+0xa0>
  405096:	68 11 00 00 00       	pushq  $0x11
  40509b:	e9 d0 fe ff ff       	jmpq   404f70 <_init+0x28>

00000000004050a0 <_ZN11QMainWindowD2Ev@plt>:
  4050a0:	ff 25 02 10 21 00    	jmpq   *0x211002(%rip)        # 6160a8 <_GLOBAL_OFFSET_TABLE_+0xa8>
  4050a6:	68 12 00 00 00       	pushq  $0x12
  4050ab:	e9 c0 fe ff ff       	jmpq   404f70 <_init+0x28>

00000000004050b0 <_ZN6QColor6setRgbEiiii@plt>:
  4050b0:	ff 25 fa 0f 21 00    	jmpq   *0x210ffa(%rip)        # 6160b0 <_GLOBAL_OFFSET_TABLE_+0xb0>
  4050b6:	68 13 00 00 00       	pushq  $0x13
  4050bb:	e9 b0 fe ff ff       	jmpq   404f70 <_init+0x28>

00000000004050c0 <_ZN17QwtPlotRasterItem8setAlphaEi@plt>:
  4050c0:	ff 25 f2 0f 21 00    	jmpq   *0x210ff2(%rip)        # 6160b8 <_GLOBAL_OFFSET_TABLE_+0xb8>
  4050c6:	68 14 00 00 00       	pushq  $0x14
  4050cb:	e9 a0 fe ff ff       	jmpq   404f70 <_init+0x28>

00000000004050d0 <_ZN7QWidget16inputMethodEventEP17QInputMethodEvent@plt>:
  4050d0:	ff 25 ea 0f 21 00    	jmpq   *0x210fea(%rip)        # 6160c0 <_GLOBAL_OFFSET_TABLE_+0xc0>
  4050d6:	68 15 00 00 00       	pushq  $0x15
  4050db:	e9 90 fe ff ff       	jmpq   404f70 <_init+0x28>

00000000004050e0 <_ZN7QString15fromUtf8_helperEPKci@plt>:
  4050e0:	ff 25 e2 0f 21 00    	jmpq   *0x210fe2(%rip)        # 6160c8 <_GLOBAL_OFFSET_TABLE_+0xc8>
  4050e6:	68 16 00 00 00       	pushq  $0x16
  4050eb:	e9 80 fe ff ff       	jmpq   404f70 <_init+0x28>

00000000004050f0 <_ZNK7QObject10objectNameEv@plt>:
  4050f0:	ff 25 da 0f 21 00    	jmpq   *0x210fda(%rip)        # 6160d0 <_GLOBAL_OFFSET_TABLE_+0xd0>
  4050f6:	68 17 00 00 00       	pushq  $0x17
  4050fb:	e9 70 fe ff ff       	jmpq   404f70 <_init+0x28>

0000000000405100 <_ZNK17QwtLinearColorMap10colorIndexERK11QwtIntervald@plt>:
  405100:	ff 25 d2 0f 21 00    	jmpq   *0x210fd2(%rip)        # 6160d8 <_GLOBAL_OFFSET_TABLE_+0xd8>
  405106:	68 18 00 00 00       	pushq  $0x18
  40510b:	e9 60 fe ff ff       	jmpq   404f70 <_init+0x28>

0000000000405110 <_ZN7QWidget17mouseReleaseEventEP11QMouseEvent@plt>:
  405110:	ff 25 ca 0f 21 00    	jmpq   *0x210fca(%rip)        # 6160e0 <_GLOBAL_OFFSET_TABLE_+0xe0>
  405116:	68 19 00 00 00       	pushq  $0x19
  40511b:	e9 50 fe ff ff       	jmpq   404f70 <_init+0x28>

0000000000405120 <_ZN7QObject10childEventEP11QChildEvent@plt>:
  405120:	ff 25 c2 0f 21 00    	jmpq   *0x210fc2(%rip)        # 6160e8 <_GLOBAL_OFFSET_TABLE_+0xe8>
  405126:	68 1a 00 00 00       	pushq  $0x1a
  40512b:	e9 40 fe ff ff       	jmpq   404f70 <_init+0x28>

0000000000405130 <_ZNK7QwtPlot15minimumSizeHintEv@plt>:
  405130:	ff 25 ba 0f 21 00    	jmpq   *0x210fba(%rip)        # 6160f0 <_GLOBAL_OFFSET_TABLE_+0xf0>
  405136:	68 1b 00 00 00       	pushq  $0x1b
  40513b:	e9 30 fe ff ff       	jmpq   404f70 <_init+0x28>

0000000000405140 <_ZN7QwtPlot10enableAxisEib@plt>:
  405140:	ff 25 b2 0f 21 00    	jmpq   *0x210fb2(%rip)        # 6160f8 <_GLOBAL_OFFSET_TABLE_+0xf8>
  405146:	68 1c 00 00 00       	pushq  $0x1c
  40514b:	e9 20 fe ff ff       	jmpq   404f70 <_init+0x28>

0000000000405150 <_ZN13QwtRasterData11setIntervalEN2Qt4AxisERK11QwtInterval@plt>:
  405150:	ff 25 aa 0f 21 00    	jmpq   *0x210faa(%rip)        # 616100 <_GLOBAL_OFFSET_TABLE_+0x100>
  405156:	68 1d 00 00 00       	pushq  $0x1d
  40515b:	e9 10 fe ff ff       	jmpq   404f70 <_init+0x28>

0000000000405160 <_ZNK7QWidget11paintEngineEv@plt>:
  405160:	ff 25 a2 0f 21 00    	jmpq   *0x210fa2(%rip)        # 616108 <_GLOBAL_OFFSET_TABLE_+0x108>
  405166:	68 1e 00 00 00       	pushq  $0x1e
  40516b:	e9 00 fe ff ff       	jmpq   404f70 <_init+0x28>

0000000000405170 <_ZN7QWidget13keyPressEventEP9QKeyEvent@plt>:
  405170:	ff 25 9a 0f 21 00    	jmpq   *0x210f9a(%rip)        # 616110 <_GLOBAL_OFFSET_TABLE_+0x110>
  405176:	68 1f 00 00 00       	pushq  $0x1f
  40517b:	e9 f0 fd ff ff       	jmpq   404f70 <_init+0x28>

0000000000405180 <_ZN11QMainWindow11qt_metacallEN11QMetaObject4CallEiPPv@plt>:
  405180:	ff 25 92 0f 21 00    	jmpq   *0x210f92(%rip)        # 616118 <_GLOBAL_OFFSET_TABLE_+0x118>
  405186:	68 20 00 00 00       	pushq  $0x20
  40518b:	e9 e0 fd ff ff       	jmpq   404f70 <_init+0x28>

0000000000405190 <_ZN7QThread11qt_metacastEPKc@plt>:
  405190:	ff 25 8a 0f 21 00    	jmpq   *0x210f8a(%rip)        # 616120 <_GLOBAL_OFFSET_TABLE_+0x120>
  405196:	68 21 00 00 00       	pushq  $0x21
  40519b:	e9 d0 fd ff ff       	jmpq   404f70 <_init+0x28>

00000000004051a0 <_ZN13QwtRasterData10initRasterERK6QRectFRK5QSize@plt>:
  4051a0:	ff 25 82 0f 21 00    	jmpq   *0x210f82(%rip)        # 616128 <_GLOBAL_OFFSET_TABLE_+0x128>
  4051a6:	68 22 00 00 00       	pushq  $0x22
  4051ab:	e9 c0 fd ff ff       	jmpq   404f70 <_init+0x28>

00000000004051b0 <_ZNK7QWidget11initPainterEP8QPainter@plt>:
  4051b0:	ff 25 7a 0f 21 00    	jmpq   *0x210f7a(%rip)        # 616130 <_GLOBAL_OFFSET_TABLE_+0x130>
  4051b6:	68 23 00 00 00       	pushq  $0x23
  4051bb:	e9 b0 fd ff ff       	jmpq   404f70 <_init+0x28>

00000000004051c0 <memset@plt>:
  4051c0:	ff 25 72 0f 21 00    	jmpq   *0x210f72(%rip)        # 616138 <_GLOBAL_OFFSET_TABLE_+0x138>
  4051c6:	68 24 00 00 00       	pushq  $0x24
  4051cb:	e9 a0 fd ff ff       	jmpq   404f70 <_init+0x28>

00000000004051d0 <_ZN7QWidget14dragEnterEventEP15QDragEnterEvent@plt>:
  4051d0:	ff 25 6a 0f 21 00    	jmpq   *0x210f6a(%rip)        # 616140 <_GLOBAL_OFFSET_TABLE_+0x140>
  4051d6:	68 25 00 00 00       	pushq  $0x25
  4051db:	e9 90 fd ff ff       	jmpq   404f70 <_init+0x28>

00000000004051e0 <_ZN18QwtPlotSpectrogram14setDisplayModeENS_11DisplayModeEb@plt>:
  4051e0:	ff 25 62 0f 21 00    	jmpq   *0x210f62(%rip)        # 616148 <_GLOBAL_OFFSET_TABLE_+0x148>
  4051e6:	68 26 00 00 00       	pushq  $0x26
  4051eb:	e9 80 fd ff ff       	jmpq   404f70 <_init+0x28>

00000000004051f0 <_ZNSolsEi@plt>:
  4051f0:	ff 25 5a 0f 21 00    	jmpq   *0x210f5a(%rip)        # 616150 <_GLOBAL_OFFSET_TABLE_+0x150>
  4051f6:	68 27 00 00 00       	pushq  $0x27
  4051fb:	e9 70 fd ff ff       	jmpq   404f70 <_init+0x28>

0000000000405200 <_ZN7QObject10timerEventEP11QTimerEvent@plt>:
  405200:	ff 25 52 0f 21 00    	jmpq   *0x210f52(%rip)        # 616158 <_GLOBAL_OFFSET_TABLE_+0x158>
  405206:	68 28 00 00 00       	pushq  $0x28
  40520b:	e9 60 fd ff ff       	jmpq   404f70 <_init+0x28>

0000000000405210 <_ZSt16__throw_bad_castv@plt>:
  405210:	ff 25 4a 0f 21 00    	jmpq   *0x210f4a(%rip)        # 616160 <_GLOBAL_OFFSET_TABLE_+0x160>
  405216:	68 29 00 00 00       	pushq  $0x29
  40521b:	e9 50 fd ff ff       	jmpq   404f70 <_init+0x28>

0000000000405220 <_ZNK7QwtPlot10itemToInfoEP11QwtPlotItem@plt>:
  405220:	ff 25 42 0f 21 00    	jmpq   *0x210f42(%rip)        # 616168 <_GLOBAL_OFFSET_TABLE_+0x168>
  405226:	68 2a 00 00 00       	pushq  $0x2a
  40522b:	e9 40 fd ff ff       	jmpq   404f70 <_init+0x28>

0000000000405230 <_ZN7QwtPlot11resizeEventEP12QResizeEvent@plt>:
  405230:	ff 25 3a 0f 21 00    	jmpq   *0x210f3a(%rip)        # 616170 <_GLOBAL_OFFSET_TABLE_+0x170>
  405236:	68 2b 00 00 00       	pushq  $0x2b
  40523b:	e9 30 fd ff ff       	jmpq   404f70 <_init+0x28>

0000000000405240 <_ZNK7QwtPlot20getCanvasMarginsHintEPK11QwtScaleMapRK6QRectFRdS6_S6_S6_@plt>:
  405240:	ff 25 32 0f 21 00    	jmpq   *0x210f32(%rip)        # 616178 <_GLOBAL_OFFSET_TABLE_+0x178>
  405246:	68 2c 00 00 00       	pushq  $0x2c
  40524b:	e9 20 fd ff ff       	jmpq   404f70 <_init+0x28>

0000000000405250 <_ZN7QLayout18setContentsMarginsEiiii@plt>:
  405250:	ff 25 2a 0f 21 00    	jmpq   *0x210f2a(%rip)        # 616180 <_GLOBAL_OFFSET_TABLE_+0x180>
  405256:	68 2d 00 00 00       	pushq  $0x2d
  40525b:	e9 10 fd ff ff       	jmpq   404f70 <_init+0x28>

0000000000405260 <_ZdaPv@plt>:
  405260:	ff 25 22 0f 21 00    	jmpq   *0x210f22(%rip)        # 616188 <_GLOBAL_OFFSET_TABLE_+0x188>
  405266:	68 2e 00 00 00       	pushq  $0x2e
  40526b:	e9 00 fd ff ff       	jmpq   404f70 <_init+0x28>

0000000000405270 <_ZN7QwtPlot11qt_metacastEPKc@plt>:
  405270:	ff 25 1a 0f 21 00    	jmpq   *0x210f1a(%rip)        # 616190 <_GLOBAL_OFFSET_TABLE_+0x190>
  405276:	68 2f 00 00 00       	pushq  $0x2f
  40527b:	e9 f0 fc ff ff       	jmpq   404f70 <_init+0x28>

0000000000405280 <_ZNK7QWidget7devTypeEv@plt>:
  405280:	ff 25 12 0f 21 00    	jmpq   *0x210f12(%rip)        # 616198 <_GLOBAL_OFFSET_TABLE_+0x198>
  405286:	68 30 00 00 00       	pushq  $0x30
  40528b:	e9 e0 fc ff ff       	jmpq   404f70 <_init+0x28>

0000000000405290 <_ZN7QWidget11actionEventEP12QActionEvent@plt>:
  405290:	ff 25 0a 0f 21 00    	jmpq   *0x210f0a(%rip)        # 6161a0 <_GLOBAL_OFFSET_TABLE_+0x1a0>
  405296:	68 31 00 00 00       	pushq  $0x31
  40529b:	e9 d0 fc ff ff       	jmpq   404f70 <_init+0x28>

00000000004052a0 <_ZN7QwtPlotD2Ev@plt>:
  4052a0:	ff 25 02 0f 21 00    	jmpq   *0x210f02(%rip)        # 6161a8 <_GLOBAL_OFFSET_TABLE_+0x1a8>
  4052a6:	68 32 00 00 00       	pushq  $0x32
  4052ab:	e9 c0 fc ff ff       	jmpq   404f70 <_init+0x28>

00000000004052b0 <_ZN7QObject11customEventEP6QEvent@plt>:
  4052b0:	ff 25 fa 0e 21 00    	jmpq   *0x210efa(%rip)        # 6161b0 <_GLOBAL_OFFSET_TABLE_+0x1b0>
  4052b6:	68 33 00 00 00       	pushq  $0x33
  4052bb:	e9 b0 fc ff ff       	jmpq   404f70 <_init+0x28>

00000000004052c0 <_ZThn16_NK7QWidget11initPainterEP8QPainter@plt>:
  4052c0:	ff 25 f2 0e 21 00    	jmpq   *0x210ef2(%rip)        # 6161b8 <_GLOBAL_OFFSET_TABLE_+0x1b8>
  4052c6:	68 34 00 00 00       	pushq  $0x34
  4052cb:	e9 a0 fc ff ff       	jmpq   404f70 <_init+0x28>

00000000004052d0 <__gmon_start__@plt>:
  4052d0:	ff 25 ea 0e 21 00    	jmpq   *0x210eea(%rip)        # 6161c0 <_GLOBAL_OFFSET_TABLE_+0x1c0>
  4052d6:	68 35 00 00 00       	pushq  $0x35
  4052db:	e9 90 fc ff ff       	jmpq   404f70 <_init+0x28>

00000000004052e0 <_ZN17QwtLinearColorMapC2EN11QwtColorMap6FormatE@plt>:
  4052e0:	ff 25 e2 0e 21 00    	jmpq   *0x210ee2(%rip)        # 6161c8 <_GLOBAL_OFFSET_TABLE_+0x1c8>
  4052e6:	68 36 00 00 00       	pushq  $0x36
  4052eb:	e9 80 fc ff ff       	jmpq   404f70 <_init+0x28>

00000000004052f0 <_ZN18QwtPlotSpectrogram20setDefaultContourPenERK4QPen@plt>:
  4052f0:	ff 25 da 0e 21 00    	jmpq   *0x210eda(%rip)        # 6161d0 <_GLOBAL_OFFSET_TABLE_+0x1d0>
  4052f6:	68 37 00 00 00       	pushq  $0x37
  4052fb:	e9 70 fc ff ff       	jmpq   404f70 <_init+0x28>

0000000000405300 <_ZNK7QWidget10redirectedEP6QPoint@plt>:
  405300:	ff 25 d2 0e 21 00    	jmpq   *0x210ed2(%rip)        # 6161d8 <_GLOBAL_OFFSET_TABLE_+0x1d8>
  405306:	68 38 00 00 00       	pushq  $0x38
  40530b:	e9 60 fc ff ff       	jmpq   404f70 <_init+0x28>

0000000000405310 <_ZNK7QWidget16inputMethodQueryEN2Qt16InputMethodQueryE@plt>:
  405310:	ff 25 ca 0e 21 00    	jmpq   *0x210eca(%rip)        # 6161e0 <_GLOBAL_OFFSET_TABLE_+0x1e0>
  405316:	68 39 00 00 00       	pushq  $0x39
  40531b:	e9 50 fc ff ff       	jmpq   404f70 <_init+0x28>

0000000000405320 <_ZN7QWidget10leaveEventEP6QEvent@plt>:
  405320:	ff 25 c2 0e 21 00    	jmpq   *0x210ec2(%rip)        # 6161e8 <_GLOBAL_OFFSET_TABLE_+0x1e8>
  405326:	68 3a 00 00 00       	pushq  $0x3a
  40532b:	e9 40 fc ff ff       	jmpq   404f70 <_init+0x28>

0000000000405330 <_ZNK7QWidget8sizeHintEv@plt>:
  405330:	ff 25 ba 0e 21 00    	jmpq   *0x210eba(%rip)        # 6161f0 <_GLOBAL_OFFSET_TABLE_+0x1f0>
  405336:	68 3b 00 00 00       	pushq  $0x3b
  40533b:	e9 30 fc ff ff       	jmpq   404f70 <_init+0x28>

0000000000405340 <_ZN7QwtPlot12updateLayoutEv@plt>:
  405340:	ff 25 b2 0e 21 00    	jmpq   *0x210eb2(%rip)        # 6161f8 <_GLOBAL_OFFSET_TABLE_+0x1f8>
  405346:	68 3c 00 00 00       	pushq  $0x3c
  40534b:	e9 20 fc ff ff       	jmpq   404f70 <_init+0x28>

0000000000405350 <_ZN7QwtPlot10axisWidgetEi@plt>:
  405350:	ff 25 aa 0e 21 00    	jmpq   *0x210eaa(%rip)        # 616200 <_GLOBAL_OFFSET_TABLE_+0x200>
  405356:	68 3d 00 00 00       	pushq  $0x3d
  40535b:	e9 10 fc ff ff       	jmpq   404f70 <_init+0x28>

0000000000405360 <_Znam@plt>:
  405360:	ff 25 a2 0e 21 00    	jmpq   *0x210ea2(%rip)        # 616208 <_GLOBAL_OFFSET_TABLE_+0x208>
  405366:	68 3e 00 00 00       	pushq  $0x3e
  40536b:	e9 00 fc ff ff       	jmpq   404f70 <_init+0x28>

0000000000405370 <_ZNK7QWidget15minimumSizeHintEv@plt>:
  405370:	ff 25 9a 0e 21 00    	jmpq   *0x210e9a(%rip)        # 616210 <_GLOBAL_OFFSET_TABLE_+0x210>
  405376:	68 3f 00 00 00       	pushq  $0x3f
  40537b:	e9 f0 fb ff ff       	jmpq   404f70 <_init+0x28>

0000000000405380 <_ZThn16_NK7QWidget10redirectedEP6QPoint@plt>:
  405380:	ff 25 92 0e 21 00    	jmpq   *0x210e92(%rip)        # 616218 <_GLOBAL_OFFSET_TABLE_+0x218>
  405386:	68 40 00 00 00       	pushq  $0x40
  40538b:	e9 e0 fb ff ff       	jmpq   404f70 <_init+0x28>

0000000000405390 <_ZN18QwtPlotSpectrogram7setDataEP13QwtRasterData@plt>:
  405390:	ff 25 8a 0e 21 00    	jmpq   *0x210e8a(%rip)        # 616220 <_GLOBAL_OFFSET_TABLE_+0x220>
  405396:	68 41 00 00 00       	pushq  $0x41
  40539b:	e9 d0 fb ff ff       	jmpq   404f70 <_init+0x28>

00000000004053a0 <_ZNKSt5ctypeIcE13_M_widen_initEv@plt>:
  4053a0:	ff 25 82 0e 21 00    	jmpq   *0x210e82(%rip)        # 616228 <_GLOBAL_OFFSET_TABLE_+0x228>
  4053a6:	68 42 00 00 00       	pushq  $0x42
  4053ab:	e9 c0 fb ff ff       	jmpq   404f70 <_init+0x28>

00000000004053b0 <_ZNSo5flushEv@plt>:
  4053b0:	ff 25 7a 0e 21 00    	jmpq   *0x210e7a(%rip)        # 616230 <_GLOBAL_OFFSET_TABLE_+0x230>
  4053b6:	68 43 00 00 00       	pushq  $0x43
  4053bb:	e9 b0 fb ff ff       	jmpq   404f70 <_init+0x28>

00000000004053c0 <gettimeofday@plt>:
  4053c0:	ff 25 72 0e 21 00    	jmpq   *0x210e72(%rip)        # 616238 <_GLOBAL_OFFSET_TABLE_+0x238>
  4053c6:	68 44 00 00 00       	pushq  $0x44
  4053cb:	e9 a0 fb ff ff       	jmpq   404f70 <_init+0x28>

00000000004053d0 <_ZN7QWidget21mouseDoubleClickEventEP11QMouseEvent@plt>:
  4053d0:	ff 25 6a 0e 21 00    	jmpq   *0x210e6a(%rip)        # 616240 <_GLOBAL_OFFSET_TABLE_+0x240>
  4053d6:	68 45 00 00 00       	pushq  $0x45
  4053db:	e9 90 fb ff ff       	jmpq   404f70 <_init+0x28>

00000000004053e0 <_ZN7QWidget11resizeEventEP12QResizeEvent@plt>:
  4053e0:	ff 25 62 0e 21 00    	jmpq   *0x210e62(%rip)        # 616248 <_GLOBAL_OFFSET_TABLE_+0x248>
  4053e6:	68 46 00 00 00       	pushq  $0x46
  4053eb:	e9 80 fb ff ff       	jmpq   404f70 <_init+0x28>

00000000004053f0 <_ZN7QWidget11changeEventEP6QEvent@plt>:
  4053f0:	ff 25 5a 0e 21 00    	jmpq   *0x210e5a(%rip)        # 616250 <_GLOBAL_OFFSET_TABLE_+0x250>
  4053f6:	68 47 00 00 00       	pushq  $0x47
  4053fb:	e9 70 fb ff ff       	jmpq   404f70 <_init+0x28>

0000000000405400 <_ZN7QString16fromAscii_helperEPKci@plt>:
  405400:	ff 25 52 0e 21 00    	jmpq   *0x210e52(%rip)        # 616258 <_GLOBAL_OFFSET_TABLE_+0x258>
  405406:	68 48 00 00 00       	pushq  $0x48
  40540b:	e9 60 fb ff ff       	jmpq   404f70 <_init+0x28>

0000000000405410 <_ZNK11QwtColorMap10colorTableERK11QwtInterval@plt>:
  405410:	ff 25 4a 0e 21 00    	jmpq   *0x210e4a(%rip)        # 616260 <_GLOBAL_OFFSET_TABLE_+0x260>
  405416:	68 49 00 00 00       	pushq  $0x49
  40541b:	e9 50 fb ff ff       	jmpq   404f70 <_init+0x28>

0000000000405420 <_ZdlPv@plt>:
  405420:	ff 25 42 0e 21 00    	jmpq   *0x210e42(%rip)        # 616268 <_GLOBAL_OFFSET_TABLE_+0x268>
  405426:	68 4a 00 00 00       	pushq  $0x4a
  40542b:	e9 40 fb ff ff       	jmpq   404f70 <_init+0x28>

0000000000405430 <_ZNSo3putEc@plt>:
  405430:	ff 25 3a 0e 21 00    	jmpq   *0x210e3a(%rip)        # 616270 <_GLOBAL_OFFSET_TABLE_+0x270>
  405436:	68 4b 00 00 00       	pushq  $0x4b
  40543b:	e9 30 fb ff ff       	jmpq   404f70 <_init+0x28>

0000000000405440 <_ZN10QSemaphore10tryAcquireEii@plt>:
  405440:	ff 25 32 0e 21 00    	jmpq   *0x210e32(%rip)        # 616278 <_GLOBAL_OFFSET_TABLE_+0x278>
  405446:	68 4c 00 00 00       	pushq  $0x4c
  40544b:	e9 20 fb ff ff       	jmpq   404f70 <_init+0x28>

0000000000405450 <_ZN7QWidget4showEv@plt>:
  405450:	ff 25 2a 0e 21 00    	jmpq   *0x210e2a(%rip)        # 616280 <_GLOBAL_OFFSET_TABLE_+0x280>
  405456:	68 4d 00 00 00       	pushq  $0x4d
  40545b:	e9 10 fb ff ff       	jmpq   404f70 <_init+0x28>

0000000000405460 <_ZN7QWidget10wheelEventEP11QWheelEvent@plt>:
  405460:	ff 25 22 0e 21 00    	jmpq   *0x210e22(%rip)        # 616288 <_GLOBAL_OFFSET_TABLE_+0x288>
  405466:	68 4e 00 00 00       	pushq  $0x4e
  40546b:	e9 00 fb ff ff       	jmpq   404f70 <_init+0x28>

0000000000405470 <_ZN7QWidget18focusNextPrevChildEb@plt>:
  405470:	ff 25 1a 0e 21 00    	jmpq   *0x210e1a(%rip)        # 616290 <_GLOBAL_OFFSET_TABLE_+0x290>
  405476:	68 4f 00 00 00       	pushq  $0x4f
  40547b:	e9 f0 fa ff ff       	jmpq   404f70 <_init+0x28>

0000000000405480 <_ZNK17QwtLinearColorMap3rgbERK11QwtIntervald@plt>:
  405480:	ff 25 12 0e 21 00    	jmpq   *0x210e12(%rip)        # 616298 <_GLOBAL_OFFSET_TABLE_+0x298>
  405486:	68 50 00 00 00       	pushq  $0x50
  40548b:	e9 e0 fa ff ff       	jmpq   404f70 <_init+0x28>

0000000000405490 <_ZN18QwtPlotSpectrogramC1ERK7QString@plt>:
  405490:	ff 25 0a 0e 21 00    	jmpq   *0x210e0a(%rip)        # 6162a0 <_GLOBAL_OFFSET_TABLE_+0x2a0>
  405496:	68 51 00 00 00       	pushq  $0x51
  40549b:	e9 d0 fa ff ff       	jmpq   404f70 <_init+0x28>

00000000004054a0 <__gxx_personality_v0@plt>:
  4054a0:	ff 25 02 0e 21 00    	jmpq   *0x210e02(%rip)        # 6162a8 <_GLOBAL_OFFSET_TABLE_+0x2a8>
  4054a6:	68 52 00 00 00       	pushq  $0x52
  4054ab:	e9 c0 fa ff ff       	jmpq   404f70 <_init+0x28>

00000000004054b0 <_ZN6QLabel7setTextERK7QString@plt>:
  4054b0:	ff 25 fa 0d 21 00    	jmpq   *0x210dfa(%rip)        # 6162b0 <_GLOBAL_OFFSET_TABLE_+0x2b0>
  4054b6:	68 53 00 00 00       	pushq  $0x53
  4054bb:	e9 b0 fa ff ff       	jmpq   404f70 <_init+0x28>

00000000004054c0 <_ZN17QwtLinearColorMapD2Ev@plt>:
  4054c0:	ff 25 f2 0d 21 00    	jmpq   *0x210df2(%rip)        # 6162b8 <_GLOBAL_OFFSET_TABLE_+0x2b8>
  4054c6:	68 54 00 00 00       	pushq  $0x54
  4054cb:	e9 a0 fa ff ff       	jmpq   404f70 <_init+0x28>

00000000004054d0 <_ZN7QWidget9dropEventEP10QDropEvent@plt>:
  4054d0:	ff 25 ea 0d 21 00    	jmpq   *0x210dea(%rip)        # 6162c0 <_GLOBAL_OFFSET_TABLE_+0x2c0>
  4054d6:	68 55 00 00 00       	pushq  $0x55
  4054db:	e9 90 fa ff ff       	jmpq   404f70 <_init+0x28>

00000000004054e0 <_ZN7QwtPlot11eventFilterEP7QObjectP6QEvent@plt>:
  4054e0:	ff 25 e2 0d 21 00    	jmpq   *0x210de2(%rip)        # 6162c8 <_GLOBAL_OFFSET_TABLE_+0x2c8>
  4054e6:	68 56 00 00 00       	pushq  $0x56
  4054eb:	e9 80 fa ff ff       	jmpq   404f70 <_init+0x28>

00000000004054f0 <_ZN10QSemaphoreC1Ei@plt>:
  4054f0:	ff 25 da 0d 21 00    	jmpq   *0x210dda(%rip)        # 6162d0 <_GLOBAL_OFFSET_TABLE_+0x2d0>
  4054f6:	68 57 00 00 00       	pushq  $0x57
  4054fb:	e9 70 fa ff ff       	jmpq   404f70 <_init+0x28>

0000000000405500 <_ZN10QSemaphore7releaseEi@plt>:
  405500:	ff 25 d2 0d 21 00    	jmpq   *0x210dd2(%rip)        # 6162d8 <_GLOBAL_OFFSET_TABLE_+0x2d8>
  405506:	68 58 00 00 00       	pushq  $0x58
  40550b:	e9 60 fa ff ff       	jmpq   404f70 <_init+0x28>

0000000000405510 <_ZN14QWaitConditionC1Ev@plt>:
  405510:	ff 25 ca 0d 21 00    	jmpq   *0x210dca(%rip)        # 6162e0 <_GLOBAL_OFFSET_TABLE_+0x2e0>
  405516:	68 59 00 00 00       	pushq  $0x59
  40551b:	e9 50 fa ff ff       	jmpq   404f70 <_init+0x28>

0000000000405520 <_Unwind_Resume@plt>:
  405520:	ff 25 c2 0d 21 00    	jmpq   *0x210dc2(%rip)        # 6162e8 <_GLOBAL_OFFSET_TABLE_+0x2e8>
  405526:	68 5a 00 00 00       	pushq  $0x5a
  40552b:	e9 40 fa ff ff       	jmpq   404f70 <_init+0x28>

0000000000405530 <_ZN12QApplicationC1ERiPPci@plt>:
  405530:	ff 25 ba 0d 21 00    	jmpq   *0x210dba(%rip)        # 6162f0 <_GLOBAL_OFFSET_TABLE_+0x2f0>
  405536:	68 5b 00 00 00       	pushq  $0x5b
  40553b:	e9 30 fa ff ff       	jmpq   404f70 <_init+0x28>

0000000000405540 <_ZN7QWidget9hideEventEP10QHideEvent@plt>:
  405540:	ff 25 b2 0d 21 00    	jmpq   *0x210db2(%rip)        # 6162f8 <_GLOBAL_OFFSET_TABLE_+0x2f8>
  405546:	68 5c 00 00 00       	pushq  $0x5c
  40554b:	e9 20 fa ff ff       	jmpq   404f70 <_init+0x28>

0000000000405550 <_ZN13QwtRasterData13discardRasterEv@plt>:
  405550:	ff 25 aa 0d 21 00    	jmpq   *0x210daa(%rip)        # 616300 <_GLOBAL_OFFSET_TABLE_+0x300>
  405556:	68 5d 00 00 00       	pushq  $0x5d
  40555b:	e9 10 fa ff ff       	jmpq   404f70 <_init+0x28>

0000000000405560 <_ZN7QObject7connectEPKS_PKcS1_S3_N2Qt14ConnectionTypeE@plt>:
  405560:	ff 25 a2 0d 21 00    	jmpq   *0x210da2(%rip)        # 616308 <_GLOBAL_OFFSET_TABLE_+0x308>
  405566:	68 5e 00 00 00       	pushq  $0x5e
  40556b:	e9 00 fa ff ff       	jmpq   404f70 <_init+0x28>

0000000000405570 <_ZNK7QwtPlot8sizeHintEv@plt>:
  405570:	ff 25 9a 0d 21 00    	jmpq   *0x210d9a(%rip)        # 616310 <_GLOBAL_OFFSET_TABLE_+0x310>
  405576:	68 5f 00 00 00       	pushq  $0x5f
  40557b:	e9 f0 f9 ff ff       	jmpq   404f70 <_init+0x28>

0000000000405580 <_ZN13QwtRasterDataD2Ev@plt>:
  405580:	ff 25 92 0d 21 00    	jmpq   *0x210d92(%rip)        # 616318 <_GLOBAL_OFFSET_TABLE_+0x318>
  405586:	68 60 00 00 00       	pushq  $0x60
  40558b:	e9 e0 f9 ff ff       	jmpq   404f70 <_init+0x28>

0000000000405590 <_ZN18QwtPlotSpectrogram11setColorMapEP11QwtColorMap@plt>:
  405590:	ff 25 8a 0d 21 00    	jmpq   *0x210d8a(%rip)        # 616320 <_GLOBAL_OFFSET_TABLE_+0x320>
  405596:	68 61 00 00 00       	pushq  $0x61
  40559b:	e9 d0 f9 ff ff       	jmpq   404f70 <_init+0x28>

00000000004055a0 <_ZN7QwtPlotC2EP7QWidget@plt>:
  4055a0:	ff 25 82 0d 21 00    	jmpq   *0x210d82(%rip)        # 616328 <_GLOBAL_OFFSET_TABLE_+0x328>
  4055a6:	68 62 00 00 00       	pushq  $0x62
  4055ab:	e9 c0 f9 ff ff       	jmpq   404f70 <_init+0x28>

00000000004055b0 <_ZN6QMutexD1Ev@plt>:
  4055b0:	ff 25 7a 0d 21 00    	jmpq   *0x210d7a(%rip)        # 616330 <_GLOBAL_OFFSET_TABLE_+0x330>
  4055b6:	68 63 00 00 00       	pushq  $0x63
  4055bb:	e9 b0 f9 ff ff       	jmpq   404f70 <_init+0x28>

00000000004055c0 <_ZN11QMainWindow16setCentralWidgetEP7QWidget@plt>:
  4055c0:	ff 25 72 0d 21 00    	jmpq   *0x210d72(%rip)        # 616338 <_GLOBAL_OFFSET_TABLE_+0x338>
  4055c6:	68 64 00 00 00       	pushq  $0x64
  4055cb:	e9 a0 f9 ff ff       	jmpq   404f70 <_init+0x28>

00000000004055d0 <_ZThn16_NK7QWidget7devTypeEv@plt>:
  4055d0:	ff 25 6a 0d 21 00    	jmpq   *0x210d6a(%rip)        # 616340 <_GLOBAL_OFFSET_TABLE_+0x340>
  4055d6:	68 65 00 00 00       	pushq  $0x65
  4055db:	e9 90 f9 ff ff       	jmpq   404f70 <_init+0x28>

00000000004055e0 <_ZNK7QwtPlot9canvasMapEi@plt>:
  4055e0:	ff 25 62 0d 21 00    	jmpq   *0x210d62(%rip)        # 616348 <_GLOBAL_OFFSET_TABLE_+0x348>
  4055e6:	68 66 00 00 00       	pushq  $0x66
  4055eb:	e9 80 f9 ff ff       	jmpq   404f70 <_init+0x28>

00000000004055f0 <time@plt>:
  4055f0:	ff 25 5a 0d 21 00    	jmpq   *0x210d5a(%rip)        # 616350 <_GLOBAL_OFFSET_TABLE_+0x350>
  4055f6:	68 67 00 00 00       	pushq  $0x67
  4055fb:	e9 70 f9 ff ff       	jmpq   404f70 <_init+0x28>

0000000000405600 <_ZN4QPenC1ERK6QBrushdN2Qt8PenStyleENS3_11PenCapStyleENS3_12PenJoinStyleE@plt>:
  405600:	ff 25 52 0d 21 00    	jmpq   *0x210d52(%rip)        # 616358 <_GLOBAL_OFFSET_TABLE_+0x358>
  405606:	68 68 00 00 00       	pushq  $0x68
  40560b:	e9 60 f9 ff ff       	jmpq   404f70 <_init+0x28>

0000000000405610 <_ZN11QMainWindow11qt_metacastEPKc@plt>:
  405610:	ff 25 4a 0d 21 00    	jmpq   *0x210d4a(%rip)        # 616360 <_GLOBAL_OFFSET_TABLE_+0x360>
  405616:	68 69 00 00 00       	pushq  $0x69
  40561b:	e9 50 f9 ff ff       	jmpq   404f70 <_init+0x28>

0000000000405620 <_ZN7QwtPlot10plotLayoutEv@plt>:
  405620:	ff 25 42 0d 21 00    	jmpq   *0x210d42(%rip)        # 616368 <_GLOBAL_OFFSET_TABLE_+0x368>
  405626:	68 6a 00 00 00       	pushq  $0x6a
  40562b:	e9 40 f9 ff ff       	jmpq   404f70 <_init+0x28>

0000000000405630 <_ZN7QWidget16contextMenuEventEP17QContextMenuEvent@plt>:
  405630:	ff 25 3a 0d 21 00    	jmpq   *0x210d3a(%rip)        # 616370 <_GLOBAL_OFFSET_TABLE_+0x370>
  405636:	68 6b 00 00 00       	pushq  $0x6b
  40563b:	e9 30 f9 ff ff       	jmpq   404f70 <_init+0x28>

0000000000405640 <_ZN7QWidget10enterEventEP6QEvent@plt>:
  405640:	ff 25 32 0d 21 00    	jmpq   *0x210d32(%rip)        # 616378 <_GLOBAL_OFFSET_TABLE_+0x378>
  405646:	68 6c 00 00 00       	pushq  $0x6c
  40564b:	e9 20 f9 ff ff       	jmpq   404f70 <_init+0x28>

0000000000405650 <_ZN7QThread11qt_metacallEN11QMetaObject4CallEiPPv@plt>:
  405650:	ff 25 2a 0d 21 00    	jmpq   *0x210d2a(%rip)        # 616380 <_GLOBAL_OFFSET_TABLE_+0x380>
  405656:	68 6d 00 00 00       	pushq  $0x6d
  40565b:	e9 10 f9 ff ff       	jmpq   404f70 <_init+0x28>

0000000000405660 <_ZN14QwtScaleWidget18setColorBarEnabledEb@plt>:
  405660:	ff 25 22 0d 21 00    	jmpq   *0x210d22(%rip)        # 616388 <_GLOBAL_OFFSET_TABLE_+0x388>
  405666:	68 6e 00 00 00       	pushq  $0x6e
  40566b:	e9 00 f9 ff ff       	jmpq   404f70 <_init+0x28>

0000000000405670 <_ZNSo9_M_insertIdEERSoT_@plt>:
  405670:	ff 25 1a 0d 21 00    	jmpq   *0x210d1a(%rip)        # 616390 <_GLOBAL_OFFSET_TABLE_+0x390>
  405676:	68 6f 00 00 00       	pushq  $0x6f
  40567b:	e9 f0 f8 ff ff       	jmpq   404f70 <_init+0x28>

0000000000405680 <_ZNK7QwtPlot9drawItemsEP8QPainterRK6QRectFPK11QwtScaleMap@plt>:
  405680:	ff 25 12 0d 21 00    	jmpq   *0x210d12(%rip)        # 616398 <_GLOBAL_OFFSET_TABLE_+0x398>
  405686:	68 70 00 00 00       	pushq  $0x70
  40568b:	e9 e0 f8 ff ff       	jmpq   404f70 <_init+0x28>

0000000000405690 <_ZN17QwtLinearColorMap16setColorIntervalERK6QColorS2_@plt>:
  405690:	ff 25 0a 0d 21 00    	jmpq   *0x210d0a(%rip)        # 6163a0 <_GLOBAL_OFFSET_TABLE_+0x3a0>
  405696:	68 71 00 00 00       	pushq  $0x71
  40569b:	e9 d0 f8 ff ff       	jmpq   404f70 <_init+0x28>

00000000004056a0 <_ZN11QVBoxLayoutC1EP7QWidget@plt>:
  4056a0:	ff 25 02 0d 21 00    	jmpq   *0x210d02(%rip)        # 6163a8 <_GLOBAL_OFFSET_TABLE_+0x3a8>
  4056a6:	68 72 00 00 00       	pushq  $0x72
  4056ab:	e9 c0 f8 ff ff       	jmpq   404f70 <_init+0x28>

00000000004056b0 <_ZN7QWidget10setVisibleEb@plt>:
  4056b0:	ff 25 fa 0c 21 00    	jmpq   *0x210cfa(%rip)        # 6163b0 <_GLOBAL_OFFSET_TABLE_+0x3b0>
  4056b6:	68 73 00 00 00       	pushq  $0x73
  4056bb:	e9 b0 f8 ff ff       	jmpq   404f70 <_init+0x28>

00000000004056c0 <_ZNK7QWidget6metricEN12QPaintDevice17PaintDeviceMetricE@plt>:
  4056c0:	ff 25 f2 0c 21 00    	jmpq   *0x210cf2(%rip)        # 6163b8 <_GLOBAL_OFFSET_TABLE_+0x3b8>
  4056c6:	68 74 00 00 00       	pushq  $0x74
  4056cb:	e9 a0 f8 ff ff       	jmpq   404f70 <_init+0x28>

00000000004056d0 <_ZN11QMainWindow15createPopupMenuEv@plt>:
  4056d0:	ff 25 ea 0c 21 00    	jmpq   *0x210cea(%rip)        # 6163c0 <_GLOBAL_OFFSET_TABLE_+0x3c0>
  4056d6:	68 75 00 00 00       	pushq  $0x75
  4056db:	e9 90 f8 ff ff       	jmpq   404f70 <_init+0x28>

00000000004056e0 <_ZN6QLabelC1EP7QWidget6QFlagsIN2Qt10WindowTypeEE@plt>:
  4056e0:	ff 25 e2 0c 21 00    	jmpq   *0x210ce2(%rip)        # 6163c8 <_GLOBAL_OFFSET_TABLE_+0x3c8>
  4056e6:	68 76 00 00 00       	pushq  $0x76
  4056eb:	e9 80 f8 ff ff       	jmpq   404f70 <_init+0x28>

00000000004056f0 <_ZNK13QwtRasterData9pixelHintERK6QRectF@plt>:
  4056f0:	ff 25 da 0c 21 00    	jmpq   *0x210cda(%rip)        # 6163d0 <_GLOBAL_OFFSET_TABLE_+0x3d0>
  4056f6:	68 77 00 00 00       	pushq  $0x77
  4056fb:	e9 70 f8 ff ff       	jmpq   404f70 <_init+0x28>

0000000000405700 <_ZN7QWidget14dragLeaveEventEP15QDragLeaveEvent@plt>:
  405700:	ff 25 d2 0c 21 00    	jmpq   *0x210cd2(%rip)        # 6163d8 <_GLOBAL_OFFSET_TABLE_+0x3d8>
  405706:	68 78 00 00 00       	pushq  $0x78
  40570b:	e9 60 f8 ff ff       	jmpq   404f70 <_init+0x28>

0000000000405710 <_ZNK7QWidget14heightForWidthEi@plt>:
  405710:	ff 25 ca 0c 21 00    	jmpq   *0x210cca(%rip)        # 6163e0 <_GLOBAL_OFFSET_TABLE_+0x3e0>
  405716:	68 79 00 00 00       	pushq  $0x79
  40571b:	e9 50 f8 ff ff       	jmpq   404f70 <_init+0x28>

0000000000405720 <_ZN7QwtPlot6replotEv@plt>:
  405720:	ff 25 c2 0c 21 00    	jmpq   *0x210cc2(%rip)        # 6163e8 <_GLOBAL_OFFSET_TABLE_+0x3e8>
  405726:	68 7a 00 00 00       	pushq  $0x7a
  40572b:	e9 40 f8 ff ff       	jmpq   404f70 <_init+0x28>

0000000000405730 <_ZN14QWaitCondition4waitEP6QMutexm@plt>:
  405730:	ff 25 ba 0c 21 00    	jmpq   *0x210cba(%rip)        # 6163f0 <_GLOBAL_OFFSET_TABLE_+0x3f0>
  405736:	68 7b 00 00 00       	pushq  $0x7b
  40573b:	e9 30 f8 ff ff       	jmpq   404f70 <_init+0x28>

0000000000405740 <_ZNK7QWidget13sharedPainterEv@plt>:
  405740:	ff 25 b2 0c 21 00    	jmpq   *0x210cb2(%rip)        # 6163f8 <_GLOBAL_OFFSET_TABLE_+0x3f8>
  405746:	68 7c 00 00 00       	pushq  $0x7c
  40574b:	e9 20 f8 ff ff       	jmpq   404f70 <_init+0x28>

0000000000405750 <strcmp@plt>:
  405750:	ff 25 aa 0c 21 00    	jmpq   *0x210caa(%rip)        # 616400 <_GLOBAL_OFFSET_TABLE_+0x400>
  405756:	68 7d 00 00 00       	pushq  $0x7d
  40575b:	e9 10 f8 ff ff       	jmpq   404f70 <_init+0x28>

0000000000405760 <_ZN14QwtScaleWidget8setTitleERK7QString@plt>:
  405760:	ff 25 a2 0c 21 00    	jmpq   *0x210ca2(%rip)        # 616408 <_GLOBAL_OFFSET_TABLE_+0x408>
  405766:	68 7e 00 00 00       	pushq  $0x7e
  40576b:	e9 00 f8 ff ff       	jmpq   404f70 <_init+0x28>

0000000000405770 <_ZN4QPenC1EN2Qt8PenStyleE@plt>:
  405770:	ff 25 9a 0c 21 00    	jmpq   *0x210c9a(%rip)        # 616410 <_GLOBAL_OFFSET_TABLE_+0x410>
  405776:	68 7f 00 00 00       	pushq  $0x7f
  40577b:	e9 f0 f7 ff ff       	jmpq   404f70 <_init+0x28>

0000000000405780 <_ZN7QThread5eventEP6QEvent@plt>:
  405780:	ff 25 92 0c 21 00    	jmpq   *0x210c92(%rip)        # 616418 <_GLOBAL_OFFSET_TABLE_+0x418>
  405786:	68 80 00 00 00       	pushq  $0x80
  40578b:	e9 e0 f7 ff ff       	jmpq   404f70 <_init+0x28>

0000000000405790 <_ZN7QWidget14setWindowTitleERK7QString@plt>:
  405790:	ff 25 8a 0c 21 00    	jmpq   *0x210c8a(%rip)        # 616420 <_GLOBAL_OFFSET_TABLE_+0x420>
  405796:	68 81 00 00 00       	pushq  $0x81
  40579b:	e9 d0 f7 ff ff       	jmpq   404f70 <_init+0x28>

00000000004057a0 <_ZN7QObject16disconnectNotifyERK11QMetaMethod@plt>:
  4057a0:	ff 25 82 0c 21 00    	jmpq   *0x210c82(%rip)        # 616428 <_GLOBAL_OFFSET_TABLE_+0x428>
  4057a6:	68 82 00 00 00       	pushq  $0x82
  4057ab:	e9 c0 f7 ff ff       	jmpq   404f70 <_init+0x28>

00000000004057b0 <_ZN11QwtPlotItem6attachEP7QwtPlot@plt>:
  4057b0:	ff 25 7a 0c 21 00    	jmpq   *0x210c7a(%rip)        # 616430 <_GLOBAL_OFFSET_TABLE_+0x430>
  4057b6:	68 83 00 00 00       	pushq  $0x83
  4057bb:	e9 b0 f7 ff ff       	jmpq   404f70 <_init+0x28>

00000000004057c0 <__cxa_atexit@plt>:
  4057c0:	ff 25 72 0c 21 00    	jmpq   *0x210c72(%rip)        # 616438 <_GLOBAL_OFFSET_TABLE_+0x438>
  4057c6:	68 84 00 00 00       	pushq  $0x84
  4057cb:	e9 a0 f7 ff ff       	jmpq   404f70 <_init+0x28>

00000000004057d0 <_ZN7QwtPlot10drawCanvasEP8QPainter@plt>:
  4057d0:	ff 25 6a 0c 21 00    	jmpq   *0x210c6a(%rip)        # 616440 <_GLOBAL_OFFSET_TABLE_+0x440>
  4057d6:	68 85 00 00 00       	pushq  $0x85
  4057db:	e9 90 f7 ff ff       	jmpq   404f70 <_init+0x28>

00000000004057e0 <_ZN11QMainWindow16contextMenuEventEP17QContextMenuEvent@plt>:
  4057e0:	ff 25 62 0c 21 00    	jmpq   *0x210c62(%rip)        # 616448 <_GLOBAL_OFFSET_TABLE_+0x448>
  4057e6:	68 86 00 00 00       	pushq  $0x86
  4057eb:	e9 80 f7 ff ff       	jmpq   404f70 <_init+0x28>

00000000004057f0 <_ZN12QProgressBar8setValueEi@plt>:
  4057f0:	ff 25 5a 0c 21 00    	jmpq   *0x210c5a(%rip)        # 616450 <_GLOBAL_OFFSET_TABLE_+0x450>
  4057f6:	68 87 00 00 00       	pushq  $0x87
  4057fb:	e9 70 f7 ff ff       	jmpq   404f70 <_init+0x28>

0000000000405800 <_ZN12QApplication4execEv@plt>:
  405800:	ff 25 52 0c 21 00    	jmpq   *0x210c52(%rip)        # 616458 <_GLOBAL_OFFSET_TABLE_+0x458>
  405806:	68 88 00 00 00       	pushq  $0x88
  40580b:	e9 60 f7 ff ff       	jmpq   404f70 <_init+0x28>

0000000000405810 <_ZN13QwtPlotLayout22setAlignCanvasToScalesEb@plt>:
  405810:	ff 25 4a 0c 21 00    	jmpq   *0x210c4a(%rip)        # 616460 <_GLOBAL_OFFSET_TABLE_+0x460>
  405816:	68 89 00 00 00       	pushq  $0x89
  40581b:	e9 50 f7 ff ff       	jmpq   404f70 <_init+0x28>

0000000000405820 <_ZN7QWidget13focusOutEventEP11QFocusEvent@plt>:
  405820:	ff 25 42 0c 21 00    	jmpq   *0x210c42(%rip)        # 616468 <_GLOBAL_OFFSET_TABLE_+0x468>
  405826:	68 8a 00 00 00       	pushq  $0x8a
  40582b:	e9 40 f7 ff ff       	jmpq   404f70 <_init+0x28>

0000000000405830 <_ZN7QWidget10closeEventEP11QCloseEvent@plt>:
  405830:	ff 25 3a 0c 21 00    	jmpq   *0x210c3a(%rip)        # 616470 <_GLOBAL_OFFSET_TABLE_+0x470>
  405836:	68 8b 00 00 00       	pushq  $0x8b
  40583b:	e9 30 f7 ff ff       	jmpq   404f70 <_init+0x28>

0000000000405840 <_ZN7QWidget15keyReleaseEventEP9QKeyEvent@plt>:
  405840:	ff 25 32 0c 21 00    	jmpq   *0x210c32(%rip)        # 616478 <_GLOBAL_OFFSET_TABLE_+0x478>
  405846:	68 8c 00 00 00       	pushq  $0x8c
  40584b:	e9 20 f7 ff ff       	jmpq   404f70 <_init+0x28>

0000000000405850 <_ZN11QMetaObject8activateEP7QObjectPKS_iPPv@plt>:
  405850:	ff 25 2a 0c 21 00    	jmpq   *0x210c2a(%rip)        # 616480 <_GLOBAL_OFFSET_TABLE_+0x480>
  405856:	68 8d 00 00 00       	pushq  $0x8d
  40585b:	e9 10 f7 ff ff       	jmpq   404f70 <_init+0x28>

0000000000405860 <_ZN7QObject11eventFilterEPS_P6QEvent@plt>:
  405860:	ff 25 22 0c 21 00    	jmpq   *0x210c22(%rip)        # 616488 <_GLOBAL_OFFSET_TABLE_+0x488>
  405866:	68 8e 00 00 00       	pushq  $0x8e
  40586b:	e9 00 f7 ff ff       	jmpq   404f70 <_init+0x28>

0000000000405870 <_ZN7QWidgetC1EPS_6QFlagsIN2Qt10WindowTypeEE@plt>:
  405870:	ff 25 1a 0c 21 00    	jmpq   *0x210c1a(%rip)        # 616490 <_GLOBAL_OFFSET_TABLE_+0x490>
  405876:	68 8f 00 00 00       	pushq  $0x8f
  40587b:	e9 f0 f6 ff ff       	jmpq   404f70 <_init+0x28>

0000000000405880 <_ZN16QCoreApplication9translateEPKcS1_S1_i@plt>:
  405880:	ff 25 12 0c 21 00    	jmpq   *0x210c12(%rip)        # 616498 <_GLOBAL_OFFSET_TABLE_+0x498>
  405886:	68 90 00 00 00       	pushq  $0x90
  40588b:	e9 e0 f6 ff ff       	jmpq   404f70 <_init+0x28>

0000000000405890 <_ZN7QThreadC2EP7QObject@plt>:
  405890:	ff 25 0a 0c 21 00    	jmpq   *0x210c0a(%rip)        # 6164a0 <_GLOBAL_OFFSET_TABLE_+0x4a0>
  405896:	68 91 00 00 00       	pushq  $0x91
  40589b:	e9 d0 f6 ff ff       	jmpq   404f70 <_init+0x28>

00000000004058a0 <_ZN7QObject13connectNotifyERK11QMetaMethod@plt>:
  4058a0:	ff 25 02 0c 21 00    	jmpq   *0x210c02(%rip)        # 6164a8 <_GLOBAL_OFFSET_TABLE_+0x4a8>
  4058a6:	68 92 00 00 00       	pushq  $0x92
  4058ab:	e9 c0 f6 ff ff       	jmpq   404f70 <_init+0x28>

00000000004058b0 <_ZN6QMutex4lockEv@plt>:
  4058b0:	ff 25 fa 0b 21 00    	jmpq   *0x210bfa(%rip)        # 6164b0 <_GLOBAL_OFFSET_TABLE_+0x4b0>
  4058b6:	68 93 00 00 00       	pushq  $0x93
  4058bb:	e9 b0 f6 ff ff       	jmpq   404f70 <_init+0x28>

00000000004058c0 <__libc_start_main@plt>:
  4058c0:	ff 25 f2 0b 21 00    	jmpq   *0x210bf2(%rip)        # 6164b8 <_GLOBAL_OFFSET_TABLE_+0x4b8>
  4058c6:	68 94 00 00 00       	pushq  $0x94
  4058cb:	e9 a0 f6 ff ff       	jmpq   404f70 <_init+0x28>

00000000004058d0 <_ZN10QSemaphore7acquireEi@plt>:
  4058d0:	ff 25 ea 0b 21 00    	jmpq   *0x210bea(%rip)        # 6164c0 <_GLOBAL_OFFSET_TABLE_+0x4c0>
  4058d6:	68 95 00 00 00       	pushq  $0x95
  4058db:	e9 90 f6 ff ff       	jmpq   404f70 <_init+0x28>

00000000004058e0 <_ZN12QProgressBar8setRangeEii@plt>:
  4058e0:	ff 25 e2 0b 21 00    	jmpq   *0x210be2(%rip)        # 6164c8 <_GLOBAL_OFFSET_TABLE_+0x4c8>
  4058e6:	68 96 00 00 00       	pushq  $0x96
  4058eb:	e9 80 f6 ff ff       	jmpq   404f70 <_init+0x28>

00000000004058f0 <_ZN15QAbstractButton7setTextERK7QString@plt>:
  4058f0:	ff 25 da 0b 21 00    	jmpq   *0x210bda(%rip)        # 6164d0 <_GLOBAL_OFFSET_TABLE_+0x4d0>
  4058f6:	68 97 00 00 00       	pushq  $0x97
  4058fb:	e9 70 f6 ff ff       	jmpq   404f70 <_init+0x28>

0000000000405900 <_ZN18QwtPlotSpectrogram4dataEv@plt>:
  405900:	ff 25 d2 0b 21 00    	jmpq   *0x210bd2(%rip)        # 6164d8 <_GLOBAL_OFFSET_TABLE_+0x4d8>
  405906:	68 98 00 00 00       	pushq  $0x98
  40590b:	e9 60 f6 ff ff       	jmpq   404f70 <_init+0x28>

0000000000405910 <_ZSt16__ostream_insertIcSt11char_traitsIcEERSt13basic_ostreamIT_T0_ES6_PKS3_l@plt>:
  405910:	ff 25 ca 0b 21 00    	jmpq   *0x210bca(%rip)        # 6164e0 <_GLOBAL_OFFSET_TABLE_+0x4e0>
  405916:	68 99 00 00 00       	pushq  $0x99
  40591b:	e9 50 f6 ff ff       	jmpq   404f70 <_init+0x28>

0000000000405920 <_ZN6QFrame10paintEventEP11QPaintEvent@plt>:
  405920:	ff 25 c2 0b 21 00    	jmpq   *0x210bc2(%rip)        # 6164e8 <_GLOBAL_OFFSET_TABLE_+0x4e8>
  405926:	68 9a 00 00 00       	pushq  $0x9a
  40592b:	e9 40 f6 ff ff       	jmpq   404f70 <_init+0x28>

0000000000405930 <_ZThn16_NK7QWidget11paintEngineEv@plt>:
  405930:	ff 25 ba 0b 21 00    	jmpq   *0x210bba(%rip)        # 6164f0 <_GLOBAL_OFFSET_TABLE_+0x4f0>
  405936:	68 9b 00 00 00       	pushq  $0x9b
  40593b:	e9 30 f6 ff ff       	jmpq   404f70 <_init+0x28>

0000000000405940 <_ZNK7QWidget17hasHeightForWidthEv@plt>:
  405940:	ff 25 b2 0b 21 00    	jmpq   *0x210bb2(%rip)        # 6164f8 <_GLOBAL_OFFSET_TABLE_+0x4f8>
  405946:	68 9c 00 00 00       	pushq  $0x9c
  40594b:	e9 20 f6 ff ff       	jmpq   404f70 <_init+0x28>

0000000000405950 <_ZN10QArrayData10deallocateEPS_mm@plt>:
  405950:	ff 25 aa 0b 21 00    	jmpq   *0x210baa(%rip)        # 616500 <_GLOBAL_OFFSET_TABLE_+0x500>
  405956:	68 9d 00 00 00       	pushq  $0x9d
  40595b:	e9 10 f6 ff ff       	jmpq   404f70 <_init+0x28>

0000000000405960 <_ZNSt8ios_base4InitC1Ev@plt>:
  405960:	ff 25 a2 0b 21 00    	jmpq   *0x210ba2(%rip)        # 616508 <_GLOBAL_OFFSET_TABLE_+0x508>
  405966:	68 9e 00 00 00       	pushq  $0x9e
  40596b:	e9 00 f6 ff ff       	jmpq   404f70 <_init+0x28>

0000000000405970 <_ZN14QWaitConditionD1Ev@plt>:
  405970:	ff 25 9a 0b 21 00    	jmpq   *0x210b9a(%rip)        # 616510 <_GLOBAL_OFFSET_TABLE_+0x510>
  405976:	68 9f 00 00 00       	pushq  $0x9f
  40597b:	e9 f0 f5 ff ff       	jmpq   404f70 <_init+0x28>

0000000000405980 <_ZNK13QwtRasterData12contourLinesERK6QRectFRK5QSizeRK5QListIdE6QFlagsINS_10ConrecFlagEE@plt>:
  405980:	ff 25 92 0b 21 00    	jmpq   *0x210b92(%rip)        # 616518 <_GLOBAL_OFFSET_TABLE_+0x518>
  405986:	68 a0 00 00 00       	pushq  $0xa0
  40598b:	e9 e0 f5 ff ff       	jmpq   404f70 <_init+0x28>

0000000000405990 <_ZN6QMutex6unlockEv@plt>:
  405990:	ff 25 8a 0b 21 00    	jmpq   *0x210b8a(%rip)        # 616520 <_GLOBAL_OFFSET_TABLE_+0x520>
  405996:	68 a1 00 00 00       	pushq  $0xa1
  40599b:	e9 d0 f5 ff ff       	jmpq   404f70 <_init+0x28>

00000000004059a0 <_ZN6QFrame11changeEventEP6QEvent@plt>:
  4059a0:	ff 25 82 0b 21 00    	jmpq   *0x210b82(%rip)        # 616528 <_GLOBAL_OFFSET_TABLE_+0x528>
  4059a6:	68 a2 00 00 00       	pushq  $0xa2
  4059ab:	e9 c0 f5 ff ff       	jmpq   404f70 <_init+0x28>

00000000004059b0 <_ZN17QwtLinearColorMap12addColorStopEdRK6QColor@plt>:
  4059b0:	ff 25 7a 0b 21 00    	jmpq   *0x210b7a(%rip)        # 616530 <_GLOBAL_OFFSET_TABLE_+0x530>
  4059b6:	68 a3 00 00 00       	pushq  $0xa3
  4059bb:	e9 b0 f5 ff ff       	jmpq   404f70 <_init+0x28>

00000000004059c0 <_ZN7QWidget11tabletEventEP12QTabletEvent@plt>:
  4059c0:	ff 25 72 0b 21 00    	jmpq   *0x210b72(%rip)        # 616538 <_GLOBAL_OFFSET_TABLE_+0x538>
  4059c6:	68 a4 00 00 00       	pushq  $0xa4
  4059cb:	e9 a0 f5 ff ff       	jmpq   404f70 <_init+0x28>

00000000004059d0 <_ZN6QColorC1EN2Qt11GlobalColorE@plt>:
  4059d0:	ff 25 6a 0b 21 00    	jmpq   *0x210b6a(%rip)        # 616540 <_GLOBAL_OFFSET_TABLE_+0x540>
  4059d6:	68 a5 00 00 00       	pushq  $0xa5
  4059db:	e9 90 f5 ff ff       	jmpq   404f70 <_init+0x28>

00000000004059e0 <_ZN11QwtPlotItem20setRenderThreadCountEj@plt>:
  4059e0:	ff 25 62 0b 21 00    	jmpq   *0x210b62(%rip)        # 616548 <_GLOBAL_OFFSET_TABLE_+0x548>
  4059e6:	68 a6 00 00 00       	pushq  $0xa6
  4059eb:	e9 80 f5 ff ff       	jmpq   404f70 <_init+0x28>

00000000004059f0 <_ZN14QwtScaleWidget11setColorMapERK11QwtIntervalP11QwtColorMap@plt>:
  4059f0:	ff 25 5a 0b 21 00    	jmpq   *0x210b5a(%rip)        # 616550 <_GLOBAL_OFFSET_TABLE_+0x550>
  4059f6:	68 a7 00 00 00       	pushq  $0xa7
  4059fb:	e9 70 f5 ff ff       	jmpq   404f70 <_init+0x28>

0000000000405a00 <_ZNK11QObjectData17dynamicMetaObjectEv@plt>:
  405a00:	ff 25 52 0b 21 00    	jmpq   *0x210b52(%rip)        # 616558 <_GLOBAL_OFFSET_TABLE_+0x558>
  405a06:	68 a8 00 00 00       	pushq  $0xa8
  405a0b:	e9 60 f5 ff ff       	jmpq   404f70 <_init+0x28>

0000000000405a10 <_ZN10QBoxLayout10setSpacingEi@plt>:
  405a10:	ff 25 4a 0b 21 00    	jmpq   *0x210b4a(%rip)        # 616560 <_GLOBAL_OFFSET_TABLE_+0x560>
  405a16:	68 a9 00 00 00       	pushq  $0xa9
  405a1b:	e9 50 f5 ff ff       	jmpq   404f70 <_init+0x28>

0000000000405a20 <_ZN10QSemaphore10tryAcquireEi@plt>:
  405a20:	ff 25 42 0b 21 00    	jmpq   *0x210b42(%rip)        # 616568 <_GLOBAL_OFFSET_TABLE_+0x568>
  405a26:	68 aa 00 00 00       	pushq  $0xaa
  405a2b:	e9 40 f5 ff ff       	jmpq   404f70 <_init+0x28>

0000000000405a30 <_ZN7QwtPlot12setAxisScaleEiddd@plt>:
  405a30:	ff 25 3a 0b 21 00    	jmpq   *0x210b3a(%rip)        # 616570 <_GLOBAL_OFFSET_TABLE_+0x570>
  405a36:	68 ab 00 00 00       	pushq  $0xab
  405a3b:	e9 30 f5 ff ff       	jmpq   404f70 <_init+0x28>

0000000000405a40 <_ZNK10QSemaphore9availableEv@plt>:
  405a40:	ff 25 32 0b 21 00    	jmpq   *0x210b32(%rip)        # 616578 <_GLOBAL_OFFSET_TABLE_+0x578>
  405a46:	68 ac 00 00 00       	pushq  $0xac
  405a4b:	e9 20 f5 ff ff       	jmpq   404f70 <_init+0x28>

0000000000405a50 <_ZN7QThread5startENS_8PriorityE@plt>:
  405a50:	ff 25 2a 0b 21 00    	jmpq   *0x210b2a(%rip)        # 616580 <_GLOBAL_OFFSET_TABLE_+0x580>
  405a56:	68 ad 00 00 00       	pushq  $0xad
  405a5b:	e9 10 f5 ff ff       	jmpq   404f70 <_init+0x28>

0000000000405a60 <_ZN11QMetaObject18connectSlotsByNameEP7QObject@plt>:
  405a60:	ff 25 22 0b 21 00    	jmpq   *0x210b22(%rip)        # 616588 <_GLOBAL_OFFSET_TABLE_+0x588>
  405a66:	68 ae 00 00 00       	pushq  $0xae
  405a6b:	e9 00 f5 ff ff       	jmpq   404f70 <_init+0x28>

0000000000405a70 <_ZN7QWidget15mousePressEventEP11QMouseEvent@plt>:
  405a70:	ff 25 1a 0b 21 00    	jmpq   *0x210b1a(%rip)        # 616590 <_GLOBAL_OFFSET_TABLE_+0x590>
  405a76:	68 af 00 00 00       	pushq  $0xaf
  405a7b:	e9 f0 f4 ff ff       	jmpq   404f70 <_init+0x28>

0000000000405a80 <_ZN7QWidget12focusInEventEP11QFocusEvent@plt>:
  405a80:	ff 25 12 0b 21 00    	jmpq   *0x210b12(%rip)        # 616598 <_GLOBAL_OFFSET_TABLE_+0x598>
  405a86:	68 b0 00 00 00       	pushq  $0xb0
  405a8b:	e9 e0 f4 ff ff       	jmpq   404f70 <_init+0x28>

0000000000405a90 <_ZN7QThreadD2Ev@plt>:
  405a90:	ff 25 0a 0b 21 00    	jmpq   *0x210b0a(%rip)        # 6165a0 <_GLOBAL_OFFSET_TABLE_+0x5a0>
  405a96:	68 b1 00 00 00       	pushq  $0xb1
  405a9b:	e9 d0 f4 ff ff       	jmpq   404f70 <_init+0x28>

0000000000405aa0 <_ZNSt9basic_iosIcSt11char_traitsIcEE5clearESt12_Ios_Iostate@plt>:
  405aa0:	ff 25 02 0b 21 00    	jmpq   *0x210b02(%rip)        # 6165a8 <_GLOBAL_OFFSET_TABLE_+0x5a8>
  405aa6:	68 b2 00 00 00       	pushq  $0xb2
  405aab:	e9 c0 f4 ff ff       	jmpq   404f70 <_init+0x28>

0000000000405ab0 <_ZThn16_NK7QWidget13sharedPainterEv@plt>:
  405ab0:	ff 25 fa 0a 21 00    	jmpq   *0x210afa(%rip)        # 6165b0 <_GLOBAL_OFFSET_TABLE_+0x5b0>
  405ab6:	68 b3 00 00 00       	pushq  $0xb3
  405abb:	e9 b0 f4 ff ff       	jmpq   404f70 <_init+0x28>

0000000000405ac0 <_ZN13QwtRasterDataC2Ev@plt>:
  405ac0:	ff 25 f2 0a 21 00    	jmpq   *0x210af2(%rip)        # 6165b8 <_GLOBAL_OFFSET_TABLE_+0x5b8>
  405ac6:	68 b4 00 00 00       	pushq  $0xb4
  405acb:	e9 a0 f4 ff ff       	jmpq   404f70 <_init+0x28>

0000000000405ad0 <_ZN7QWidget14mouseMoveEventEP11QMouseEvent@plt>:
  405ad0:	ff 25 ea 0a 21 00    	jmpq   *0x210aea(%rip)        # 6165c0 <_GLOBAL_OFFSET_TABLE_+0x5c0>
  405ad6:	68 b5 00 00 00       	pushq  $0xb5
  405adb:	e9 90 f4 ff ff       	jmpq   404f70 <_init+0x28>

0000000000405ae0 <_ZN17QwtLinearColorMap7setModeENS_4ModeE@plt>:
  405ae0:	ff 25 e2 0a 21 00    	jmpq   *0x210ae2(%rip)        # 6165c8 <_GLOBAL_OFFSET_TABLE_+0x5c8>
  405ae6:	68 b6 00 00 00       	pushq  $0xb6
  405aeb:	e9 80 f4 ff ff       	jmpq   404f70 <_init+0x28>

0000000000405af0 <_ZN10QBoxLayout9addWidgetEP7QWidgeti6QFlagsIN2Qt13AlignmentFlagEE@plt>:
  405af0:	ff 25 da 0a 21 00    	jmpq   *0x210ada(%rip)        # 6165d0 <_GLOBAL_OFFSET_TABLE_+0x5d0>
  405af6:	68 b7 00 00 00       	pushq  $0xb7
  405afb:	e9 70 f4 ff ff       	jmpq   404f70 <_init+0x28>

0000000000405b00 <_ZNK7QwtPlot10infoToItemERK8QVariant@plt>:
  405b00:	ff 25 d2 0a 21 00    	jmpq   *0x210ad2(%rip)        # 6165d8 <_GLOBAL_OFFSET_TABLE_+0x5d8>
  405b06:	68 b8 00 00 00       	pushq  $0xb8
  405b0b:	e9 60 f4 ff ff       	jmpq   404f70 <_init+0x28>

0000000000405b10 <_ZN11QPushButtonC1EP7QWidget@plt>:
  405b10:	ff 25 ca 0a 21 00    	jmpq   *0x210aca(%rip)        # 6165e0 <_GLOBAL_OFFSET_TABLE_+0x5e0>
  405b16:	68 b9 00 00 00       	pushq  $0xb9
  405b1b:	e9 50 f4 ff ff       	jmpq   404f70 <_init+0x28>

0000000000405b20 <_ZN7QWidget10setEnabledEb@plt>:
  405b20:	ff 25 c2 0a 21 00    	jmpq   *0x210ac2(%rip)        # 6165e8 <_GLOBAL_OFFSET_TABLE_+0x5e8>
  405b26:	68 ba 00 00 00       	pushq  $0xba
  405b2b:	e9 40 f4 ff ff       	jmpq   404f70 <_init+0x28>

0000000000405b30 <_ZN11QMainWindowC2EP7QWidget6QFlagsIN2Qt10WindowTypeEE@plt>:
  405b30:	ff 25 ba 0a 21 00    	jmpq   *0x210aba(%rip)        # 6165f0 <_GLOBAL_OFFSET_TABLE_+0x5f0>
  405b36:	68 bb 00 00 00       	pushq  $0xbb
  405b3b:	e9 30 f4 ff ff       	jmpq   404f70 <_init+0x28>

0000000000405b40 <_ZN7QObject13setObjectNameERK7QString@plt>:
  405b40:	ff 25 b2 0a 21 00    	jmpq   *0x210ab2(%rip)        # 6165f8 <_GLOBAL_OFFSET_TABLE_+0x5f8>
  405b46:	68 bc 00 00 00       	pushq  $0xbc
  405b4b:	e9 20 f4 ff ff       	jmpq   404f70 <_init+0x28>

0000000000405b50 <_ZN7QWidget9moveEventEP10QMoveEvent@plt>:
  405b50:	ff 25 aa 0a 21 00    	jmpq   *0x210aaa(%rip)        # 616600 <_GLOBAL_OFFSET_TABLE_+0x600>
  405b56:	68 bd 00 00 00       	pushq  $0xbd
  405b5b:	e9 10 f4 ff ff       	jmpq   404f70 <_init+0x28>

0000000000405b60 <_ZN4QPenD1Ev@plt>:
  405b60:	ff 25 a2 0a 21 00    	jmpq   *0x210aa2(%rip)        # 616608 <_GLOBAL_OFFSET_TABLE_+0x608>
  405b66:	68 be 00 00 00       	pushq  $0xbe
  405b6b:	e9 00 f4 ff ff       	jmpq   404f70 <_init+0x28>

0000000000405b70 <_ZN7QWidget11nativeEventERK10QByteArrayPvPl@plt>:
  405b70:	ff 25 9a 0a 21 00    	jmpq   *0x210a9a(%rip)        # 616610 <_GLOBAL_OFFSET_TABLE_+0x610>
  405b76:	68 bf 00 00 00       	pushq  $0xbf
  405b7b:	e9 f0 f3 ff ff       	jmpq   404f70 <_init+0x28>

Disassembly of section .text:

0000000000405b80 <_ZStlsISt11char_traitsIcEERSt13basic_ostreamIcT_ES5_PKc.part.1>:
  405b80:	50                   	push   %rax
  405b81:	48 8b 07             	mov    (%rdi),%rax
  405b84:	48 03 78 e8          	add    -0x18(%rax),%rdi
  405b88:	8b 77 20             	mov    0x20(%rdi),%esi
  405b8b:	83 ce 01             	or     $0x1,%esi
  405b8e:	e8 0d ff ff ff       	callq  405aa0 <_ZNSt9basic_iosIcSt11char_traitsIcEE5clearESt12_Ios_Iostate@plt>
  405b93:	5a                   	pop    %rdx
  405b94:	c3                   	retq   

0000000000405b95 <_ZStlsISt11char_traitsIcEERSt13basic_ostreamIcT_ES5_PKc.part.1>:
  405b95:	50                   	push   %rax
  405b96:	48 8b 07             	mov    (%rdi),%rax
  405b99:	48 03 78 e8          	add    -0x18(%rax),%rdi
  405b9d:	8b 77 20             	mov    0x20(%rdi),%esi
  405ba0:	83 ce 01             	or     $0x1,%esi
  405ba3:	e8 f8 fe ff ff       	callq  405aa0 <_ZNSt9basic_iosIcSt11char_traitsIcEE5clearESt12_Ios_Iostate@plt>
  405ba8:	5a                   	pop    %rdx
  405ba9:	c3                   	retq   

0000000000405baa <_ZStlsISt11char_traitsIcEERSt13basic_ostreamIcT_ES5_PKc.part.1>:
  405baa:	50                   	push   %rax
  405bab:	48 8b 07             	mov    (%rdi),%rax
  405bae:	48 03 78 e8          	add    -0x18(%rax),%rdi
  405bb2:	8b 77 20             	mov    0x20(%rdi),%esi
  405bb5:	83 ce 01             	or     $0x1,%esi
  405bb8:	e8 e3 fe ff ff       	callq  405aa0 <_ZNSt9basic_iosIcSt11char_traitsIcEE5clearESt12_Ios_Iostate@plt>
  405bbd:	5a                   	pop    %rdx
  405bbe:	c3                   	retq   

0000000000405bbf <_ZStlsISt11char_traitsIcEERSt13basic_ostreamIcT_ES5_PKc.part.1>:
  405bbf:	50                   	push   %rax
  405bc0:	48 8b 07             	mov    (%rdi),%rax
  405bc3:	48 03 78 e8          	add    -0x18(%rax),%rdi
  405bc7:	8b 77 20             	mov    0x20(%rdi),%esi
  405bca:	83 ce 01             	or     $0x1,%esi
  405bcd:	e8 ce fe ff ff       	callq  405aa0 <_ZNSt9basic_iosIcSt11char_traitsIcEE5clearESt12_Ios_Iostate@plt>
  405bd2:	5a                   	pop    %rdx
  405bd3:	c3                   	retq   

0000000000405bd4 <_ZStlsISt11char_traitsIcEERSt13basic_ostreamIcT_ES5_PKc.part.1>:
  405bd4:	50                   	push   %rax
  405bd5:	48 8b 07             	mov    (%rdi),%rax
  405bd8:	48 03 78 e8          	add    -0x18(%rax),%rdi
  405bdc:	8b 77 20             	mov    0x20(%rdi),%esi
  405bdf:	83 ce 01             	or     $0x1,%esi
  405be2:	e8 b9 fe ff ff       	callq  405aa0 <_ZNSt9basic_iosIcSt11char_traitsIcEE5clearESt12_Ios_Iostate@plt>
  405be7:	5a                   	pop    %rdx
  405be8:	c3                   	retq   

0000000000405be9 <_ZStlsISt11char_traitsIcEERSt13basic_ostreamIcT_ES5_PKc.part.1>:
  405be9:	50                   	push   %rax
  405bea:	48 8b 07             	mov    (%rdi),%rax
  405bed:	48 03 78 e8          	add    -0x18(%rax),%rdi
  405bf1:	8b 77 20             	mov    0x20(%rdi),%esi
  405bf4:	83 ce 01             	or     $0x1,%esi
  405bf7:	e8 a4 fe ff ff       	callq  405aa0 <_ZNSt9basic_iosIcSt11char_traitsIcEE5clearESt12_Ios_Iostate@plt>
  405bfc:	5a                   	pop    %rdx
  405bfd:	c3                   	retq   
  405bfe:	66 90                	xchg   %ax,%ax

0000000000405c00 <_GLOBAL__sub_I_main>:
  405c00:	48 8d 3d 2a 0a 21 00 	lea    0x210a2a(%rip),%rdi        # 616631 <_ZStL8__ioinit>
  405c07:	48 83 ec 08          	sub    $0x8,%rsp
  405c0b:	e8 50 fd ff ff       	callq  405960 <_ZNSt8ios_base4InitC1Ev@plt>
  405c10:	48 8b 3d d1 03 21 00 	mov    0x2103d1(%rip),%rdi        # 615fe8 <_DYNAMIC+0x258>
  405c17:	48 8d 15 02 0a 21 00 	lea    0x210a02(%rip),%rdx        # 616620 <__dso_handle>
  405c1e:	48 8d 35 0c 0a 21 00 	lea    0x210a0c(%rip),%rsi        # 616631 <_ZStL8__ioinit>
  405c25:	48 83 c4 08          	add    $0x8,%rsp
  405c29:	e9 92 fb ff ff       	jmpq   4057c0 <__cxa_atexit@plt>
  405c2e:	66 90                	xchg   %ax,%ax

0000000000405c30 <main>:
  405c30:	41 54                	push   %r12
  405c32:	48 89 f2             	mov    %rsi,%rdx
  405c35:	b9 02 03 05 00       	mov    $0x50302,%ecx
  405c3a:	55                   	push   %rbp
  405c3b:	53                   	push   %rbx
  405c3c:	48 83 c4 80          	add    $0xffffffffffffff80,%rsp
  405c40:	48 8d 6c 24 10       	lea    0x10(%rsp),%rbp
  405c45:	48 8d 74 24 0c       	lea    0xc(%rsp),%rsi
  405c4a:	48 8d 5c 24 20       	lea    0x20(%rsp),%rbx
  405c4f:	89 7c 24 0c          	mov    %edi,0xc(%rsp)
  405c53:	48 89 ef             	mov    %rbp,%rdi
  405c56:	e8 d5 f8 ff ff       	callq  405530 <_ZN12QApplicationC1ERiPPci@plt>
  405c5b:	31 f6                	xor    %esi,%esi
  405c5d:	48 89 df             	mov    %rbx,%rdi
  405c60:	e8 2b 06 00 00       	callq  406290 <_ZN10MainWindowC1EP7QWidget>
  405c65:	48 89 df             	mov    %rbx,%rdi
  405c68:	e8 e3 f7 ff ff       	callq  405450 <_ZN7QWidget4showEv@plt>
  405c6d:	e8 8e fb ff ff       	callq  405800 <_ZN12QApplication4execEv@plt>
  405c72:	48 89 df             	mov    %rbx,%rdi
  405c75:	41 89 c4             	mov    %eax,%r12d
  405c78:	e8 43 05 00 00       	callq  4061c0 <_ZN10MainWindowD1Ev>
  405c7d:	48 89 ef             	mov    %rbp,%rdi
  405c80:	e8 0b f3 ff ff       	callq  404f90 <_ZN12QApplicationD1Ev@plt>
  405c85:	48 83 ec 80          	sub    $0xffffffffffffff80,%rsp
  405c89:	44 89 e0             	mov    %r12d,%eax
  405c8c:	5b                   	pop    %rbx
  405c8d:	5d                   	pop    %rbp
  405c8e:	41 5c                	pop    %r12
  405c90:	c3                   	retq   
  405c91:	48 89 c3             	mov    %rax,%rbx
  405c94:	48 89 ef             	mov    %rbp,%rdi
  405c97:	e8 f4 f2 ff ff       	callq  404f90 <_ZN12QApplicationD1Ev@plt>
  405c9c:	48 89 df             	mov    %rbx,%rdi
  405c9f:	e8 7c f8 ff ff       	callq  405520 <_Unwind_Resume@plt>
  405ca4:	49 89 c4             	mov    %rax,%r12
  405ca7:	48 89 df             	mov    %rbx,%rdi
  405caa:	e8 11 05 00 00       	callq  4061c0 <_ZN10MainWindowD1Ev>
  405caf:	4c 89 e3             	mov    %r12,%rbx
  405cb2:	eb e0                	jmp    405c94 <main+0x64>
  405cb4:	66 2e 0f 1f 84 00 00 	nopw   %cs:0x0(%rax,%rax,1)
  405cbb:	00 00 00 
  405cbe:	66 90                	xchg   %ax,%ax

0000000000405cc0 <_GLOBAL__sub_I_dataBlock>:
  405cc0:	48 8d 3d b1 09 21 00 	lea    0x2109b1(%rip),%rdi        # 616678 <_ZStL8__ioinit>
  405cc7:	48 83 ec 08          	sub    $0x8,%rsp
  405ccb:	e8 90 fc ff ff       	callq  405960 <_ZNSt8ios_base4InitC1Ev@plt>
  405cd0:	48 8b 3d 11 03 21 00 	mov    0x210311(%rip),%rdi        # 615fe8 <_DYNAMIC+0x258>
  405cd7:	48 8d 15 42 09 21 00 	lea    0x210942(%rip),%rdx        # 616620 <__dso_handle>
  405cde:	48 8d 35 93 09 21 00 	lea    0x210993(%rip),%rsi        # 616678 <_ZStL8__ioinit>
  405ce5:	48 83 c4 08          	add    $0x8,%rsp
  405ce9:	e9 d2 fa ff ff       	jmpq   4057c0 <__cxa_atexit@plt>
  405cee:	66 90                	xchg   %ax,%ax

0000000000405cf0 <_GLOBAL__sub_I_array2dworker.cpp>:
  405cf0:	48 8d 3d 82 09 21 00 	lea    0x210982(%rip),%rdi        # 616679 <_ZStL8__ioinit>
  405cf7:	48 83 ec 08          	sub    $0x8,%rsp
  405cfb:	e8 60 fc ff ff       	callq  405960 <_ZNSt8ios_base4InitC1Ev@plt>
  405d00:	48 8b 3d e1 02 21 00 	mov    0x2102e1(%rip),%rdi        # 615fe8 <_DYNAMIC+0x258>
  405d07:	48 8d 15 12 09 21 00 	lea    0x210912(%rip),%rdx        # 616620 <__dso_handle>
  405d0e:	48 8d 35 64 09 21 00 	lea    0x210964(%rip),%rsi        # 616679 <_ZStL8__ioinit>
  405d15:	48 83 c4 08          	add    $0x8,%rsp
  405d19:	e9 a2 fa ff ff       	jmpq   4057c0 <__cxa_atexit@plt>
  405d1e:	66 90                	xchg   %ax,%ax

0000000000405d20 <_GLOBAL__sub_I_circulararray2dworker.cpp>:
  405d20:	48 8d 3d 53 09 21 00 	lea    0x210953(%rip),%rdi        # 61667a <_ZStL8__ioinit>
  405d27:	48 83 ec 08          	sub    $0x8,%rsp
  405d2b:	e8 30 fc ff ff       	callq  405960 <_ZNSt8ios_base4InitC1Ev@plt>
  405d30:	48 8b 3d b1 02 21 00 	mov    0x2102b1(%rip),%rdi        # 615fe8 <_DYNAMIC+0x258>
  405d37:	48 8d 15 e2 08 21 00 	lea    0x2108e2(%rip),%rdx        # 616620 <__dso_handle>
  405d3e:	48 8d 35 35 09 21 00 	lea    0x210935(%rip),%rsi        # 61667a <_ZStL8__ioinit>
  405d45:	48 83 c4 08          	add    $0x8,%rsp
  405d49:	e9 72 fa ff ff       	jmpq   4057c0 <__cxa_atexit@plt>
  405d4e:	66 90                	xchg   %ax,%ax

0000000000405d50 <_GLOBAL__sub_I_spectrogramdata.cpp>:
  405d50:	48 8d 3d 24 09 21 00 	lea    0x210924(%rip),%rdi        # 61667b <_ZStL8__ioinit>
  405d57:	48 83 ec 08          	sub    $0x8,%rsp
  405d5b:	e8 00 fc ff ff       	callq  405960 <_ZNSt8ios_base4InitC1Ev@plt>
  405d60:	48 8b 3d 81 02 21 00 	mov    0x210281(%rip),%rdi        # 615fe8 <_DYNAMIC+0x258>
  405d67:	48 8d 15 b2 08 21 00 	lea    0x2108b2(%rip),%rdx        # 616620 <__dso_handle>
  405d6e:	48 8d 35 06 09 21 00 	lea    0x210906(%rip),%rsi        # 61667b <_ZStL8__ioinit>
  405d75:	48 83 c4 08          	add    $0x8,%rsp
  405d79:	e9 42 fa ff ff       	jmpq   4057c0 <__cxa_atexit@plt>
  405d7e:	66 90                	xchg   %ax,%ax

0000000000405d80 <_GLOBAL__sub_I__ZN15SpectrogramPlotC2EP7QWidget>:
  405d80:	48 8d 3d f5 08 21 00 	lea    0x2108f5(%rip),%rdi        # 61667c <_ZStL8__ioinit>
  405d87:	48 83 ec 08          	sub    $0x8,%rsp
  405d8b:	e8 d0 fb ff ff       	callq  405960 <_ZNSt8ios_base4InitC1Ev@plt>
  405d90:	48 8b 3d 51 02 21 00 	mov    0x210251(%rip),%rdi        # 615fe8 <_DYNAMIC+0x258>
  405d97:	48 8d 15 82 08 21 00 	lea    0x210882(%rip),%rdx        # 616620 <__dso_handle>
  405d9e:	48 8d 35 d7 08 21 00 	lea    0x2108d7(%rip),%rsi        # 61667c <_ZStL8__ioinit>
  405da5:	48 83 c4 08          	add    $0x8,%rsp
  405da9:	e9 12 fa ff ff       	jmpq   4057c0 <__cxa_atexit@plt>
  405dae:	66 90                	xchg   %ax,%ax

0000000000405db0 <_GLOBAL__sub_I_freeSpace>:
  405db0:	53                   	push   %rbx
  405db1:	48 8d 3d d8 08 21 00 	lea    0x2108d8(%rip),%rdi        # 616690 <_ZStL8__ioinit>
  405db8:	e8 a3 fb ff ff       	callq  405960 <_ZNSt8ios_base4InitC1Ev@plt>
  405dbd:	48 8b 3d 24 02 21 00 	mov    0x210224(%rip),%rdi        # 615fe8 <_DYNAMIC+0x258>
  405dc4:	48 8d 15 55 08 21 00 	lea    0x210855(%rip),%rdx        # 616620 <__dso_handle>
  405dcb:	48 8d 35 be 08 21 00 	lea    0x2108be(%rip),%rsi        # 616690 <_ZStL8__ioinit>
  405dd2:	e8 e9 f9 ff ff       	callq  4057c0 <__cxa_atexit@plt>
  405dd7:	48 8d 3d aa 08 21 00 	lea    0x2108aa(%rip),%rdi        # 616688 <freeSpace>
  405dde:	be 40 4b 4c 00       	mov    $0x4c4b40,%esi
  405de3:	e8 08 f7 ff ff       	callq  4054f0 <_ZN10QSemaphoreC1Ei@plt>
  405de8:	48 8b 1d 01 02 21 00 	mov    0x210201(%rip),%rbx        # 615ff0 <_DYNAMIC+0x260>
  405def:	48 8d 15 2a 08 21 00 	lea    0x21082a(%rip),%rdx        # 616620 <__dso_handle>
  405df6:	48 8d 35 8b 08 21 00 	lea    0x21088b(%rip),%rsi        # 616688 <freeSpace>
  405dfd:	48 89 df             	mov    %rbx,%rdi
  405e00:	e8 bb f9 ff ff       	callq  4057c0 <__cxa_atexit@plt>
  405e05:	48 8d 3d 74 08 21 00 	lea    0x210874(%rip),%rdi        # 616680 <usedSpace>
  405e0c:	31 f6                	xor    %esi,%esi
  405e0e:	e8 dd f6 ff ff       	callq  4054f0 <_ZN10QSemaphoreC1Ei@plt>
  405e13:	48 89 df             	mov    %rbx,%rdi
  405e16:	48 8d 15 03 08 21 00 	lea    0x210803(%rip),%rdx        # 616620 <__dso_handle>
  405e1d:	48 8d 35 5c 08 21 00 	lea    0x21085c(%rip),%rsi        # 616680 <usedSpace>
  405e24:	5b                   	pop    %rbx
  405e25:	e9 96 f9 ff ff       	jmpq   4057c0 <__cxa_atexit@plt>
  405e2a:	66 0f 1f 44 00 00    	nopw   0x0(%rax,%rax,1)

0000000000405e30 <_GLOBAL__sub_I__ZN14ProducerUnsafeC2EP7QObject>:
  405e30:	48 8d 3d 5a 08 21 00 	lea    0x21085a(%rip),%rdi        # 616691 <_ZStL8__ioinit>
  405e37:	48 83 ec 08          	sub    $0x8,%rsp
  405e3b:	e8 20 fb ff ff       	callq  405960 <_ZNSt8ios_base4InitC1Ev@plt>
  405e40:	48 8b 3d a1 01 21 00 	mov    0x2101a1(%rip),%rdi        # 615fe8 <_DYNAMIC+0x258>
  405e47:	48 8d 15 d2 07 21 00 	lea    0x2107d2(%rip),%rdx        # 616620 <__dso_handle>
  405e4e:	48 8d 35 3c 08 21 00 	lea    0x21083c(%rip),%rsi        # 616691 <_ZStL8__ioinit>
  405e55:	48 83 c4 08          	add    $0x8,%rsp
  405e59:	e9 62 f9 ff ff       	jmpq   4057c0 <__cxa_atexit@plt>
  405e5e:	66 90                	xchg   %ax,%ax

0000000000405e60 <_GLOBAL__sub_I__ZN14ConsumerUnsafeC2EP7QObject>:
  405e60:	48 8d 3d 2b 08 21 00 	lea    0x21082b(%rip),%rdi        # 616692 <_ZStL8__ioinit>
  405e67:	48 83 ec 08          	sub    $0x8,%rsp
  405e6b:	e8 f0 fa ff ff       	callq  405960 <_ZNSt8ios_base4InitC1Ev@plt>
  405e70:	48 8b 3d 71 01 21 00 	mov    0x210171(%rip),%rdi        # 615fe8 <_DYNAMIC+0x258>
  405e77:	48 8d 15 a2 07 21 00 	lea    0x2107a2(%rip),%rdx        # 616620 <__dso_handle>
  405e7e:	48 8d 35 0d 08 21 00 	lea    0x21080d(%rip),%rsi        # 616692 <_ZStL8__ioinit>
  405e85:	48 83 c4 08          	add    $0x8,%rsp
  405e89:	e9 32 f9 ff ff       	jmpq   4057c0 <__cxa_atexit@plt>
  405e8e:	66 90                	xchg   %ax,%ax

0000000000405e90 <_GLOBAL__sub_I_circulararray2dworkerthreaded.cpp>:
  405e90:	48 8d 3d fc 07 21 00 	lea    0x2107fc(%rip),%rdi        # 616693 <_ZStL8__ioinit>
  405e97:	48 83 ec 08          	sub    $0x8,%rsp
  405e9b:	e8 c0 fa ff ff       	callq  405960 <_ZNSt8ios_base4InitC1Ev@plt>
  405ea0:	48 8b 3d 41 01 21 00 	mov    0x210141(%rip),%rdi        # 615fe8 <_DYNAMIC+0x258>
  405ea7:	48 8d 15 72 07 21 00 	lea    0x210772(%rip),%rdx        # 616620 <__dso_handle>
  405eae:	48 8d 35 de 07 21 00 	lea    0x2107de(%rip),%rsi        # 616693 <_ZStL8__ioinit>
  405eb5:	48 83 c4 08          	add    $0x8,%rsp
  405eb9:	e9 02 f9 ff ff       	jmpq   4057c0 <__cxa_atexit@plt>
  405ebe:	66 90                	xchg   %ax,%ax

0000000000405ec0 <_GLOBAL__sub_I_array2dspectrum.cpp>:
  405ec0:	48 8d 3d cd 07 21 00 	lea    0x2107cd(%rip),%rdi        # 616694 <_ZStL8__ioinit>
  405ec7:	48 83 ec 08          	sub    $0x8,%rsp
  405ecb:	e8 90 fa ff ff       	callq  405960 <_ZNSt8ios_base4InitC1Ev@plt>
  405ed0:	48 8b 3d 11 01 21 00 	mov    0x210111(%rip),%rdi        # 615fe8 <_DYNAMIC+0x258>
  405ed7:	48 8d 15 42 07 21 00 	lea    0x210742(%rip),%rdx        # 616620 <__dso_handle>
  405ede:	48 8d 35 af 07 21 00 	lea    0x2107af(%rip),%rsi        # 616694 <_ZStL8__ioinit>
  405ee5:	48 83 c4 08          	add    $0x8,%rsp
  405ee9:	e9 d2 f8 ff ff       	jmpq   4057c0 <__cxa_atexit@plt>
  405eee:	66 90                	xchg   %ax,%ax

0000000000405ef0 <_GLOBAL__sub_I_circulararray2dspectrum.cpp>:
  405ef0:	48 8d 3d 9e 07 21 00 	lea    0x21079e(%rip),%rdi        # 616695 <_ZStL8__ioinit>
  405ef7:	48 83 ec 08          	sub    $0x8,%rsp
  405efb:	e8 60 fa ff ff       	callq  405960 <_ZNSt8ios_base4InitC1Ev@plt>
  405f00:	48 8b 3d e1 00 21 00 	mov    0x2100e1(%rip),%rdi        # 615fe8 <_DYNAMIC+0x258>
  405f07:	48 8d 15 12 07 21 00 	lea    0x210712(%rip),%rdx        # 616620 <__dso_handle>
  405f0e:	48 8d 35 80 07 21 00 	lea    0x210780(%rip),%rsi        # 616695 <_ZStL8__ioinit>
  405f15:	48 83 c4 08          	add    $0x8,%rsp
  405f19:	e9 a2 f8 ff ff       	jmpq   4057c0 <__cxa_atexit@plt>
  405f1e:	66 90                	xchg   %ax,%ax

0000000000405f20 <_GLOBAL__sub_I_circulararray2dspectrumthreaded.cpp>:
  405f20:	48 8d 3d 6f 07 21 00 	lea    0x21076f(%rip),%rdi        # 616696 <_ZStL8__ioinit>
  405f27:	48 83 ec 08          	sub    $0x8,%rsp
  405f2b:	e8 30 fa ff ff       	callq  405960 <_ZNSt8ios_base4InitC1Ev@plt>
  405f30:	48 8b 3d b1 00 21 00 	mov    0x2100b1(%rip),%rdi        # 615fe8 <_DYNAMIC+0x258>
  405f37:	48 8d 15 e2 06 21 00 	lea    0x2106e2(%rip),%rdx        # 616620 <__dso_handle>
  405f3e:	48 8d 35 51 07 21 00 	lea    0x210751(%rip),%rsi        # 616696 <_ZStL8__ioinit>
  405f45:	48 83 c4 08          	add    $0x8,%rsp
  405f49:	e9 72 f8 ff ff       	jmpq   4057c0 <__cxa_atexit@plt>
  405f4e:	66 90                	xchg   %ax,%ax

0000000000405f50 <_GLOBAL__sub_I__ZN8PipelineC2EP7QObjectP31CircularArray2DSpectrumThreadedIfES4_ii>:
  405f50:	48 8d 3d 40 07 21 00 	lea    0x210740(%rip),%rdi        # 616697 <_ZStL8__ioinit>
  405f57:	48 83 ec 08          	sub    $0x8,%rsp
  405f5b:	e8 00 fa ff ff       	callq  405960 <_ZNSt8ios_base4InitC1Ev@plt>
  405f60:	48 8b 3d 81 00 21 00 	mov    0x210081(%rip),%rdi        # 615fe8 <_DYNAMIC+0x258>
  405f67:	48 8d 15 b2 06 21 00 	lea    0x2106b2(%rip),%rdx        # 616620 <__dso_handle>
  405f6e:	48 8d 35 22 07 21 00 	lea    0x210722(%rip),%rsi        # 616697 <_ZStL8__ioinit>
  405f75:	48 83 c4 08          	add    $0x8,%rsp
  405f79:	e9 42 f8 ff ff       	jmpq   4057c0 <__cxa_atexit@plt>
  405f7e:	66 90                	xchg   %ax,%ax

0000000000405f80 <_GLOBAL__sub_I__ZN7PlotterC2EP7QObjectP31CircularArray2DSpectrumThreadedIfEiiP15SpectrogramPlot>:
  405f80:	48 8d 3d 11 07 21 00 	lea    0x210711(%rip),%rdi        # 616698 <_ZStL8__ioinit>
  405f87:	48 83 ec 08          	sub    $0x8,%rsp
  405f8b:	e8 d0 f9 ff ff       	callq  405960 <_ZNSt8ios_base4InitC1Ev@plt>
  405f90:	48 8b 3d 51 00 21 00 	mov    0x210051(%rip),%rdi        # 615fe8 <_DYNAMIC+0x258>
  405f97:	48 8d 15 82 06 21 00 	lea    0x210682(%rip),%rdx        # 616620 <__dso_handle>
  405f9e:	48 8d 35 f3 06 21 00 	lea    0x2106f3(%rip),%rsi        # 616698 <_ZStL8__ioinit>
  405fa5:	48 83 c4 08          	add    $0x8,%rsp
  405fa9:	e9 12 f8 ff ff       	jmpq   4057c0 <__cxa_atexit@plt>
  405fae:	66 90                	xchg   %ax,%ax

0000000000405fb0 <_GLOBAL__sub_I__ZN10MainWindow18qt_static_metacallEP7QObjectN11QMetaObject4CallEiPPv>:
  405fb0:	48 8d 3d e2 06 21 00 	lea    0x2106e2(%rip),%rdi        # 616699 <_ZStL8__ioinit>
  405fb7:	48 83 ec 08          	sub    $0x8,%rsp
  405fbb:	e8 a0 f9 ff ff       	callq  405960 <_ZNSt8ios_base4InitC1Ev@plt>
  405fc0:	48 8b 3d 21 00 21 00 	mov    0x210021(%rip),%rdi        # 615fe8 <_DYNAMIC+0x258>
  405fc7:	48 8d 15 52 06 21 00 	lea    0x210652(%rip),%rdx        # 616620 <__dso_handle>
  405fce:	48 8d 35 c4 06 21 00 	lea    0x2106c4(%rip),%rsi        # 616699 <_ZStL8__ioinit>
  405fd5:	48 83 c4 08          	add    $0x8,%rsp
  405fd9:	e9 e2 f7 ff ff       	jmpq   4057c0 <__cxa_atexit@plt>
  405fde:	66 90                	xchg   %ax,%ax

0000000000405fe0 <_GLOBAL__sub_I__ZN15SpectrogramPlot18qt_static_metacallEP7QObjectN11QMetaObject4CallEiPPv>:
  405fe0:	48 8d 3d b3 06 21 00 	lea    0x2106b3(%rip),%rdi        # 61669a <_ZStL8__ioinit>
  405fe7:	48 83 ec 08          	sub    $0x8,%rsp
  405feb:	e8 70 f9 ff ff       	callq  405960 <_ZNSt8ios_base4InitC1Ev@plt>
  405ff0:	48 8b 3d f1 ff 20 00 	mov    0x20fff1(%rip),%rdi        # 615fe8 <_DYNAMIC+0x258>
  405ff7:	48 8d 15 22 06 21 00 	lea    0x210622(%rip),%rdx        # 616620 <__dso_handle>
  405ffe:	48 8d 35 95 06 21 00 	lea    0x210695(%rip),%rsi        # 61669a <_ZStL8__ioinit>
  406005:	48 83 c4 08          	add    $0x8,%rsp
  406009:	e9 b2 f7 ff ff       	jmpq   4057c0 <__cxa_atexit@plt>
  40600e:	66 90                	xchg   %ax,%ax

0000000000406010 <_GLOBAL__sub_I__ZN14ProducerUnsafe18qt_static_metacallEP7QObjectN11QMetaObject4CallEiPPv>:
  406010:	48 8d 3d 84 06 21 00 	lea    0x210684(%rip),%rdi        # 61669b <_ZStL8__ioinit>
  406017:	48 83 ec 08          	sub    $0x8,%rsp
  40601b:	e8 40 f9 ff ff       	callq  405960 <_ZNSt8ios_base4InitC1Ev@plt>
  406020:	48 8b 3d c1 ff 20 00 	mov    0x20ffc1(%rip),%rdi        # 615fe8 <_DYNAMIC+0x258>
  406027:	48 8d 15 f2 05 21 00 	lea    0x2105f2(%rip),%rdx        # 616620 <__dso_handle>
  40602e:	48 8d 35 66 06 21 00 	lea    0x210666(%rip),%rsi        # 61669b <_ZStL8__ioinit>
  406035:	48 83 c4 08          	add    $0x8,%rsp
  406039:	e9 82 f7 ff ff       	jmpq   4057c0 <__cxa_atexit@plt>
  40603e:	66 90                	xchg   %ax,%ax

0000000000406040 <_GLOBAL__sub_I__ZN14ConsumerUnsafe18qt_static_metacallEP7QObjectN11QMetaObject4CallEiPPv>:
  406040:	48 8d 3d 55 06 21 00 	lea    0x210655(%rip),%rdi        # 61669c <_ZStL8__ioinit>
  406047:	48 83 ec 08          	sub    $0x8,%rsp
  40604b:	e8 10 f9 ff ff       	callq  405960 <_ZNSt8ios_base4InitC1Ev@plt>
  406050:	48 8b 3d 91 ff 20 00 	mov    0x20ff91(%rip),%rdi        # 615fe8 <_DYNAMIC+0x258>
  406057:	48 8d 15 c2 05 21 00 	lea    0x2105c2(%rip),%rdx        # 616620 <__dso_handle>
  40605e:	48 8d 35 37 06 21 00 	lea    0x210637(%rip),%rsi        # 61669c <_ZStL8__ioinit>
  406065:	48 83 c4 08          	add    $0x8,%rsp
  406069:	e9 52 f7 ff ff       	jmpq   4057c0 <__cxa_atexit@plt>
  40606e:	66 90                	xchg   %ax,%ax

0000000000406070 <_GLOBAL__sub_I__ZN8Pipeline18qt_static_metacallEP7QObjectN11QMetaObject4CallEiPPv>:
  406070:	48 8d 3d 26 06 21 00 	lea    0x210626(%rip),%rdi        # 61669d <_ZStL8__ioinit>
  406077:	48 83 ec 08          	sub    $0x8,%rsp
  40607b:	e8 e0 f8 ff ff       	callq  405960 <_ZNSt8ios_base4InitC1Ev@plt>
  406080:	48 8b 3d 61 ff 20 00 	mov    0x20ff61(%rip),%rdi        # 615fe8 <_DYNAMIC+0x258>
  406087:	48 8d 15 92 05 21 00 	lea    0x210592(%rip),%rdx        # 616620 <__dso_handle>
  40608e:	48 8d 35 08 06 21 00 	lea    0x210608(%rip),%rsi        # 61669d <_ZStL8__ioinit>
  406095:	48 83 c4 08          	add    $0x8,%rsp
  406099:	e9 22 f7 ff ff       	jmpq   4057c0 <__cxa_atexit@plt>
  40609e:	66 90                	xchg   %ax,%ax

00000000004060a0 <_GLOBAL__sub_I__ZN7Plotter18qt_static_metacallEP7QObjectN11QMetaObject4CallEiPPv>:
  4060a0:	48 8d 3d f7 05 21 00 	lea    0x2105f7(%rip),%rdi        # 61669e <_ZStL8__ioinit>
  4060a7:	48 83 ec 08          	sub    $0x8,%rsp
  4060ab:	e8 b0 f8 ff ff       	callq  405960 <_ZNSt8ios_base4InitC1Ev@plt>
  4060b0:	48 8b 3d 31 ff 20 00 	mov    0x20ff31(%rip),%rdi        # 615fe8 <_DYNAMIC+0x258>
  4060b7:	48 8d 15 62 05 21 00 	lea    0x210562(%rip),%rdx        # 616620 <__dso_handle>
  4060be:	48 8d 35 d9 05 21 00 	lea    0x2105d9(%rip),%rsi        # 61669e <_ZStL8__ioinit>
  4060c5:	48 83 c4 08          	add    $0x8,%rsp
  4060c9:	e9 f2 f6 ff ff       	jmpq   4057c0 <__cxa_atexit@plt>

00000000004060ce <_start>:
  4060ce:	31 ed                	xor    %ebp,%ebp
  4060d0:	49 89 d1             	mov    %rdx,%r9
  4060d3:	5e                   	pop    %rsi
  4060d4:	48 89 e2             	mov    %rsp,%rdx
  4060d7:	48 83 e4 f0          	and    $0xfffffffffffffff0,%rsp
  4060db:	50                   	push   %rax
  4060dc:	54                   	push   %rsp
  4060dd:	49 c7 c0 30 ea 40 00 	mov    $0x40ea30,%r8
  4060e4:	48 c7 c1 c0 e9 40 00 	mov    $0x40e9c0,%rcx
  4060eb:	48 c7 c7 30 5c 40 00 	mov    $0x405c30,%rdi
  4060f2:	e8 c9 f7 ff ff       	callq  4058c0 <__libc_start_main@plt>
  4060f7:	f4                   	hlt    
  4060f8:	0f 1f 84 00 00 00 00 	nopl   0x0(%rax,%rax,1)
  4060ff:	00 

0000000000406100 <deregister_tm_clones>:
  406100:	b8 37 66 61 00       	mov    $0x616637,%eax
  406105:	55                   	push   %rbp
  406106:	48 2d 30 66 61 00    	sub    $0x616630,%rax
  40610c:	48 83 f8 0e          	cmp    $0xe,%rax
  406110:	48 89 e5             	mov    %rsp,%rbp
  406113:	77 02                	ja     406117 <deregister_tm_clones+0x17>
  406115:	5d                   	pop    %rbp
  406116:	c3                   	retq   
  406117:	b8 00 00 00 00       	mov    $0x0,%eax
  40611c:	48 85 c0             	test   %rax,%rax
  40611f:	74 f4                	je     406115 <deregister_tm_clones+0x15>
  406121:	5d                   	pop    %rbp
  406122:	bf 30 66 61 00       	mov    $0x616630,%edi
  406127:	ff e0                	jmpq   *%rax
  406129:	0f 1f 80 00 00 00 00 	nopl   0x0(%rax)

0000000000406130 <register_tm_clones>:
  406130:	b8 30 66 61 00       	mov    $0x616630,%eax
  406135:	55                   	push   %rbp
  406136:	48 2d 30 66 61 00    	sub    $0x616630,%rax
  40613c:	48 c1 f8 03          	sar    $0x3,%rax
  406140:	48 89 e5             	mov    %rsp,%rbp
  406143:	48 89 c2             	mov    %rax,%rdx
  406146:	48 c1 ea 3f          	shr    $0x3f,%rdx
  40614a:	48 01 d0             	add    %rdx,%rax
  40614d:	48 d1 f8             	sar    %rax
  406150:	75 02                	jne    406154 <register_tm_clones+0x24>
  406152:	5d                   	pop    %rbp
  406153:	c3                   	retq   
  406154:	ba 00 00 00 00       	mov    $0x0,%edx
  406159:	48 85 d2             	test   %rdx,%rdx
  40615c:	74 f4                	je     406152 <register_tm_clones+0x22>
  40615e:	5d                   	pop    %rbp
  40615f:	48 89 c6             	mov    %rax,%rsi
  406162:	bf 30 66 61 00       	mov    $0x616630,%edi
  406167:	ff e2                	jmpq   *%rdx
  406169:	0f 1f 80 00 00 00 00 	nopl   0x0(%rax)

0000000000406170 <__do_global_dtors_aux>:
  406170:	80 3d b9 04 21 00 00 	cmpb   $0x0,0x2104b9(%rip)        # 616630 <__TMC_END__>
  406177:	75 11                	jne    40618a <__do_global_dtors_aux+0x1a>
  406179:	55                   	push   %rbp
  40617a:	48 89 e5             	mov    %rsp,%rbp
  40617d:	e8 7e ff ff ff       	callq  406100 <deregister_tm_clones>
  406182:	5d                   	pop    %rbp
  406183:	c6 05 a6 04 21 00 01 	movb   $0x1,0x2104a6(%rip)        # 616630 <__TMC_END__>
  40618a:	f3 c3                	repz retq 
  40618c:	0f 1f 40 00          	nopl   0x0(%rax)

0000000000406190 <frame_dummy>:
  406190:	48 83 3d 60 f1 20 00 	cmpq   $0x0,0x20f160(%rip)        # 6152f8 <__JCR_END__>
  406197:	00 
  406198:	74 1e                	je     4061b8 <frame_dummy+0x28>
  40619a:	b8 00 00 00 00       	mov    $0x0,%eax
  40619f:	48 85 c0             	test   %rax,%rax
  4061a2:	74 14                	je     4061b8 <frame_dummy+0x28>
  4061a4:	55                   	push   %rbp
  4061a5:	bf f8 52 61 00       	mov    $0x6152f8,%edi
  4061aa:	48 89 e5             	mov    %rsp,%rbp
  4061ad:	ff d0                	callq  *%rax
  4061af:	5d                   	pop    %rbp
  4061b0:	e9 7b ff ff ff       	jmpq   406130 <register_tm_clones>
  4061b5:	0f 1f 00             	nopl   (%rax)
  4061b8:	e9 73 ff ff ff       	jmpq   406130 <register_tm_clones>
  4061bd:	0f 1f 00             	nopl   (%rax)

00000000004061c0 <_ZN10MainWindowD1Ev>:
  4061c0:	55                   	push   %rbp
  4061c1:	53                   	push   %rbx
  4061c2:	48 89 fb             	mov    %rdi,%rbx
  4061c5:	48 83 ec 08          	sub    $0x8,%rsp
  4061c9:	48 8d 05 30 f3 20 00 	lea    0x20f330(%rip),%rax        # 615500 <_ZTV10MainWindow>
  4061d0:	48 8d 50 10          	lea    0x10(%rax),%rdx
  4061d4:	48 05 c8 01 00 00    	add    $0x1c8,%rax
  4061da:	48 89 47 10          	mov    %rax,0x10(%rdi)
  4061de:	48 89 17             	mov    %rdx,(%rdi)
  4061e1:	48 8b 7f 30          	mov    0x30(%rdi),%rdi
  4061e5:	e8 36 f2 ff ff       	callq  405420 <_ZdlPv@plt>
  4061ea:	48 8b 2d 4f 04 21 00 	mov    0x21044f(%rip),%rbp        # 616640 <tempColumns>
  4061f1:	48 85 ed             	test   %rbp,%rbp
  4061f4:	74 10                	je     406206 <_ZN10MainWindowD1Ev+0x46>
  4061f6:	48 89 ef             	mov    %rbp,%rdi
  4061f9:	e8 72 66 00 00       	callq  40c870 <_ZN23CircularArray2DSpectrumIfED1Ev>
  4061fe:	48 89 ef             	mov    %rbp,%rdi
  406201:	e8 1a f2 ff ff       	callq  405420 <_ZdlPv@plt>
  406206:	48 8b 2d 63 04 21 00 	mov    0x210463(%rip),%rbp        # 616670 <dataBlock>
  40620d:	48 85 ed             	test   %rbp,%rbp
  406210:	74 10                	je     406222 <_ZN10MainWindowD1Ev+0x62>
  406212:	48 89 ef             	mov    %rbp,%rdi
  406215:	e8 56 1f 00 00       	callq  408170 <_ZN21CircularArray2DWorkerIfED1Ev>
  40621a:	48 89 ef             	mov    %rbp,%rdi
  40621d:	e8 fe f1 ff ff       	callq  405420 <_ZdlPv@plt>
  406222:	48 83 c4 08          	add    $0x8,%rsp
  406226:	48 89 df             	mov    %rbx,%rdi
  406229:	5b                   	pop    %rbx
  40622a:	5d                   	pop    %rbp
  40622b:	e9 70 ee ff ff       	jmpq   4050a0 <_ZN11QMainWindowD2Ev@plt>
  406230:	48 89 c5             	mov    %rax,%rbp
  406233:	48 89 df             	mov    %rbx,%rdi
  406236:	e8 65 ee ff ff       	callq  4050a0 <_ZN11QMainWindowD2Ev@plt>
  40623b:	48 89 ef             	mov    %rbp,%rdi
  40623e:	e8 dd f2 ff ff       	callq  405520 <_Unwind_Resume@plt>
  406243:	66 66 66 66 2e 0f 1f 	data32 data32 data32 nopw %cs:0x0(%rax,%rax,1)
  40624a:	84 00 00 00 00 00 

0000000000406250 <_ZThn16_N10MainWindowD1Ev>:
  406250:	48 83 ef 10          	sub    $0x10,%rdi
  406254:	e9 67 ff ff ff       	jmpq   4061c0 <_ZN10MainWindowD1Ev>
  406259:	90                   	nop
  40625a:	66 0f 1f 44 00 00    	nopw   0x0(%rax,%rax,1)

0000000000406260 <_ZN10MainWindowD0Ev>:
  406260:	53                   	push   %rbx
  406261:	48 89 fb             	mov    %rdi,%rbx
  406264:	e8 57 ff ff ff       	callq  4061c0 <_ZN10MainWindowD1Ev>
  406269:	48 89 df             	mov    %rbx,%rdi
  40626c:	5b                   	pop    %rbx
  40626d:	e9 ae f1 ff ff       	jmpq   405420 <_ZdlPv@plt>
  406272:	66 66 66 66 66 2e 0f 	data32 data32 data32 data32 nopw %cs:0x0(%rax,%rax,1)
  406279:	1f 84 00 00 00 00 00 

0000000000406280 <_ZThn16_N10MainWindowD0Ev>:
  406280:	48 83 ef 10          	sub    $0x10,%rdi
  406284:	eb da                	jmp    406260 <_ZN10MainWindowD0Ev>
  406286:	66 2e 0f 1f 84 00 00 	nopw   %cs:0x0(%rax,%rax,1)
  40628d:	00 00 00 

0000000000406290 <_ZN10MainWindowC1EP7QWidget>:
  406290:	41 55                	push   %r13
  406292:	31 d2                	xor    %edx,%edx
  406294:	49 89 fd             	mov    %rdi,%r13
  406297:	41 54                	push   %r12
  406299:	55                   	push   %rbp
  40629a:	53                   	push   %rbx
  40629b:	48 81 ec 08 04 00 00 	sub    $0x408,%rsp
  4062a2:	e8 89 f8 ff ff       	callq  405b30 <_ZN11QMainWindowC2EP7QWidget6QFlagsIN2Qt10WindowTypeEE@plt>
  4062a7:	48 8d 05 52 f2 20 00 	lea    0x20f252(%rip),%rax        # 615500 <_ZTV10MainWindow>
  4062ae:	bf 50 00 00 00       	mov    $0x50,%edi
  4062b3:	48 8d 50 10          	lea    0x10(%rax),%rdx
  4062b7:	48 05 c8 01 00 00    	add    $0x1c8,%rax
  4062bd:	49 89 45 10          	mov    %rax,0x10(%r13)
  4062c1:	49 89 55 00          	mov    %rdx,0x0(%r13)
  4062c5:	e8 96 ed ff ff       	callq  405060 <_Znwm@plt>
  4062ca:	49 89 45 30          	mov    %rax,0x30(%r13)
  4062ce:	4c 89 ee             	mov    %r13,%rsi
  4062d1:	48 89 c7             	mov    %rax,%rdi
  4062d4:	e8 67 02 00 00       	callq  406540 <_ZN13Ui_MainWindow7setupUiEP11QMainWindow>
  4062d9:	49 8b 45 30          	mov    0x30(%r13),%rax
  4062dd:	ba 40 4b 4c 00       	mov    $0x4c4b40,%edx
  4062e2:	31 f6                	xor    %esi,%esi
  4062e4:	48 8b 78 18          	mov    0x18(%rax),%rdi
  4062e8:	e8 f3 f5 ff ff       	callq  4058e0 <_ZN12QProgressBar8setRangeEii@plt>
  4062ed:	49 8b 45 30          	mov    0x30(%r13),%rax
  4062f1:	ba 40 4b 4c 00       	mov    $0x4c4b40,%edx
  4062f6:	31 f6                	xor    %esi,%esi
  4062f8:	48 8b 78 28          	mov    0x28(%rax),%rdi
  4062fc:	e8 df f5 ff ff       	callq  4058e0 <_ZN12QProgressBar8setRangeEii@plt>
  406301:	49 8b 45 30          	mov    0x30(%r13),%rax
  406305:	ba 40 4b 4c 00       	mov    $0x4c4b40,%edx
  40630a:	31 f6                	xor    %esi,%esi
  40630c:	48 8b 78 38          	mov    0x38(%rax),%rdi
  406310:	e8 cb f5 ff ff       	callq  4058e0 <_ZN12QProgressBar8setRangeEii@plt>
  406315:	bf 40 00 00 00       	mov    $0x40,%edi
  40631a:	e8 41 ed ff ff       	callq  405060 <_Znwm@plt>
  40631f:	ba 40 4b 4c 00       	mov    $0x4c4b40,%edx
  406324:	be 00 01 00 00       	mov    $0x100,%esi
  406329:	48 89 c7             	mov    %rax,%rdi
  40632c:	48 89 c5             	mov    %rax,%rbp
  40632f:	e8 cc 6f 00 00       	callq  40d300 <_ZN31CircularArray2DSpectrumThreadedIfEC1Eii>
  406334:	48 8d 9c 24 00 04 00 	lea    0x400(%rsp),%rbx
  40633b:	00 
  40633c:	48 89 2d 15 03 21 00 	mov    %rbp,0x210315(%rip)        # 616658 <rawSourceDataBlock>
  406343:	48 89 ef             	mov    %rbp,%rdi
  406346:	49 89 e4             	mov    %rsp,%r12
  406349:	31 ed                	xor    %ebp,%ebp
  40634b:	0f 1f 44 00 00       	nopl   0x0(%rax,%rax,1)
  406350:	f3 0f 2a c5          	cvtsi2ss %ebp,%xmm0
  406354:	4c 89 e0             	mov    %r12,%rax
  406357:	f3 0f 5e 05 c1 87 00 	divss  0x87c1(%rip),%xmm0        # 40eb20 <_IO_stdin_used+0xe0>
  40635e:	00 
  40635f:	90                   	nop
  406360:	f3 0f 11 00          	movss  %xmm0,(%rax)
  406364:	48 83 c0 04          	add    $0x4,%rax
  406368:	48 39 d8             	cmp    %rbx,%rax
  40636b:	75 f3                	jne    406360 <_ZN10MainWindowC1EP7QWidget+0xd0>
  40636d:	4c 89 e6             	mov    %r12,%rsi
  406370:	e8 6b 70 00 00       	callq  40d3e0 <_ZN31CircularArray2DSpectrumThreadedIfE11writeSampleEPf>
  406375:	83 c5 01             	add    $0x1,%ebp
  406378:	81 fd 40 4b 4c 00    	cmp    $0x4c4b40,%ebp
  40637e:	74 09                	je     406389 <_ZN10MainWindowC1EP7QWidget+0xf9>
  406380:	48 8b 3d d1 02 21 00 	mov    0x2102d1(%rip),%rdi        # 616658 <rawSourceDataBlock>
  406387:	eb c7                	jmp    406350 <_ZN10MainWindowC1EP7QWidget+0xc0>
  406389:	bf 40 00 00 00       	mov    $0x40,%edi
  40638e:	e8 cd ec ff ff       	callq  405060 <_Znwm@plt>
  406393:	ba 40 4b 4c 00       	mov    $0x4c4b40,%edx
  406398:	be 00 01 00 00       	mov    $0x100,%esi
  40639d:	48 89 c7             	mov    %rax,%rdi
  4063a0:	48 89 c5             	mov    %rax,%rbp
  4063a3:	e8 58 6f 00 00       	callq  40d300 <_ZN31CircularArray2DSpectrumThreadedIfEC1Eii>
  4063a8:	bf 48 00 00 00       	mov    $0x48,%edi
  4063ad:	48 89 2d 9c 02 21 00 	mov    %rbp,0x21029c(%rip)        # 616650 <pipelineSourceDataBlock>
  4063b4:	e8 a7 ec ff ff       	callq  405060 <_Znwm@plt>
  4063b9:	48 8b 0d 90 02 21 00 	mov    0x210290(%rip),%rcx        # 616650 <pipelineSourceDataBlock>
  4063c0:	48 8b 15 91 02 21 00 	mov    0x210291(%rip),%rdx        # 616658 <rawSourceDataBlock>
  4063c7:	41 b9 02 00 00 00    	mov    $0x2,%r9d
  4063cd:	41 b8 f4 01 00 00    	mov    $0x1f4,%r8d
  4063d3:	4c 89 ee             	mov    %r13,%rsi
  4063d6:	48 89 c7             	mov    %rax,%rdi
  4063d9:	48 89 c5             	mov    %rax,%rbp
  4063dc:	e8 cf 73 00 00       	callq  40d7b0 <_ZN8PipelineC1EP7QObjectP31CircularArray2DSpectrumThreadedIfES4_ii>
  4063e1:	49 89 6d 48          	mov    %rbp,0x48(%r13)
  4063e5:	bf 40 00 00 00       	mov    $0x40,%edi
  4063ea:	e8 71 ec ff ff       	callq  405060 <_Znwm@plt>
  4063ef:	48 89 c5             	mov    %rax,%rbp
  4063f2:	49 8b 45 30          	mov    0x30(%r13),%rax
  4063f6:	48 8b 15 53 02 21 00 	mov    0x210253(%rip),%rdx        # 616650 <pipelineSourceDataBlock>
  4063fd:	41 b8 02 00 00 00    	mov    $0x2,%r8d
  406403:	b9 f4 01 00 00       	mov    $0x1f4,%ecx
  406408:	4c 89 ee             	mov    %r13,%rsi
  40640b:	48 89 ef             	mov    %rbp,%rdi
  40640e:	4c 8b 48 48          	mov    0x48(%rax),%r9
  406412:	e8 69 77 00 00       	callq  40db80 <_ZN7PlotterC1EP7QObjectP31CircularArray2DSpectrumThreadedIfEiiP15SpectrogramPlot>
  406417:	4c 8d 05 d8 86 00 00 	lea    0x86d8(%rip),%r8        # 40eaf6 <_IO_stdin_used+0xb6>
  40641e:	48 8d 15 ea 86 00 00 	lea    0x86ea(%rip),%rdx        # 40eb0f <_IO_stdin_used+0xcf>
  406425:	49 89 6d 50          	mov    %rbp,0x50(%r13)
  406429:	45 31 c9             	xor    %r9d,%r9d
  40642c:	4c 89 e9             	mov    %r13,%rcx
  40642f:	48 89 ee             	mov    %rbp,%rsi
  406432:	4c 89 e7             	mov    %r12,%rdi
  406435:	e8 26 f1 ff ff       	callq  405560 <_ZN7QObject7connectEPKS_PKcS1_S3_N2Qt14ConnectionTypeE@plt>
  40643a:	4c 89 e7             	mov    %r12,%rdi
  40643d:	e8 4e ec ff ff       	callq  405090 <_ZN11QMetaObject10ConnectionD1Ev@plt>
  406442:	48 81 c4 08 04 00 00 	add    $0x408,%rsp
  406449:	5b                   	pop    %rbx
  40644a:	5d                   	pop    %rbp
  40644b:	41 5c                	pop    %r12
  40644d:	41 5d                	pop    %r13
  40644f:	c3                   	retq   
  406450:	48 89 ef             	mov    %rbp,%rdi
  406453:	48 89 c3             	mov    %rax,%rbx
  406456:	e8 c5 ef ff ff       	callq  405420 <_ZdlPv@plt>
  40645b:	4c 89 ef             	mov    %r13,%rdi
  40645e:	e8 3d ec ff ff       	callq  4050a0 <_ZN11QMainWindowD2Ev@plt>
  406463:	48 89 df             	mov    %rbx,%rdi
  406466:	e8 b5 f0 ff ff       	callq  405520 <_Unwind_Resume@plt>
  40646b:	48 89 c3             	mov    %rax,%rbx
  40646e:	eb eb                	jmp    40645b <_ZN10MainWindowC1EP7QWidget+0x1cb>
  406470:	eb de                	jmp    406450 <_ZN10MainWindowC1EP7QWidget+0x1c0>
  406472:	eb dc                	jmp    406450 <_ZN10MainWindowC1EP7QWidget+0x1c0>
  406474:	eb da                	jmp    406450 <_ZN10MainWindowC1EP7QWidget+0x1c0>
  406476:	66 2e 0f 1f 84 00 00 	nopw   %cs:0x0(%rax,%rax,1)
  40647d:	00 00 00 

0000000000406480 <_ZN10MainWindow21spectrogramPlotUpdateEv>:
  406480:	48 8b 47 30          	mov    0x30(%rdi),%rax
  406484:	48 8b 78 48          	mov    0x48(%rax),%rdi
  406488:	48 8b 07             	mov    (%rdi),%rax
  40648b:	48 8b 80 d8 01 00 00 	mov    0x1d8(%rax),%rax
  406492:	ff e0                	jmpq   *%rax
  406494:	66 66 66 2e 0f 1f 84 	data32 data32 nopw %cs:0x0(%rax,%rax,1)
  40649b:	00 00 00 00 00 

00000000004064a0 <_ZN10MainWindow20onBufferValueChangedEi>:
  4064a0:	48 8b 47 30          	mov    0x30(%rdi),%rax
  4064a4:	48 8b 78 38          	mov    0x38(%rax),%rdi
  4064a8:	e9 43 f3 ff ff       	jmpq   4057f0 <_ZN12QProgressBar8setValueEi@plt>
  4064ad:	90                   	nop
  4064ae:	66 90                	xchg   %ax,%ax

00000000004064b0 <_ZN10MainWindow22onProducerValueChangedEi>:
  4064b0:	48 8b 47 30          	mov    0x30(%rdi),%rax
  4064b4:	48 8b 78 18          	mov    0x18(%rax),%rdi
  4064b8:	e9 33 f3 ff ff       	jmpq   4057f0 <_ZN12QProgressBar8setValueEi@plt>
  4064bd:	90                   	nop
  4064be:	66 90                	xchg   %ax,%ax

00000000004064c0 <_ZN10MainWindow22onConsumerValueChangedEi>:
  4064c0:	48 8b 47 30          	mov    0x30(%rdi),%rax
  4064c4:	48 8b 78 28          	mov    0x28(%rax),%rdi
  4064c8:	e9 23 f3 ff ff       	jmpq   4057f0 <_ZN12QProgressBar8setValueEi@plt>
  4064cd:	90                   	nop
  4064ce:	66 90                	xchg   %ax,%ax

00000000004064d0 <_ZN10MainWindow26on_startPushButton_clickedEv>:
  4064d0:	53                   	push   %rbx
  4064d1:	48 8b 47 30          	mov    0x30(%rdi),%rax
  4064d5:	48 89 fb             	mov    %rdi,%rbx
  4064d8:	31 f6                	xor    %esi,%esi
  4064da:	48 8b 78 40          	mov    0x40(%rax),%rdi
  4064de:	e8 3d f6 ff ff       	callq  405b20 <_ZN7QWidget10setEnabledEb@plt>
  4064e3:	48 8b 7b 50          	mov    0x50(%rbx),%rdi
  4064e7:	be 07 00 00 00       	mov    $0x7,%esi
  4064ec:	e8 5f f5 ff ff       	callq  405a50 <_ZN7QThread5startENS_8PriorityE@plt>
  4064f1:	48 8b 7b 48          	mov    0x48(%rbx),%rdi
  4064f5:	be 07 00 00 00       	mov    $0x7,%esi
  4064fa:	5b                   	pop    %rbx
  4064fb:	e9 50 f5 ff ff       	jmpq   405a50 <_ZN7QThread5startENS_8PriorityE@plt>

0000000000406500 <_ZN7QStringD1Ev>:
  406500:	48 8b 07             	mov    (%rdi),%rax
  406503:	8b 10                	mov    (%rax),%edx
  406505:	85 d2                	test   %edx,%edx
  406507:	75 17                	jne    406520 <_ZN7QStringD1Ev+0x20>
  406509:	ba 08 00 00 00       	mov    $0x8,%edx
  40650e:	be 02 00 00 00       	mov    $0x2,%esi
  406513:	48 89 c7             	mov    %rax,%rdi
  406516:	e9 35 f4 ff ff       	jmpq   405950 <_ZN10QArrayData10deallocateEPS_mm@plt>
  40651b:	0f 1f 44 00 00       	nopl   0x0(%rax,%rax,1)
  406520:	83 fa ff             	cmp    $0xffffffff,%edx
  406523:	74 0b                	je     406530 <_ZN7QStringD1Ev+0x30>
  406525:	f0 83 28 01          	lock subl $0x1,(%rax)
  406529:	0f 95 c2             	setne  %dl
  40652c:	84 d2                	test   %dl,%dl
  40652e:	74 02                	je     406532 <_ZN7QStringD1Ev+0x32>
  406530:	f3 c3                	repz retq 
  406532:	48 8b 07             	mov    (%rdi),%rax
  406535:	eb d2                	jmp    406509 <_ZN7QStringD1Ev+0x9>
  406537:	66 0f 1f 84 00 00 00 	nopw   0x0(%rax,%rax,1)
  40653e:	00 00 

0000000000406540 <_ZN13Ui_MainWindow7setupUiEP11QMainWindow>:
  406540:	41 55                	push   %r13
  406542:	41 54                	push   %r12
  406544:	49 89 f4             	mov    %rsi,%r12
  406547:	55                   	push   %rbp
  406548:	53                   	push   %rbx
  406549:	48 89 fb             	mov    %rdi,%rbx
  40654c:	48 83 ec 18          	sub    $0x18,%rsp
  406550:	48 89 e7             	mov    %rsp,%rdi
  406553:	48 89 e5             	mov    %rsp,%rbp
  406556:	e8 95 eb ff ff       	callq  4050f0 <_ZNK7QObject10objectNameEv@plt>
  40655b:	48 8b 3c 24          	mov    (%rsp),%rdi
  40655f:	8b 07                	mov    (%rdi),%eax
  406561:	44 8b 6f 04          	mov    0x4(%rdi),%r13d
  406565:	85 c0                	test   %eax,%eax
  406567:	0f 85 43 06 00 00    	jne    406bb0 <_ZN13Ui_MainWindow7setupUiEP11QMainWindow+0x670>
  40656d:	ba 08 00 00 00       	mov    $0x8,%edx
  406572:	be 02 00 00 00       	mov    $0x2,%esi
  406577:	e8 d4 f3 ff ff       	callq  405950 <_ZN10QArrayData10deallocateEPS_mm@plt>
  40657c:	45 85 ed             	test   %r13d,%r13d
  40657f:	75 3c                	jne    4065bd <_ZN13Ui_MainWindow7setupUiEP11QMainWindow+0x7d>
  406581:	48 8d 35 bc 84 00 00 	lea    0x84bc(%rip),%rsi        # 40ea44 <_IO_stdin_used+0x4>
  406588:	48 89 ef             	mov    %rbp,%rdi
  40658b:	ba 0a 00 00 00       	mov    $0xa,%edx
  406590:	e8 4b eb ff ff       	callq  4050e0 <_ZN7QString15fromUtf8_helperEPKci@plt>
  406595:	48 89 ee             	mov    %rbp,%rsi
  406598:	4c 89 e7             	mov    %r12,%rdi
  40659b:	e8 a0 f5 ff ff       	callq  405b40 <_ZN7QObject13setObjectNameERK7QString@plt>
  4065a0:	48 8b 3c 24          	mov    (%rsp),%rdi
  4065a4:	8b 07                	mov    (%rdi),%eax
  4065a6:	85 c0                	test   %eax,%eax
  4065a8:	0f 85 72 08 00 00    	jne    406e20 <_ZN13Ui_MainWindow7setupUiEP11QMainWindow+0x8e0>
  4065ae:	ba 08 00 00 00       	mov    $0x8,%edx
  4065b3:	be 02 00 00 00       	mov    $0x2,%esi
  4065b8:	e8 93 f3 ff ff       	callq  405950 <_ZN10QArrayData10deallocateEPS_mm@plt>
  4065bd:	48 89 ee             	mov    %rbp,%rsi
  4065c0:	4c 89 e7             	mov    %r12,%rdi
  4065c3:	c7 04 24 aa 02 00 00 	movl   $0x2aa,(%rsp)
  4065ca:	c7 44 24 04 fe 01 00 	movl   $0x1fe,0x4(%rsp)
  4065d1:	00 
  4065d2:	e8 39 ea ff ff       	callq  405010 <_ZN7QWidget6resizeERK5QSize@plt>
  4065d7:	bf 30 00 00 00       	mov    $0x30,%edi
  4065dc:	e8 7f ea ff ff       	callq  405060 <_Znwm@plt>
  4065e1:	31 d2                	xor    %edx,%edx
  4065e3:	4c 89 e6             	mov    %r12,%rsi
  4065e6:	48 89 c7             	mov    %rax,%rdi
  4065e9:	49 89 c5             	mov    %rax,%r13
  4065ec:	e8 7f f2 ff ff       	callq  405870 <_ZN7QWidgetC1EPS_6QFlagsIN2Qt10WindowTypeEE@plt>
  4065f1:	48 8d 35 57 84 00 00 	lea    0x8457(%rip),%rsi        # 40ea4f <_IO_stdin_used+0xf>
  4065f8:	48 89 ef             	mov    %rbp,%rdi
  4065fb:	4c 89 2b             	mov    %r13,(%rbx)
  4065fe:	ba 0d 00 00 00       	mov    $0xd,%edx
  406603:	e8 d8 ea ff ff       	callq  4050e0 <_ZN7QString15fromUtf8_helperEPKci@plt>
  406608:	48 8b 3b             	mov    (%rbx),%rdi
  40660b:	48 89 ee             	mov    %rbp,%rsi
  40660e:	e8 2d f5 ff ff       	callq  405b40 <_ZN7QObject13setObjectNameERK7QString@plt>
  406613:	48 8b 3c 24          	mov    (%rsp),%rdi
  406617:	8b 07                	mov    (%rdi),%eax
  406619:	85 c0                	test   %eax,%eax
  40661b:	0f 85 d7 07 00 00    	jne    406df8 <_ZN13Ui_MainWindow7setupUiEP11QMainWindow+0x8b8>
  406621:	ba 08 00 00 00       	mov    $0x8,%edx
  406626:	be 02 00 00 00       	mov    $0x2,%esi
  40662b:	e8 20 f3 ff ff       	callq  405950 <_ZN10QArrayData10deallocateEPS_mm@plt>
  406630:	bf 20 00 00 00       	mov    $0x20,%edi
  406635:	e8 26 ea ff ff       	callq  405060 <_Znwm@plt>
  40663a:	48 8b 33             	mov    (%rbx),%rsi
  40663d:	48 89 c7             	mov    %rax,%rdi
  406640:	49 89 c5             	mov    %rax,%r13
  406643:	e8 58 f0 ff ff       	callq  4056a0 <_ZN11QVBoxLayoutC1EP7QWidget@plt>
  406648:	be 06 00 00 00       	mov    $0x6,%esi
  40664d:	4c 89 ef             	mov    %r13,%rdi
  406650:	4c 89 6b 08          	mov    %r13,0x8(%rbx)
  406654:	e8 b7 f3 ff ff       	callq  405a10 <_ZN10QBoxLayout10setSpacingEi@plt>
  406659:	48 8b 7b 08          	mov    0x8(%rbx),%rdi
  40665d:	41 b8 0b 00 00 00    	mov    $0xb,%r8d
  406663:	b9 0b 00 00 00       	mov    $0xb,%ecx
  406668:	ba 0b 00 00 00       	mov    $0xb,%edx
  40666d:	be 0b 00 00 00       	mov    $0xb,%esi
  406672:	e8 d9 eb ff ff       	callq  405250 <_ZN7QLayout18setContentsMarginsEiiii@plt>
  406677:	48 8d 35 df 83 00 00 	lea    0x83df(%rip),%rsi        # 40ea5d <_IO_stdin_used+0x1d>
  40667e:	48 89 ef             	mov    %rbp,%rdi
  406681:	ba 0e 00 00 00       	mov    $0xe,%edx
  406686:	e8 55 ea ff ff       	callq  4050e0 <_ZN7QString15fromUtf8_helperEPKci@plt>
  40668b:	48 8b 7b 08          	mov    0x8(%rbx),%rdi
  40668f:	48 89 ee             	mov    %rbp,%rsi
  406692:	e8 a9 f4 ff ff       	callq  405b40 <_ZN7QObject13setObjectNameERK7QString@plt>
  406697:	48 8b 3c 24          	mov    (%rsp),%rdi
  40669b:	8b 07                	mov    (%rdi),%eax
  40669d:	85 c0                	test   %eax,%eax
  40669f:	0f 85 2b 07 00 00    	jne    406dd0 <_ZN13Ui_MainWindow7setupUiEP11QMainWindow+0x890>
  4066a5:	ba 08 00 00 00       	mov    $0x8,%edx
  4066aa:	be 02 00 00 00       	mov    $0x2,%esi
  4066af:	e8 9c f2 ff ff       	callq  405950 <_ZN10QArrayData10deallocateEPS_mm@plt>
  4066b4:	bf 30 00 00 00       	mov    $0x30,%edi
  4066b9:	e8 a2 e9 ff ff       	callq  405060 <_Znwm@plt>
  4066be:	48 8b 33             	mov    (%rbx),%rsi
  4066c1:	31 d2                	xor    %edx,%edx
  4066c3:	48 89 c7             	mov    %rax,%rdi
  4066c6:	49 89 c5             	mov    %rax,%r13
  4066c9:	e8 12 f0 ff ff       	callq  4056e0 <_ZN6QLabelC1EP7QWidget6QFlagsIN2Qt10WindowTypeEE@plt>
  4066ce:	48 8d 35 97 83 00 00 	lea    0x8397(%rip),%rsi        # 40ea6c <_IO_stdin_used+0x2c>
  4066d5:	48 89 ef             	mov    %rbp,%rdi
  4066d8:	4c 89 6b 10          	mov    %r13,0x10(%rbx)
  4066dc:	ba 05 00 00 00       	mov    $0x5,%edx
  4066e1:	e8 fa e9 ff ff       	callq  4050e0 <_ZN7QString15fromUtf8_helperEPKci@plt>
  4066e6:	48 8b 7b 10          	mov    0x10(%rbx),%rdi
  4066ea:	48 89 ee             	mov    %rbp,%rsi
  4066ed:	e8 4e f4 ff ff       	callq  405b40 <_ZN7QObject13setObjectNameERK7QString@plt>
  4066f2:	48 8b 3c 24          	mov    (%rsp),%rdi
  4066f6:	8b 07                	mov    (%rdi),%eax
  4066f8:	85 c0                	test   %eax,%eax
  4066fa:	0f 85 a8 06 00 00    	jne    406da8 <_ZN13Ui_MainWindow7setupUiEP11QMainWindow+0x868>
  406700:	ba 08 00 00 00       	mov    $0x8,%edx
  406705:	be 02 00 00 00       	mov    $0x2,%esi
  40670a:	e8 41 f2 ff ff       	callq  405950 <_ZN10QArrayData10deallocateEPS_mm@plt>
  40670f:	48 8b 73 10          	mov    0x10(%rbx),%rsi
  406713:	48 8b 7b 08          	mov    0x8(%rbx),%rdi
  406717:	31 c9                	xor    %ecx,%ecx
  406719:	31 d2                	xor    %edx,%edx
  40671b:	e8 d0 f3 ff ff       	callq  405af0 <_ZN10QBoxLayout9addWidgetEP7QWidgeti6QFlagsIN2Qt13AlignmentFlagEE@plt>
  406720:	bf 30 00 00 00       	mov    $0x30,%edi
  406725:	e8 36 e9 ff ff       	callq  405060 <_Znwm@plt>
  40672a:	48 8b 33             	mov    (%rbx),%rsi
  40672d:	48 89 c7             	mov    %rax,%rdi
  406730:	49 89 c5             	mov    %rax,%r13
  406733:	e8 e8 e8 ff ff       	callq  405020 <_ZN12QProgressBarC1EP7QWidget@plt>
  406738:	48 8d 35 33 83 00 00 	lea    0x8333(%rip),%rsi        # 40ea72 <_IO_stdin_used+0x32>
  40673f:	48 89 ef             	mov    %rbp,%rdi
  406742:	4c 89 6b 18          	mov    %r13,0x18(%rbx)
  406746:	ba 13 00 00 00       	mov    $0x13,%edx
  40674b:	e8 90 e9 ff ff       	callq  4050e0 <_ZN7QString15fromUtf8_helperEPKci@plt>
  406750:	48 8b 7b 18          	mov    0x18(%rbx),%rdi
  406754:	48 89 ee             	mov    %rbp,%rsi
  406757:	e8 e4 f3 ff ff       	callq  405b40 <_ZN7QObject13setObjectNameERK7QString@plt>
  40675c:	48 8b 3c 24          	mov    (%rsp),%rdi
  406760:	8b 07                	mov    (%rdi),%eax
  406762:	85 c0                	test   %eax,%eax
  406764:	0f 85 16 06 00 00    	jne    406d80 <_ZN13Ui_MainWindow7setupUiEP11QMainWindow+0x840>
  40676a:	ba 08 00 00 00       	mov    $0x8,%edx
  40676f:	be 02 00 00 00       	mov    $0x2,%esi
  406774:	e8 d7 f1 ff ff       	callq  405950 <_ZN10QArrayData10deallocateEPS_mm@plt>
  406779:	48 8b 7b 18          	mov    0x18(%rbx),%rdi
  40677d:	be 18 00 00 00       	mov    $0x18,%esi
  406782:	e8 69 f0 ff ff       	callq  4057f0 <_ZN12QProgressBar8setValueEi@plt>
  406787:	48 8b 73 18          	mov    0x18(%rbx),%rsi
  40678b:	48 8b 7b 08          	mov    0x8(%rbx),%rdi
  40678f:	31 d2                	xor    %edx,%edx
  406791:	31 c9                	xor    %ecx,%ecx
  406793:	e8 58 f3 ff ff       	callq  405af0 <_ZN10QBoxLayout9addWidgetEP7QWidgeti6QFlagsIN2Qt13AlignmentFlagEE@plt>
  406798:	bf 30 00 00 00       	mov    $0x30,%edi
  40679d:	e8 be e8 ff ff       	callq  405060 <_Znwm@plt>
  4067a2:	48 8b 33             	mov    (%rbx),%rsi
  4067a5:	31 d2                	xor    %edx,%edx
  4067a7:	48 89 c7             	mov    %rax,%rdi
  4067aa:	49 89 c5             	mov    %rax,%r13
  4067ad:	e8 2e ef ff ff       	callq  4056e0 <_ZN6QLabelC1EP7QWidget6QFlagsIN2Qt10WindowTypeEE@plt>
  4067b2:	48 8d 35 cd 82 00 00 	lea    0x82cd(%rip),%rsi        # 40ea86 <_IO_stdin_used+0x46>
  4067b9:	48 89 ef             	mov    %rbp,%rdi
  4067bc:	4c 89 6b 20          	mov    %r13,0x20(%rbx)
  4067c0:	ba 07 00 00 00       	mov    $0x7,%edx
  4067c5:	e8 16 e9 ff ff       	callq  4050e0 <_ZN7QString15fromUtf8_helperEPKci@plt>
  4067ca:	48 8b 7b 20          	mov    0x20(%rbx),%rdi
  4067ce:	48 89 ee             	mov    %rbp,%rsi
  4067d1:	e8 6a f3 ff ff       	callq  405b40 <_ZN7QObject13setObjectNameERK7QString@plt>
  4067d6:	48 8b 3c 24          	mov    (%rsp),%rdi
  4067da:	8b 07                	mov    (%rdi),%eax
  4067dc:	85 c0                	test   %eax,%eax
  4067de:	0f 85 74 05 00 00    	jne    406d58 <_ZN13Ui_MainWindow7setupUiEP11QMainWindow+0x818>
  4067e4:	ba 08 00 00 00       	mov    $0x8,%edx
  4067e9:	be 02 00 00 00       	mov    $0x2,%esi
  4067ee:	e8 5d f1 ff ff       	callq  405950 <_ZN10QArrayData10deallocateEPS_mm@plt>
  4067f3:	48 8b 73 20          	mov    0x20(%rbx),%rsi
  4067f7:	48 8b 7b 08          	mov    0x8(%rbx),%rdi
  4067fb:	31 c9                	xor    %ecx,%ecx
  4067fd:	31 d2                	xor    %edx,%edx
  4067ff:	e8 ec f2 ff ff       	callq  405af0 <_ZN10QBoxLayout9addWidgetEP7QWidgeti6QFlagsIN2Qt13AlignmentFlagEE@plt>
  406804:	bf 30 00 00 00       	mov    $0x30,%edi
  406809:	e8 52 e8 ff ff       	callq  405060 <_Znwm@plt>
  40680e:	48 8b 33             	mov    (%rbx),%rsi
  406811:	48 89 c7             	mov    %rax,%rdi
  406814:	49 89 c5             	mov    %rax,%r13
  406817:	e8 04 e8 ff ff       	callq  405020 <_ZN12QProgressBarC1EP7QWidget@plt>
  40681c:	48 8d 35 6b 82 00 00 	lea    0x826b(%rip),%rsi        # 40ea8e <_IO_stdin_used+0x4e>
  406823:	48 89 ef             	mov    %rbp,%rdi
  406826:	4c 89 6b 28          	mov    %r13,0x28(%rbx)
  40682a:	ba 13 00 00 00       	mov    $0x13,%edx
  40682f:	e8 ac e8 ff ff       	callq  4050e0 <_ZN7QString15fromUtf8_helperEPKci@plt>
  406834:	48 8b 7b 28          	mov    0x28(%rbx),%rdi
  406838:	48 89 ee             	mov    %rbp,%rsi
  40683b:	e8 00 f3 ff ff       	callq  405b40 <_ZN7QObject13setObjectNameERK7QString@plt>
  406840:	48 8b 3c 24          	mov    (%rsp),%rdi
  406844:	8b 07                	mov    (%rdi),%eax
  406846:	85 c0                	test   %eax,%eax
  406848:	0f 85 e2 04 00 00    	jne    406d30 <_ZN13Ui_MainWindow7setupUiEP11QMainWindow+0x7f0>
  40684e:	ba 08 00 00 00       	mov    $0x8,%edx
  406853:	be 02 00 00 00       	mov    $0x2,%esi
  406858:	e8 f3 f0 ff ff       	callq  405950 <_ZN10QArrayData10deallocateEPS_mm@plt>
  40685d:	48 8b 7b 28          	mov    0x28(%rbx),%rdi
  406861:	be 18 00 00 00       	mov    $0x18,%esi
  406866:	e8 85 ef ff ff       	callq  4057f0 <_ZN12QProgressBar8setValueEi@plt>
  40686b:	48 8b 73 28          	mov    0x28(%rbx),%rsi
  40686f:	48 8b 7b 08          	mov    0x8(%rbx),%rdi
  406873:	31 d2                	xor    %edx,%edx
  406875:	31 c9                	xor    %ecx,%ecx
  406877:	e8 74 f2 ff ff       	callq  405af0 <_ZN10QBoxLayout9addWidgetEP7QWidgeti6QFlagsIN2Qt13AlignmentFlagEE@plt>
  40687c:	bf 30 00 00 00       	mov    $0x30,%edi
  406881:	e8 da e7 ff ff       	callq  405060 <_Znwm@plt>
  406886:	48 8b 33             	mov    (%rbx),%rsi
  406889:	31 d2                	xor    %edx,%edx
  40688b:	48 89 c7             	mov    %rax,%rdi
  40688e:	49 89 c5             	mov    %rax,%r13
  406891:	e8 4a ee ff ff       	callq  4056e0 <_ZN6QLabelC1EP7QWidget6QFlagsIN2Qt10WindowTypeEE@plt>
  406896:	48 8d 35 05 82 00 00 	lea    0x8205(%rip),%rsi        # 40eaa2 <_IO_stdin_used+0x62>
  40689d:	48 89 ef             	mov    %rbp,%rdi
  4068a0:	4c 89 6b 30          	mov    %r13,0x30(%rbx)
  4068a4:	ba 07 00 00 00       	mov    $0x7,%edx
  4068a9:	e8 32 e8 ff ff       	callq  4050e0 <_ZN7QString15fromUtf8_helperEPKci@plt>
  4068ae:	48 8b 7b 30          	mov    0x30(%rbx),%rdi
  4068b2:	48 89 ee             	mov    %rbp,%rsi
  4068b5:	e8 86 f2 ff ff       	callq  405b40 <_ZN7QObject13setObjectNameERK7QString@plt>
  4068ba:	48 8b 3c 24          	mov    (%rsp),%rdi
  4068be:	8b 07                	mov    (%rdi),%eax
  4068c0:	85 c0                	test   %eax,%eax
  4068c2:	0f 85 40 04 00 00    	jne    406d08 <_ZN13Ui_MainWindow7setupUiEP11QMainWindow+0x7c8>
  4068c8:	ba 08 00 00 00       	mov    $0x8,%edx
  4068cd:	be 02 00 00 00       	mov    $0x2,%esi
  4068d2:	e8 79 f0 ff ff       	callq  405950 <_ZN10QArrayData10deallocateEPS_mm@plt>
  4068d7:	48 8b 73 30          	mov    0x30(%rbx),%rsi
  4068db:	48 8b 7b 08          	mov    0x8(%rbx),%rdi
  4068df:	31 c9                	xor    %ecx,%ecx
  4068e1:	31 d2                	xor    %edx,%edx
  4068e3:	e8 08 f2 ff ff       	callq  405af0 <_ZN10QBoxLayout9addWidgetEP7QWidgeti6QFlagsIN2Qt13AlignmentFlagEE@plt>
  4068e8:	bf 30 00 00 00       	mov    $0x30,%edi
  4068ed:	e8 6e e7 ff ff       	callq  405060 <_Znwm@plt>
  4068f2:	48 8b 33             	mov    (%rbx),%rsi
  4068f5:	48 89 c7             	mov    %rax,%rdi
  4068f8:	49 89 c5             	mov    %rax,%r13
  4068fb:	e8 20 e7 ff ff       	callq  405020 <_ZN12QProgressBarC1EP7QWidget@plt>
  406900:	48 8d 35 a3 81 00 00 	lea    0x81a3(%rip),%rsi        # 40eaaa <_IO_stdin_used+0x6a>
  406907:	48 89 ef             	mov    %rbp,%rdi
  40690a:	4c 89 6b 38          	mov    %r13,0x38(%rbx)
  40690e:	ba 11 00 00 00       	mov    $0x11,%edx
  406913:	e8 c8 e7 ff ff       	callq  4050e0 <_ZN7QString15fromUtf8_helperEPKci@plt>
  406918:	48 8b 7b 38          	mov    0x38(%rbx),%rdi
  40691c:	48 89 ee             	mov    %rbp,%rsi
  40691f:	e8 1c f2 ff ff       	callq  405b40 <_ZN7QObject13setObjectNameERK7QString@plt>
  406924:	48 8b 3c 24          	mov    (%rsp),%rdi
  406928:	8b 07                	mov    (%rdi),%eax
  40692a:	85 c0                	test   %eax,%eax
  40692c:	0f 85 ae 03 00 00    	jne    406ce0 <_ZN13Ui_MainWindow7setupUiEP11QMainWindow+0x7a0>
  406932:	ba 08 00 00 00       	mov    $0x8,%edx
  406937:	be 02 00 00 00       	mov    $0x2,%esi
  40693c:	e8 0f f0 ff ff       	callq  405950 <_ZN10QArrayData10deallocateEPS_mm@plt>
  406941:	48 8b 7b 38          	mov    0x38(%rbx),%rdi
  406945:	be 18 00 00 00       	mov    $0x18,%esi
  40694a:	e8 a1 ee ff ff       	callq  4057f0 <_ZN12QProgressBar8setValueEi@plt>
  40694f:	48 8b 73 38          	mov    0x38(%rbx),%rsi
  406953:	48 8b 7b 08          	mov    0x8(%rbx),%rdi
  406957:	31 c9                	xor    %ecx,%ecx
  406959:	31 d2                	xor    %edx,%edx
  40695b:	e8 90 f1 ff ff       	callq  405af0 <_ZN10QBoxLayout9addWidgetEP7QWidgeti6QFlagsIN2Qt13AlignmentFlagEE@plt>
  406960:	bf 30 00 00 00       	mov    $0x30,%edi
  406965:	e8 f6 e6 ff ff       	callq  405060 <_Znwm@plt>
  40696a:	48 8b 33             	mov    (%rbx),%rsi
  40696d:	48 89 c7             	mov    %rax,%rdi
  406970:	49 89 c5             	mov    %rax,%r13
  406973:	e8 98 f1 ff ff       	callq  405b10 <_ZN11QPushButtonC1EP7QWidget@plt>
  406978:	48 8d 35 3d 81 00 00 	lea    0x813d(%rip),%rsi        # 40eabc <_IO_stdin_used+0x7c>
  40697f:	48 89 ef             	mov    %rbp,%rdi
  406982:	4c 89 6b 40          	mov    %r13,0x40(%rbx)
  406986:	ba 0f 00 00 00       	mov    $0xf,%edx
  40698b:	e8 50 e7 ff ff       	callq  4050e0 <_ZN7QString15fromUtf8_helperEPKci@plt>
  406990:	48 8b 7b 40          	mov    0x40(%rbx),%rdi
  406994:	48 89 ee             	mov    %rbp,%rsi
  406997:	e8 a4 f1 ff ff       	callq  405b40 <_ZN7QObject13setObjectNameERK7QString@plt>
  40699c:	48 8b 3c 24          	mov    (%rsp),%rdi
  4069a0:	8b 07                	mov    (%rdi),%eax
  4069a2:	85 c0                	test   %eax,%eax
  4069a4:	0f 85 0e 03 00 00    	jne    406cb8 <_ZN13Ui_MainWindow7setupUiEP11QMainWindow+0x778>
  4069aa:	ba 08 00 00 00       	mov    $0x8,%edx
  4069af:	be 02 00 00 00       	mov    $0x2,%esi
  4069b4:	e8 97 ef ff ff       	callq  405950 <_ZN10QArrayData10deallocateEPS_mm@plt>
  4069b9:	48 8b 73 40          	mov    0x40(%rbx),%rsi
  4069bd:	48 8b 7b 08          	mov    0x8(%rbx),%rdi
  4069c1:	31 c9                	xor    %ecx,%ecx
  4069c3:	31 d2                	xor    %edx,%edx
  4069c5:	e8 26 f1 ff ff       	callq  405af0 <_ZN10QBoxLayout9addWidgetEP7QWidgeti6QFlagsIN2Qt13AlignmentFlagEE@plt>
  4069ca:	bf 78 00 00 00       	mov    $0x78,%edi
  4069cf:	e8 8c e6 ff ff       	callq  405060 <_Znwm@plt>
  4069d4:	48 8b 33             	mov    (%rbx),%rsi
  4069d7:	48 89 c7             	mov    %rax,%rdi
  4069da:	49 89 c5             	mov    %rax,%r13
  4069dd:	e8 8e 27 00 00       	callq  409170 <_ZN15SpectrogramPlotC1EP7QWidget>
  4069e2:	48 8d 35 e3 80 00 00 	lea    0x80e3(%rip),%rsi        # 40eacc <_IO_stdin_used+0x8c>
  4069e9:	48 89 ef             	mov    %rbp,%rdi
  4069ec:	4c 89 6b 48          	mov    %r13,0x48(%rbx)
  4069f0:	ba 0a 00 00 00       	mov    $0xa,%edx
  4069f5:	e8 e6 e6 ff ff       	callq  4050e0 <_ZN7QString15fromUtf8_helperEPKci@plt>
  4069fa:	48 8b 7b 48          	mov    0x48(%rbx),%rdi
  4069fe:	48 89 ee             	mov    %rbp,%rsi
  406a01:	e8 3a f1 ff ff       	callq  405b40 <_ZN7QObject13setObjectNameERK7QString@plt>
  406a06:	48 8b 3c 24          	mov    (%rsp),%rdi
  406a0a:	8b 07                	mov    (%rdi),%eax
  406a0c:	85 c0                	test   %eax,%eax
  406a0e:	0f 85 7c 02 00 00    	jne    406c90 <_ZN13Ui_MainWindow7setupUiEP11QMainWindow+0x750>
  406a14:	ba 08 00 00 00       	mov    $0x8,%edx
  406a19:	be 02 00 00 00       	mov    $0x2,%esi
  406a1e:	e8 2d ef ff ff       	callq  405950 <_ZN10QArrayData10deallocateEPS_mm@plt>
  406a23:	48 8b 73 48          	mov    0x48(%rbx),%rsi
  406a27:	48 8b 7b 08          	mov    0x8(%rbx),%rdi
  406a2b:	31 c9                	xor    %ecx,%ecx
  406a2d:	31 d2                	xor    %edx,%edx
  406a2f:	e8 bc f0 ff ff       	callq  405af0 <_ZN10QBoxLayout9addWidgetEP7QWidgeti6QFlagsIN2Qt13AlignmentFlagEE@plt>
  406a34:	48 8b 33             	mov    (%rbx),%rsi
  406a37:	4c 89 e7             	mov    %r12,%rdi
  406a3a:	e8 81 eb ff ff       	callq  4055c0 <_ZN11QMainWindow16setCentralWidgetEP7QWidget@plt>
  406a3f:	48 8d 15 fe 7f 00 00 	lea    0x7ffe(%rip),%rdx        # 40ea44 <_IO_stdin_used+0x4>
  406a46:	48 89 ef             	mov    %rbp,%rdi
  406a49:	41 b8 ff ff ff ff    	mov    $0xffffffff,%r8d
  406a4f:	31 c9                	xor    %ecx,%ecx
  406a51:	48 89 d6             	mov    %rdx,%rsi
  406a54:	e8 27 ee ff ff       	callq  405880 <_ZN16QCoreApplication9translateEPKcS1_S1_i@plt>
  406a59:	48 89 ee             	mov    %rbp,%rsi
  406a5c:	4c 89 e7             	mov    %r12,%rdi
  406a5f:	e8 2c ed ff ff       	callq  405790 <_ZN7QWidget14setWindowTitleERK7QString@plt>
  406a64:	48 8b 3c 24          	mov    (%rsp),%rdi
  406a68:	8b 07                	mov    (%rdi),%eax
  406a6a:	85 c0                	test   %eax,%eax
  406a6c:	0f 85 f6 01 00 00    	jne    406c68 <_ZN13Ui_MainWindow7setupUiEP11QMainWindow+0x728>
  406a72:	ba 08 00 00 00       	mov    $0x8,%edx
  406a77:	be 02 00 00 00       	mov    $0x2,%esi
  406a7c:	e8 cf ee ff ff       	callq  405950 <_ZN10QArrayData10deallocateEPS_mm@plt>
  406a81:	48 8d 35 bc 7f 00 00 	lea    0x7fbc(%rip),%rsi        # 40ea44 <_IO_stdin_used+0x4>
  406a88:	48 8d 15 48 80 00 00 	lea    0x8048(%rip),%rdx        # 40ead7 <_IO_stdin_used+0x97>
  406a8f:	48 89 ef             	mov    %rbp,%rdi
  406a92:	41 b8 ff ff ff ff    	mov    $0xffffffff,%r8d
  406a98:	31 c9                	xor    %ecx,%ecx
  406a9a:	e8 e1 ed ff ff       	callq  405880 <_ZN16QCoreApplication9translateEPKcS1_S1_i@plt>
  406a9f:	48 8b 7b 10          	mov    0x10(%rbx),%rdi
  406aa3:	48 89 ee             	mov    %rbp,%rsi
  406aa6:	e8 05 ea ff ff       	callq  4054b0 <_ZN6QLabel7setTextERK7QString@plt>
  406aab:	48 8b 3c 24          	mov    (%rsp),%rdi
  406aaf:	8b 07                	mov    (%rdi),%eax
  406ab1:	85 c0                	test   %eax,%eax
  406ab3:	0f 85 87 01 00 00    	jne    406c40 <_ZN13Ui_MainWindow7setupUiEP11QMainWindow+0x700>
  406ab9:	ba 08 00 00 00       	mov    $0x8,%edx
  406abe:	be 02 00 00 00       	mov    $0x2,%esi
  406ac3:	e8 88 ee ff ff       	callq  405950 <_ZN10QArrayData10deallocateEPS_mm@plt>
  406ac8:	48 8d 35 75 7f 00 00 	lea    0x7f75(%rip),%rsi        # 40ea44 <_IO_stdin_used+0x4>
  406acf:	48 8d 15 0a 80 00 00 	lea    0x800a(%rip),%rdx        # 40eae0 <_IO_stdin_used+0xa0>
  406ad6:	48 89 ef             	mov    %rbp,%rdi
  406ad9:	41 b8 ff ff ff ff    	mov    $0xffffffff,%r8d
  406adf:	31 c9                	xor    %ecx,%ecx
  406ae1:	e8 9a ed ff ff       	callq  405880 <_ZN16QCoreApplication9translateEPKcS1_S1_i@plt>
  406ae6:	48 8b 7b 20          	mov    0x20(%rbx),%rdi
  406aea:	48 89 ee             	mov    %rbp,%rsi
  406aed:	e8 be e9 ff ff       	callq  4054b0 <_ZN6QLabel7setTextERK7QString@plt>
  406af2:	48 8b 3c 24          	mov    (%rsp),%rdi
  406af6:	8b 07                	mov    (%rdi),%eax
  406af8:	85 c0                	test   %eax,%eax
  406afa:	0f 85 18 01 00 00    	jne    406c18 <_ZN13Ui_MainWindow7setupUiEP11QMainWindow+0x6d8>
  406b00:	ba 08 00 00 00       	mov    $0x8,%edx
  406b05:	be 02 00 00 00       	mov    $0x2,%esi
  406b0a:	e8 41 ee ff ff       	callq  405950 <_ZN10QArrayData10deallocateEPS_mm@plt>
  406b0f:	48 8d 35 2e 7f 00 00 	lea    0x7f2e(%rip),%rsi        # 40ea44 <_IO_stdin_used+0x4>
  406b16:	48 8d 15 cc 7f 00 00 	lea    0x7fcc(%rip),%rdx        # 40eae9 <_IO_stdin_used+0xa9>
  406b1d:	48 89 ef             	mov    %rbp,%rdi
  406b20:	41 b8 ff ff ff ff    	mov    $0xffffffff,%r8d
  406b26:	31 c9                	xor    %ecx,%ecx
  406b28:	e8 53 ed ff ff       	callq  405880 <_ZN16QCoreApplication9translateEPKcS1_S1_i@plt>
  406b2d:	48 8b 7b 30          	mov    0x30(%rbx),%rdi
  406b31:	48 89 ee             	mov    %rbp,%rsi
  406b34:	e8 77 e9 ff ff       	callq  4054b0 <_ZN6QLabel7setTextERK7QString@plt>
  406b39:	48 8b 3c 24          	mov    (%rsp),%rdi
  406b3d:	8b 07                	mov    (%rdi),%eax
  406b3f:	85 c0                	test   %eax,%eax
  406b41:	0f 85 a9 00 00 00    	jne    406bf0 <_ZN13Ui_MainWindow7setupUiEP11QMainWindow+0x6b0>
  406b47:	ba 08 00 00 00       	mov    $0x8,%edx
  406b4c:	be 02 00 00 00       	mov    $0x2,%esi
  406b51:	e8 fa ed ff ff       	callq  405950 <_ZN10QArrayData10deallocateEPS_mm@plt>
  406b56:	48 8d 35 e7 7e 00 00 	lea    0x7ee7(%rip),%rsi        # 40ea44 <_IO_stdin_used+0x4>
  406b5d:	48 8d 15 8c 7f 00 00 	lea    0x7f8c(%rip),%rdx        # 40eaf0 <_IO_stdin_used+0xb0>
  406b64:	48 89 ef             	mov    %rbp,%rdi
  406b67:	41 b8 ff ff ff ff    	mov    $0xffffffff,%r8d
  406b6d:	31 c9                	xor    %ecx,%ecx
  406b6f:	e8 0c ed ff ff       	callq  405880 <_ZN16QCoreApplication9translateEPKcS1_S1_i@plt>
  406b74:	48 8b 7b 40          	mov    0x40(%rbx),%rdi
  406b78:	48 89 ee             	mov    %rbp,%rsi
  406b7b:	e8 70 ed ff ff       	callq  4058f0 <_ZN15QAbstractButton7setTextERK7QString@plt>
  406b80:	48 8b 3c 24          	mov    (%rsp),%rdi
  406b84:	8b 07                	mov    (%rdi),%eax
  406b86:	85 c0                	test   %eax,%eax
  406b88:	75 4e                	jne    406bd8 <_ZN13Ui_MainWindow7setupUiEP11QMainWindow+0x698>
  406b8a:	ba 08 00 00 00       	mov    $0x8,%edx
  406b8f:	be 02 00 00 00       	mov    $0x2,%esi
  406b94:	e8 b7 ed ff ff       	callq  405950 <_ZN10QArrayData10deallocateEPS_mm@plt>
  406b99:	4c 89 e7             	mov    %r12,%rdi
  406b9c:	e8 bf ee ff ff       	callq  405a60 <_ZN11QMetaObject18connectSlotsByNameEP7QObject@plt>
  406ba1:	48 83 c4 18          	add    $0x18,%rsp
  406ba5:	5b                   	pop    %rbx
  406ba6:	5d                   	pop    %rbp
  406ba7:	41 5c                	pop    %r12
  406ba9:	41 5d                	pop    %r13
  406bab:	c3                   	retq   
  406bac:	0f 1f 40 00          	nopl   0x0(%rax)
  406bb0:	83 f8 ff             	cmp    $0xffffffff,%eax
  406bb3:	0f 84 c3 f9 ff ff    	je     40657c <_ZN13Ui_MainWindow7setupUiEP11QMainWindow+0x3c>
  406bb9:	f0 83 2f 01          	lock subl $0x1,(%rdi)
  406bbd:	0f 95 c0             	setne  %al
  406bc0:	84 c0                	test   %al,%al
  406bc2:	0f 85 b4 f9 ff ff    	jne    40657c <_ZN13Ui_MainWindow7setupUiEP11QMainWindow+0x3c>
  406bc8:	48 8b 3c 24          	mov    (%rsp),%rdi
  406bcc:	e9 9c f9 ff ff       	jmpq   40656d <_ZN13Ui_MainWindow7setupUiEP11QMainWindow+0x2d>
  406bd1:	0f 1f 80 00 00 00 00 	nopl   0x0(%rax)
  406bd8:	83 f8 ff             	cmp    $0xffffffff,%eax
  406bdb:	74 bc                	je     406b99 <_ZN13Ui_MainWindow7setupUiEP11QMainWindow+0x659>
  406bdd:	f0 83 2f 01          	lock subl $0x1,(%rdi)
  406be1:	0f 95 c0             	setne  %al
  406be4:	84 c0                	test   %al,%al
  406be6:	75 b1                	jne    406b99 <_ZN13Ui_MainWindow7setupUiEP11QMainWindow+0x659>
  406be8:	48 8b 3c 24          	mov    (%rsp),%rdi
  406bec:	eb 9c                	jmp    406b8a <_ZN13Ui_MainWindow7setupUiEP11QMainWindow+0x64a>
  406bee:	66 90                	xchg   %ax,%ax
  406bf0:	83 f8 ff             	cmp    $0xffffffff,%eax
  406bf3:	0f 84 5d ff ff ff    	je     406b56 <_ZN13Ui_MainWindow7setupUiEP11QMainWindow+0x616>
  406bf9:	f0 83 2f 01          	lock subl $0x1,(%rdi)
  406bfd:	0f 95 c0             	setne  %al
  406c00:	84 c0                	test   %al,%al
  406c02:	0f 85 4e ff ff ff    	jne    406b56 <_ZN13Ui_MainWindow7setupUiEP11QMainWindow+0x616>
  406c08:	48 8b 3c 24          	mov    (%rsp),%rdi
  406c0c:	e9 36 ff ff ff       	jmpq   406b47 <_ZN13Ui_MainWindow7setupUiEP11QMainWindow+0x607>
  406c11:	0f 1f 80 00 00 00 00 	nopl   0x0(%rax)
  406c18:	83 f8 ff             	cmp    $0xffffffff,%eax
  406c1b:	0f 84 ee fe ff ff    	je     406b0f <_ZN13Ui_MainWindow7setupUiEP11QMainWindow+0x5cf>
  406c21:	f0 83 2f 01          	lock subl $0x1,(%rdi)
  406c25:	0f 95 c0             	setne  %al
  406c28:	84 c0                	test   %al,%al
  406c2a:	0f 85 df fe ff ff    	jne    406b0f <_ZN13Ui_MainWindow7setupUiEP11QMainWindow+0x5cf>
  406c30:	48 8b 3c 24          	mov    (%rsp),%rdi
  406c34:	e9 c7 fe ff ff       	jmpq   406b00 <_ZN13Ui_MainWindow7setupUiEP11QMainWindow+0x5c0>
  406c39:	0f 1f 80 00 00 00 00 	nopl   0x0(%rax)
  406c40:	83 f8 ff             	cmp    $0xffffffff,%eax
  406c43:	0f 84 7f fe ff ff    	je     406ac8 <_ZN13Ui_MainWindow7setupUiEP11QMainWindow+0x588>
  406c49:	f0 83 2f 01          	lock subl $0x1,(%rdi)
  406c4d:	0f 95 c0             	setne  %al
  406c50:	84 c0                	test   %al,%al
  406c52:	0f 85 70 fe ff ff    	jne    406ac8 <_ZN13Ui_MainWindow7setupUiEP11QMainWindow+0x588>
  406c58:	48 8b 3c 24          	mov    (%rsp),%rdi
  406c5c:	e9 58 fe ff ff       	jmpq   406ab9 <_ZN13Ui_MainWindow7setupUiEP11QMainWindow+0x579>
  406c61:	0f 1f 80 00 00 00 00 	nopl   0x0(%rax)
  406c68:	83 f8 ff             	cmp    $0xffffffff,%eax
  406c6b:	0f 84 10 fe ff ff    	je     406a81 <_ZN13Ui_MainWindow7setupUiEP11QMainWindow+0x541>
  406c71:	f0 83 2f 01          	lock subl $0x1,(%rdi)
  406c75:	0f 95 c0             	setne  %al
  406c78:	84 c0                	test   %al,%al
  406c7a:	0f 85 01 fe ff ff    	jne    406a81 <_ZN13Ui_MainWindow7setupUiEP11QMainWindow+0x541>
  406c80:	48 8b 3c 24          	mov    (%rsp),%rdi
  406c84:	e9 e9 fd ff ff       	jmpq   406a72 <_ZN13Ui_MainWindow7setupUiEP11QMainWindow+0x532>
  406c89:	0f 1f 80 00 00 00 00 	nopl   0x0(%rax)
  406c90:	83 f8 ff             	cmp    $0xffffffff,%eax
  406c93:	0f 84 8a fd ff ff    	je     406a23 <_ZN13Ui_MainWindow7setupUiEP11QMainWindow+0x4e3>
  406c99:	f0 83 2f 01          	lock subl $0x1,(%rdi)
  406c9d:	0f 95 c0             	setne  %al
  406ca0:	84 c0                	test   %al,%al
  406ca2:	0f 85 7b fd ff ff    	jne    406a23 <_ZN13Ui_MainWindow7setupUiEP11QMainWindow+0x4e3>
  406ca8:	48 8b 3c 24          	mov    (%rsp),%rdi
  406cac:	e9 63 fd ff ff       	jmpq   406a14 <_ZN13Ui_MainWindow7setupUiEP11QMainWindow+0x4d4>
  406cb1:	0f 1f 80 00 00 00 00 	nopl   0x0(%rax)
  406cb8:	83 f8 ff             	cmp    $0xffffffff,%eax
  406cbb:	0f 84 f8 fc ff ff    	je     4069b9 <_ZN13Ui_MainWindow7setupUiEP11QMainWindow+0x479>
  406cc1:	f0 83 2f 01          	lock subl $0x1,(%rdi)
  406cc5:	0f 95 c0             	setne  %al
  406cc8:	84 c0                	test   %al,%al
  406cca:	0f 85 e9 fc ff ff    	jne    4069b9 <_ZN13Ui_MainWindow7setupUiEP11QMainWindow+0x479>
  406cd0:	48 8b 3c 24          	mov    (%rsp),%rdi
  406cd4:	e9 d1 fc ff ff       	jmpq   4069aa <_ZN13Ui_MainWindow7setupUiEP11QMainWindow+0x46a>
  406cd9:	0f 1f 80 00 00 00 00 	nopl   0x0(%rax)
  406ce0:	83 f8 ff             	cmp    $0xffffffff,%eax
  406ce3:	0f 84 58 fc ff ff    	je     406941 <_ZN13Ui_MainWindow7setupUiEP11QMainWindow+0x401>
  406ce9:	f0 83 2f 01          	lock subl $0x1,(%rdi)
  406ced:	0f 95 c0             	setne  %al
  406cf0:	84 c0                	test   %al,%al
  406cf2:	0f 85 49 fc ff ff    	jne    406941 <_ZN13Ui_MainWindow7setupUiEP11QMainWindow+0x401>
  406cf8:	48 8b 3c 24          	mov    (%rsp),%rdi
  406cfc:	e9 31 fc ff ff       	jmpq   406932 <_ZN13Ui_MainWindow7setupUiEP11QMainWindow+0x3f2>
  406d01:	0f 1f 80 00 00 00 00 	nopl   0x0(%rax)
  406d08:	83 f8 ff             	cmp    $0xffffffff,%eax
  406d0b:	0f 84 c6 fb ff ff    	je     4068d7 <_ZN13Ui_MainWindow7setupUiEP11QMainWindow+0x397>
  406d11:	f0 83 2f 01          	lock subl $0x1,(%rdi)
  406d15:	0f 95 c0             	setne  %al
  406d18:	84 c0                	test   %al,%al
  406d1a:	0f 85 b7 fb ff ff    	jne    4068d7 <_ZN13Ui_MainWindow7setupUiEP11QMainWindow+0x397>
  406d20:	48 8b 3c 24          	mov    (%rsp),%rdi
  406d24:	e9 9f fb ff ff       	jmpq   4068c8 <_ZN13Ui_MainWindow7setupUiEP11QMainWindow+0x388>
  406d29:	0f 1f 80 00 00 00 00 	nopl   0x0(%rax)
  406d30:	83 f8 ff             	cmp    $0xffffffff,%eax
  406d33:	0f 84 24 fb ff ff    	je     40685d <_ZN13Ui_MainWindow7setupUiEP11QMainWindow+0x31d>
  406d39:	f0 83 2f 01          	lock subl $0x1,(%rdi)
  406d3d:	0f 95 c0             	setne  %al
  406d40:	84 c0                	test   %al,%al
  406d42:	0f 85 15 fb ff ff    	jne    40685d <_ZN13Ui_MainWindow7setupUiEP11QMainWindow+0x31d>
  406d48:	48 8b 3c 24          	mov    (%rsp),%rdi
  406d4c:	e9 fd fa ff ff       	jmpq   40684e <_ZN13Ui_MainWindow7setupUiEP11QMainWindow+0x30e>
  406d51:	0f 1f 80 00 00 00 00 	nopl   0x0(%rax)
  406d58:	83 f8 ff             	cmp    $0xffffffff,%eax
  406d5b:	0f 84 92 fa ff ff    	je     4067f3 <_ZN13Ui_MainWindow7setupUiEP11QMainWindow+0x2b3>
  406d61:	f0 83 2f 01          	lock subl $0x1,(%rdi)
  406d65:	0f 95 c0             	setne  %al
  406d68:	84 c0                	test   %al,%al
  406d6a:	0f 85 83 fa ff ff    	jne    4067f3 <_ZN13Ui_MainWindow7setupUiEP11QMainWindow+0x2b3>
  406d70:	48 8b 3c 24          	mov    (%rsp),%rdi
  406d74:	e9 6b fa ff ff       	jmpq   4067e4 <_ZN13Ui_MainWindow7setupUiEP11QMainWindow+0x2a4>
  406d79:	0f 1f 80 00 00 00 00 	nopl   0x0(%rax)
  406d80:	83 f8 ff             	cmp    $0xffffffff,%eax
  406d83:	0f 84 f0 f9 ff ff    	je     406779 <_ZN13Ui_MainWindow7setupUiEP11QMainWindow+0x239>
  406d89:	f0 83 2f 01          	lock subl $0x1,(%rdi)
  406d8d:	0f 95 c0             	setne  %al
  406d90:	84 c0                	test   %al,%al
  406d92:	0f 85 e1 f9 ff ff    	jne    406779 <_ZN13Ui_MainWindow7setupUiEP11QMainWindow+0x239>
  406d98:	48 8b 3c 24          	mov    (%rsp),%rdi
  406d9c:	e9 c9 f9 ff ff       	jmpq   40676a <_ZN13Ui_MainWindow7setupUiEP11QMainWindow+0x22a>
  406da1:	0f 1f 80 00 00 00 00 	nopl   0x0(%rax)
  406da8:	83 f8 ff             	cmp    $0xffffffff,%eax
  406dab:	0f 84 5e f9 ff ff    	je     40670f <_ZN13Ui_MainWindow7setupUiEP11QMainWindow+0x1cf>
  406db1:	f0 83 2f 01          	lock subl $0x1,(%rdi)
  406db5:	0f 95 c0             	setne  %al
  406db8:	84 c0                	test   %al,%al
  406dba:	0f 85 4f f9 ff ff    	jne    40670f <_ZN13Ui_MainWindow7setupUiEP11QMainWindow+0x1cf>
  406dc0:	48 8b 3c 24          	mov    (%rsp),%rdi
  406dc4:	e9 37 f9 ff ff       	jmpq   406700 <_ZN13Ui_MainWindow7setupUiEP11QMainWindow+0x1c0>
  406dc9:	0f 1f 80 00 00 00 00 	nopl   0x0(%rax)
  406dd0:	83 f8 ff             	cmp    $0xffffffff,%eax
  406dd3:	0f 84 db f8 ff ff    	je     4066b4 <_ZN13Ui_MainWindow7setupUiEP11QMainWindow+0x174>
  406dd9:	f0 83 2f 01          	lock subl $0x1,(%rdi)
  406ddd:	0f 95 c0             	setne  %al
  406de0:	84 c0                	test   %al,%al
  406de2:	0f 85 cc f8 ff ff    	jne    4066b4 <_ZN13Ui_MainWindow7setupUiEP11QMainWindow+0x174>
  406de8:	48 8b 3c 24          	mov    (%rsp),%rdi
  406dec:	e9 b4 f8 ff ff       	jmpq   4066a5 <_ZN13Ui_MainWindow7setupUiEP11QMainWindow+0x165>
  406df1:	0f 1f 80 00 00 00 00 	nopl   0x0(%rax)
  406df8:	83 f8 ff             	cmp    $0xffffffff,%eax
  406dfb:	0f 84 2f f8 ff ff    	je     406630 <_ZN13Ui_MainWindow7setupUiEP11QMainWindow+0xf0>
  406e01:	f0 83 2f 01          	lock subl $0x1,(%rdi)
  406e05:	0f 95 c0             	setne  %al
  406e08:	84 c0                	test   %al,%al
  406e0a:	0f 85 20 f8 ff ff    	jne    406630 <_ZN13Ui_MainWindow7setupUiEP11QMainWindow+0xf0>
  406e10:	48 8b 3c 24          	mov    (%rsp),%rdi
  406e14:	e9 08 f8 ff ff       	jmpq   406621 <_ZN13Ui_MainWindow7setupUiEP11QMainWindow+0xe1>
  406e19:	0f 1f 80 00 00 00 00 	nopl   0x0(%rax)
  406e20:	83 f8 ff             	cmp    $0xffffffff,%eax
  406e23:	0f 84 94 f7 ff ff    	je     4065bd <_ZN13Ui_MainWindow7setupUiEP11QMainWindow+0x7d>
  406e29:	f0 83 2f 01          	lock subl $0x1,(%rdi)
  406e2d:	0f 95 c0             	setne  %al
  406e30:	84 c0                	test   %al,%al
  406e32:	0f 85 85 f7 ff ff    	jne    4065bd <_ZN13Ui_MainWindow7setupUiEP11QMainWindow+0x7d>
  406e38:	48 8b 3c 24          	mov    (%rsp),%rdi
  406e3c:	e9 6d f7 ff ff       	jmpq   4065ae <_ZN13Ui_MainWindow7setupUiEP11QMainWindow+0x6e>
  406e41:	48 89 c3             	mov    %rax,%rbx
  406e44:	4c 89 ef             	mov    %r13,%rdi
  406e47:	e8 d4 e5 ff ff       	callq  405420 <_ZdlPv@plt>
  406e4c:	48 89 df             	mov    %rbx,%rdi
  406e4f:	e8 cc e6 ff ff       	callq  405520 <_Unwind_Resume@plt>
  406e54:	48 89 c3             	mov    %rax,%rbx
  406e57:	48 89 ef             	mov    %rbp,%rdi
  406e5a:	e8 a1 f6 ff ff       	callq  406500 <_ZN7QStringD1Ev>
  406e5f:	48 89 df             	mov    %rbx,%rdi
  406e62:	e8 b9 e6 ff ff       	callq  405520 <_Unwind_Resume@plt>
  406e67:	48 89 c3             	mov    %rax,%rbx
  406e6a:	48 89 ef             	mov    %rbp,%rdi
  406e6d:	e8 8e f6 ff ff       	callq  406500 <_ZN7QStringD1Ev>
  406e72:	48 89 df             	mov    %rbx,%rdi
  406e75:	e8 a6 e6 ff ff       	callq  405520 <_Unwind_Resume@plt>
  406e7a:	48 89 c3             	mov    %rax,%rbx
  406e7d:	48 89 ef             	mov    %rbp,%rdi
  406e80:	e8 7b f6 ff ff       	callq  406500 <_ZN7QStringD1Ev>
  406e85:	48 89 df             	mov    %rbx,%rdi
  406e88:	e8 93 e6 ff ff       	callq  405520 <_Unwind_Resume@plt>
  406e8d:	eb b2                	jmp    406e41 <_ZN13Ui_MainWindow7setupUiEP11QMainWindow+0x901>
  406e8f:	48 89 c3             	mov    %rax,%rbx
  406e92:	48 89 ef             	mov    %rbp,%rdi
  406e95:	e8 66 f6 ff ff       	callq  406500 <_ZN7QStringD1Ev>
  406e9a:	48 89 df             	mov    %rbx,%rdi
  406e9d:	e8 7e e6 ff ff       	callq  405520 <_Unwind_Resume@plt>
  406ea2:	eb 9d                	jmp    406e41 <_ZN13Ui_MainWindow7setupUiEP11QMainWindow+0x901>
  406ea4:	48 89 c3             	mov    %rax,%rbx
  406ea7:	48 89 ef             	mov    %rbp,%rdi
  406eaa:	e8 51 f6 ff ff       	callq  406500 <_ZN7QStringD1Ev>
  406eaf:	48 89 df             	mov    %rbx,%rdi
  406eb2:	e8 69 e6 ff ff       	callq  405520 <_Unwind_Resume@plt>
  406eb7:	eb 88                	jmp    406e41 <_ZN13Ui_MainWindow7setupUiEP11QMainWindow+0x901>
  406eb9:	48 89 c3             	mov    %rax,%rbx
  406ebc:	48 89 ef             	mov    %rbp,%rdi
  406ebf:	e8 3c f6 ff ff       	callq  406500 <_ZN7QStringD1Ev>
  406ec4:	48 89 df             	mov    %rbx,%rdi
  406ec7:	e8 54 e6 ff ff       	callq  405520 <_Unwind_Resume@plt>
  406ecc:	48 89 c3             	mov    %rax,%rbx
  406ecf:	48 89 ef             	mov    %rbp,%rdi
  406ed2:	e8 29 f6 ff ff       	callq  406500 <_ZN7QStringD1Ev>
  406ed7:	48 89 df             	mov    %rbx,%rdi
  406eda:	e8 41 e6 ff ff       	callq  405520 <_Unwind_Resume@plt>
  406edf:	48 89 c3             	mov    %rax,%rbx
  406ee2:	48 89 ef             	mov    %rbp,%rdi
  406ee5:	e8 16 f6 ff ff       	callq  406500 <_ZN7QStringD1Ev>
  406eea:	48 89 df             	mov    %rbx,%rdi
  406eed:	e8 2e e6 ff ff       	callq  405520 <_Unwind_Resume@plt>
  406ef2:	48 89 c3             	mov    %rax,%rbx
  406ef5:	48 89 ef             	mov    %rbp,%rdi
  406ef8:	e8 03 f6 ff ff       	callq  406500 <_ZN7QStringD1Ev>
  406efd:	48 89 df             	mov    %rbx,%rdi
  406f00:	e8 1b e6 ff ff       	callq  405520 <_Unwind_Resume@plt>
  406f05:	48 89 c3             	mov    %rax,%rbx
  406f08:	48 89 ef             	mov    %rbp,%rdi
  406f0b:	e8 f0 f5 ff ff       	callq  406500 <_ZN7QStringD1Ev>
  406f10:	48 89 df             	mov    %rbx,%rdi
  406f13:	e8 08 e6 ff ff       	callq  405520 <_Unwind_Resume@plt>
  406f18:	e9 24 ff ff ff       	jmpq   406e41 <_ZN13Ui_MainWindow7setupUiEP11QMainWindow+0x901>
  406f1d:	48 89 c3             	mov    %rax,%rbx
  406f20:	48 89 ef             	mov    %rbp,%rdi
  406f23:	e8 d8 f5 ff ff       	callq  406500 <_ZN7QStringD1Ev>
  406f28:	48 89 df             	mov    %rbx,%rdi
  406f2b:	e8 f0 e5 ff ff       	callq  405520 <_Unwind_Resume@plt>
  406f30:	e9 0c ff ff ff       	jmpq   406e41 <_ZN13Ui_MainWindow7setupUiEP11QMainWindow+0x901>
  406f35:	48 89 c3             	mov    %rax,%rbx
  406f38:	48 89 ef             	mov    %rbp,%rdi
  406f3b:	e8 c0 f5 ff ff       	callq  406500 <_ZN7QStringD1Ev>
  406f40:	48 89 df             	mov    %rbx,%rdi
  406f43:	e8 d8 e5 ff ff       	callq  405520 <_Unwind_Resume@plt>
  406f48:	e9 f4 fe ff ff       	jmpq   406e41 <_ZN13Ui_MainWindow7setupUiEP11QMainWindow+0x901>
  406f4d:	48 89 c3             	mov    %rax,%rbx
  406f50:	48 89 ef             	mov    %rbp,%rdi
  406f53:	e8 a8 f5 ff ff       	callq  406500 <_ZN7QStringD1Ev>
  406f58:	48 89 df             	mov    %rbx,%rdi
  406f5b:	e8 c0 e5 ff ff       	callq  405520 <_Unwind_Resume@plt>
  406f60:	e9 dc fe ff ff       	jmpq   406e41 <_ZN13Ui_MainWindow7setupUiEP11QMainWindow+0x901>
  406f65:	48 89 c3             	mov    %rax,%rbx
  406f68:	48 89 ef             	mov    %rbp,%rdi
  406f6b:	e8 90 f5 ff ff       	callq  406500 <_ZN7QStringD1Ev>
  406f70:	48 89 df             	mov    %rbx,%rdi
  406f73:	e8 a8 e5 ff ff       	callq  405520 <_Unwind_Resume@plt>
  406f78:	e9 c4 fe ff ff       	jmpq   406e41 <_ZN13Ui_MainWindow7setupUiEP11QMainWindow+0x901>
  406f7d:	48 89 c3             	mov    %rax,%rbx
  406f80:	48 89 ef             	mov    %rbp,%rdi
  406f83:	e8 78 f5 ff ff       	callq  406500 <_ZN7QStringD1Ev>
  406f88:	48 89 df             	mov    %rbx,%rdi
  406f8b:	e8 90 e5 ff ff       	callq  405520 <_Unwind_Resume@plt>
  406f90:	e9 ac fe ff ff       	jmpq   406e41 <_ZN13Ui_MainWindow7setupUiEP11QMainWindow+0x901>
  406f95:	48 89 c3             	mov    %rax,%rbx
  406f98:	48 89 ef             	mov    %rbp,%rdi
  406f9b:	e8 60 f5 ff ff       	callq  406500 <_ZN7QStringD1Ev>
  406fa0:	48 89 df             	mov    %rbx,%rdi
  406fa3:	e8 78 e5 ff ff       	callq  405520 <_Unwind_Resume@plt>
  406fa8:	0f 1f 84 00 00 00 00 	nopl   0x0(%rax,%rax,1)
  406faf:	00 

0000000000406fb0 <_ZN13Array2DWorkerIiEC1Ev>:
  406fb0:	48 c7 47 08 00 00 00 	movq   $0x0,0x8(%rdi)
  406fb7:	00 
  406fb8:	c7 47 04 00 00 00 00 	movl   $0x0,0x4(%rdi)
  406fbf:	c7 07 00 00 00 00    	movl   $0x0,(%rdi)
  406fc5:	48 c7 47 10 00 00 00 	movq   $0x0,0x10(%rdi)
  406fcc:	00 
  406fcd:	48 c7 47 18 00 00 00 	movq   $0x0,0x18(%rdi)
  406fd4:	00 
  406fd5:	c3                   	retq   
  406fd6:	66 2e 0f 1f 84 00 00 	nopw   %cs:0x0(%rax,%rax,1)
  406fdd:	00 00 00 

0000000000406fe0 <_ZN13Array2DWorkerIiEC1Eii>:
  406fe0:	41 56                	push   %r14
  406fe2:	4c 63 f2             	movslq %edx,%r14
  406fe5:	41 55                	push   %r13
  406fe7:	4c 63 ee             	movslq %esi,%r13
  406fea:	44 89 e8             	mov    %r13d,%eax
  406fed:	41 54                	push   %r12
  406fef:	49 bc 00 00 00 00 00 	movabs $0x1fc0000000000000,%r12
  406ff6:	00 c0 1f 
  406ff9:	41 0f af c6          	imul   %r14d,%eax
  406ffd:	55                   	push   %rbp
  406ffe:	48 c7 c5 ff ff ff ff 	mov    $0xffffffffffffffff,%rbp
  407005:	48 98                	cltq   
  407007:	53                   	push   %rbx
  407008:	48 89 fb             	mov    %rdi,%rbx
  40700b:	44 89 6f 04          	mov    %r13d,0x4(%rdi)
  40700f:	44 89 37             	mov    %r14d,(%rdi)
  407012:	48 8d 3c 85 00 00 00 	lea    0x0(,%rax,4),%rdi
  407019:	00 
  40701a:	4c 39 e0             	cmp    %r12,%rax
  40701d:	48 0f 47 fd          	cmova  %rbp,%rdi
  407021:	e8 3a e3 ff ff       	callq  405360 <_Znam@plt>
  407026:	4a 8d 3c b5 00 00 00 	lea    0x0(,%r14,4),%rdi
  40702d:	00 
  40702e:	4d 39 e6             	cmp    %r12,%r14
  407031:	48 89 43 08          	mov    %rax,0x8(%rbx)
  407035:	48 0f 47 fd          	cmova  %rbp,%rdi
  407039:	e8 22 e3 ff ff       	callq  405360 <_Znam@plt>
  40703e:	4a 8d 3c ad 00 00 00 	lea    0x0(,%r13,4),%rdi
  407045:	00 
  407046:	4d 39 e5             	cmp    %r12,%r13
  407049:	48 89 43 10          	mov    %rax,0x10(%rbx)
  40704d:	48 0f 47 fd          	cmova  %rbp,%rdi
  407051:	e8 0a e3 ff ff       	callq  405360 <_Znam@plt>
  407056:	48 89 43 18          	mov    %rax,0x18(%rbx)
  40705a:	5b                   	pop    %rbx
  40705b:	5d                   	pop    %rbp
  40705c:	41 5c                	pop    %r12
  40705e:	41 5d                	pop    %r13
  407060:	41 5e                	pop    %r14
  407062:	c3                   	retq   
  407063:	66 2e 0f 1f 84 00 00 	nopw   %cs:0x0(%rax,%rax,1)
  40706a:	00 00 00 
  40706d:	0f 1f 00             	nopl   (%rax)

0000000000407070 <_ZN13Array2DWorkerIiED1Ev>:
  407070:	53                   	push   %rbx
  407071:	48 89 fb             	mov    %rdi,%rbx
  407074:	48 8b 7f 08          	mov    0x8(%rdi),%rdi
  407078:	48 85 ff             	test   %rdi,%rdi
  40707b:	74 05                	je     407082 <_ZN13Array2DWorkerIiED1Ev+0x12>
  40707d:	e8 de e1 ff ff       	callq  405260 <_ZdaPv@plt>
  407082:	48 8b 7b 10          	mov    0x10(%rbx),%rdi
  407086:	48 85 ff             	test   %rdi,%rdi
  407089:	74 05                	je     407090 <_ZN13Array2DWorkerIiED1Ev+0x20>
  40708b:	e8 d0 e1 ff ff       	callq  405260 <_ZdaPv@plt>
  407090:	48 8b 7b 18          	mov    0x18(%rbx),%rdi
  407094:	48 85 ff             	test   %rdi,%rdi
  407097:	74 05                	je     40709e <_ZN13Array2DWorkerIiED1Ev+0x2e>
  407099:	e8 c2 e1 ff ff       	callq  405260 <_ZdaPv@plt>
  40709e:	c7 43 04 00 00 00 00 	movl   $0x0,0x4(%rbx)
  4070a5:	c7 03 00 00 00 00    	movl   $0x0,(%rbx)
  4070ab:	5b                   	pop    %rbx
  4070ac:	c3                   	retq   
  4070ad:	0f 1f 00             	nopl   (%rax)

00000000004070b0 <_ZN13Array2DWorkerIiE11getRowCountEv>:
  4070b0:	8b 47 04             	mov    0x4(%rdi),%eax
  4070b3:	c3                   	retq   
  4070b4:	66 2e 0f 1f 84 00 00 	nopw   %cs:0x0(%rax,%rax,1)
  4070bb:	00 00 00 
  4070be:	66 90                	xchg   %ax,%ax

00000000004070c0 <_ZN13Array2DWorkerIiE14getColumnCountEv>:
  4070c0:	8b 07                	mov    (%rdi),%eax
  4070c2:	c3                   	retq   
  4070c3:	66 2e 0f 1f 84 00 00 	nopw   %cs:0x0(%rax,%rax,1)
  4070ca:	00 00 00 
  4070cd:	0f 1f 00             	nopl   (%rax)

00000000004070d0 <_ZN13Array2DWorkerIiE10getRawDataEv>:
  4070d0:	48 8b 47 08          	mov    0x8(%rdi),%rax
  4070d4:	c3                   	retq   
  4070d5:	66 2e 0f 1f 84 00 00 	nopw   %cs:0x0(%rax,%rax,1)
  4070dc:	00 00 00 
  4070df:	90                   	nop

00000000004070e0 <_ZNK13Array2DWorkerIiE11getLocationEii>:
  4070e0:	0f af 37             	imul   (%rdi),%esi
  4070e3:	8d 04 16             	lea    (%rsi,%rdx,1),%eax
  4070e6:	c3                   	retq   
  4070e7:	66 0f 1f 84 00 00 00 	nopw   0x0(%rax,%rax,1)
  4070ee:	00 00 

00000000004070f0 <_ZN13Array2DWorkerIiE2atEii>:
  4070f0:	53                   	push   %rbx
  4070f1:	48 8b 5f 08          	mov    0x8(%rdi),%rbx
  4070f5:	e8 e6 ff ff ff       	callq  4070e0 <_ZNK13Array2DWorkerIiE11getLocationEii>
  4070fa:	48 98                	cltq   
  4070fc:	8b 04 83             	mov    (%rbx,%rax,4),%eax
  4070ff:	5b                   	pop    %rbx
  407100:	c3                   	retq   
  407101:	66 2e 0f 1f 84 00 00 	nopw   %cs:0x0(%rax,%rax,1)
  407108:	00 00 00 
  40710b:	0f 1f 44 00 00       	nopl   0x0(%rax,%rax,1)

0000000000407110 <_ZN13Array2DWorkerIiE6getRowEi>:
  407110:	41 55                	push   %r13
  407112:	41 89 f5             	mov    %esi,%r13d
  407115:	41 54                	push   %r12
  407117:	55                   	push   %rbp
  407118:	48 89 fd             	mov    %rdi,%rbp
  40711b:	53                   	push   %rbx
  40711c:	31 db                	xor    %ebx,%ebx
  40711e:	48 83 ec 08          	sub    $0x8,%rsp
  407122:	8b 07                	mov    (%rdi),%eax
  407124:	85 c0                	test   %eax,%eax
  407126:	7e 2d                	jle    407155 <_ZN13Array2DWorkerIiE6getRowEi+0x45>
  407128:	0f 1f 84 00 00 00 00 	nopl   0x0(%rax,%rax,1)
  40712f:	00 
  407130:	48 8b 45 10          	mov    0x10(%rbp),%rax
  407134:	89 da                	mov    %ebx,%edx
  407136:	44 89 ee             	mov    %r13d,%esi
  407139:	48 89 ef             	mov    %rbp,%rdi
  40713c:	4c 8d 24 98          	lea    (%rax,%rbx,4),%r12
  407140:	e8 ab ff ff ff       	callq  4070f0 <_ZN13Array2DWorkerIiE2atEii>
  407145:	41 89 04 24          	mov    %eax,(%r12)
  407149:	8d 43 01             	lea    0x1(%rbx),%eax
  40714c:	48 83 c3 01          	add    $0x1,%rbx
  407150:	39 45 00             	cmp    %eax,0x0(%rbp)
  407153:	7f db                	jg     407130 <_ZN13Array2DWorkerIiE6getRowEi+0x20>
  407155:	48 8b 45 10          	mov    0x10(%rbp),%rax
  407159:	48 83 c4 08          	add    $0x8,%rsp
  40715d:	5b                   	pop    %rbx
  40715e:	5d                   	pop    %rbp
  40715f:	41 5c                	pop    %r12
  407161:	41 5d                	pop    %r13
  407163:	c3                   	retq   
  407164:	66 2e 0f 1f 84 00 00 	nopw   %cs:0x0(%rax,%rax,1)
  40716b:	00 00 00 
  40716e:	66 90                	xchg   %ax,%ax

0000000000407170 <_ZN13Array2DWorkerIiE9getColumnEi>:
  407170:	41 55                	push   %r13
  407172:	41 89 f5             	mov    %esi,%r13d
  407175:	41 54                	push   %r12
  407177:	55                   	push   %rbp
  407178:	48 89 fd             	mov    %rdi,%rbp
  40717b:	53                   	push   %rbx
  40717c:	31 db                	xor    %ebx,%ebx
  40717e:	48 83 ec 08          	sub    $0x8,%rsp
  407182:	8b 47 04             	mov    0x4(%rdi),%eax
  407185:	85 c0                	test   %eax,%eax
  407187:	7e 2c                	jle    4071b5 <_ZN13Array2DWorkerIiE9getColumnEi+0x45>
  407189:	0f 1f 80 00 00 00 00 	nopl   0x0(%rax)
  407190:	48 8b 45 18          	mov    0x18(%rbp),%rax
  407194:	89 de                	mov    %ebx,%esi
  407196:	44 89 ea             	mov    %r13d,%edx
  407199:	48 89 ef             	mov    %rbp,%rdi
  40719c:	4c 8d 24 98          	lea    (%rax,%rbx,4),%r12
  4071a0:	e8 4b ff ff ff       	callq  4070f0 <_ZN13Array2DWorkerIiE2atEii>
  4071a5:	41 89 04 24          	mov    %eax,(%r12)
  4071a9:	8d 43 01             	lea    0x1(%rbx),%eax
  4071ac:	48 83 c3 01          	add    $0x1,%rbx
  4071b0:	39 45 04             	cmp    %eax,0x4(%rbp)
  4071b3:	7f db                	jg     407190 <_ZN13Array2DWorkerIiE9getColumnEi+0x20>
  4071b5:	48 8b 45 18          	mov    0x18(%rbp),%rax
  4071b9:	48 83 c4 08          	add    $0x8,%rsp
  4071bd:	5b                   	pop    %rbx
  4071be:	5d                   	pop    %rbp
  4071bf:	41 5c                	pop    %r12
  4071c1:	41 5d                	pop    %r13
  4071c3:	c3                   	retq   
  4071c4:	66 2e 0f 1f 84 00 00 	nopw   %cs:0x0(%rax,%rax,1)
  4071cb:	00 00 00 
  4071ce:	66 90                	xchg   %ax,%ax

00000000004071d0 <_ZNK13Array2DWorkerIiE2atEii>:
  4071d0:	53                   	push   %rbx
  4071d1:	48 8b 5f 08          	mov    0x8(%rdi),%rbx
  4071d5:	e8 06 ff ff ff       	callq  4070e0 <_ZNK13Array2DWorkerIiE11getLocationEii>
  4071da:	48 98                	cltq   
  4071dc:	8b 04 83             	mov    (%rbx,%rax,4),%eax
  4071df:	5b                   	pop    %rbx
  4071e0:	c3                   	retq   
  4071e1:	66 2e 0f 1f 84 00 00 	nopw   %cs:0x0(%rax,%rax,1)
  4071e8:	00 00 00 
  4071eb:	0f 1f 44 00 00       	nopl   0x0(%rax,%rax,1)

00000000004071f0 <_ZN13Array2DWorkerIiE3setEiii>:
  4071f0:	55                   	push   %rbp
  4071f1:	89 cd                	mov    %ecx,%ebp
  4071f3:	53                   	push   %rbx
  4071f4:	48 83 ec 08          	sub    $0x8,%rsp
  4071f8:	48 8b 5f 08          	mov    0x8(%rdi),%rbx
  4071fc:	e8 df fe ff ff       	callq  4070e0 <_ZNK13Array2DWorkerIiE11getLocationEii>
  407201:	48 98                	cltq   
  407203:	89 2c 83             	mov    %ebp,(%rbx,%rax,4)
  407206:	48 83 c4 08          	add    $0x8,%rsp
  40720a:	5b                   	pop    %rbx
  40720b:	5d                   	pop    %rbp
  40720c:	c3                   	retq   
  40720d:	0f 1f 00             	nopl   (%rax)

0000000000407210 <_ZN13Array2DWorkerIiE6setRowEiPi>:
  407210:	41 55                	push   %r13
  407212:	41 89 f5             	mov    %esi,%r13d
  407215:	41 54                	push   %r12
  407217:	49 89 fc             	mov    %rdi,%r12
  40721a:	55                   	push   %rbp
  40721b:	48 89 d5             	mov    %rdx,%rbp
  40721e:	53                   	push   %rbx
  40721f:	31 db                	xor    %ebx,%ebx
  407221:	48 83 ec 08          	sub    $0x8,%rsp
  407225:	8b 07                	mov    (%rdi),%eax
  407227:	85 c0                	test   %eax,%eax
  407229:	7e 22                	jle    40724d <_ZN13Array2DWorkerIiE6setRowEiPi+0x3d>
  40722b:	0f 1f 44 00 00       	nopl   0x0(%rax,%rax,1)
  407230:	8b 4d 00             	mov    0x0(%rbp),%ecx
  407233:	89 da                	mov    %ebx,%edx
  407235:	44 89 ee             	mov    %r13d,%esi
  407238:	4c 89 e7             	mov    %r12,%rdi
  40723b:	83 c3 01             	add    $0x1,%ebx
  40723e:	48 83 c5 04          	add    $0x4,%rbp
  407242:	e8 a9 ff ff ff       	callq  4071f0 <_ZN13Array2DWorkerIiE3setEiii>
  407247:	41 39 1c 24          	cmp    %ebx,(%r12)
  40724b:	7f e3                	jg     407230 <_ZN13Array2DWorkerIiE6setRowEiPi+0x20>
  40724d:	48 83 c4 08          	add    $0x8,%rsp
  407251:	5b                   	pop    %rbx
  407252:	5d                   	pop    %rbp
  407253:	41 5c                	pop    %r12
  407255:	41 5d                	pop    %r13
  407257:	c3                   	retq   
  407258:	0f 1f 84 00 00 00 00 	nopl   0x0(%rax,%rax,1)
  40725f:	00 

0000000000407260 <_ZN13Array2DWorkerIiE13getRowSectionEii>:
  407260:	41 56                	push   %r14
  407262:	41 89 d6             	mov    %edx,%r14d
  407265:	41 55                	push   %r13
  407267:	49 89 f5             	mov    %rsi,%r13
  40726a:	41 54                	push   %r12
  40726c:	41 89 cc             	mov    %ecx,%r12d
  40726f:	55                   	push   %rbp
  407270:	48 89 fd             	mov    %rdi,%rbp
  407273:	53                   	push   %rbx
  407274:	8b 16                	mov    (%rsi),%edx
  407276:	89 ce                	mov    %ecx,%esi
  407278:	31 db                	xor    %ebx,%ebx
  40727a:	e8 61 fd ff ff       	callq  406fe0 <_ZN13Array2DWorkerIiEC1Eii>
  40727f:	45 85 e4             	test   %r12d,%r12d
  407282:	7e 25                	jle    4072a9 <_ZN13Array2DWorkerIiE13getRowSectionEii+0x49>
  407284:	0f 1f 40 00          	nopl   0x0(%rax)
  407288:	42 8d 34 33          	lea    (%rbx,%r14,1),%esi
  40728c:	4c 89 ef             	mov    %r13,%rdi
  40728f:	e8 7c fe ff ff       	callq  407110 <_ZN13Array2DWorkerIiE6getRowEi>
  407294:	48 89 c2             	mov    %rax,%rdx
  407297:	89 de                	mov    %ebx,%esi
  407299:	48 89 ef             	mov    %rbp,%rdi
  40729c:	e8 6f ff ff ff       	callq  407210 <_ZN13Array2DWorkerIiE6setRowEiPi>
  4072a1:	83 c3 01             	add    $0x1,%ebx
  4072a4:	44 39 e3             	cmp    %r12d,%ebx
  4072a7:	75 df                	jne    407288 <_ZN13Array2DWorkerIiE13getRowSectionEii+0x28>
  4072a9:	5b                   	pop    %rbx
  4072aa:	48 89 e8             	mov    %rbp,%rax
  4072ad:	5d                   	pop    %rbp
  4072ae:	41 5c                	pop    %r12
  4072b0:	41 5d                	pop    %r13
  4072b2:	41 5e                	pop    %r14
  4072b4:	c3                   	retq   
  4072b5:	48 89 c3             	mov    %rax,%rbx
  4072b8:	48 89 ef             	mov    %rbp,%rdi
  4072bb:	e8 b0 fd ff ff       	callq  407070 <_ZN13Array2DWorkerIiED1Ev>
  4072c0:	48 89 df             	mov    %rbx,%rdi
  4072c3:	e8 58 e2 ff ff       	callq  405520 <_Unwind_Resume@plt>
  4072c8:	0f 1f 84 00 00 00 00 	nopl   0x0(%rax,%rax,1)
  4072cf:	00 

00000000004072d0 <_ZN13Array2DWorkerIiE9setColumnEiPi>:
  4072d0:	41 55                	push   %r13
  4072d2:	41 89 f5             	mov    %esi,%r13d
  4072d5:	41 54                	push   %r12
  4072d7:	49 89 fc             	mov    %rdi,%r12
  4072da:	55                   	push   %rbp
  4072db:	48 89 d5             	mov    %rdx,%rbp
  4072de:	53                   	push   %rbx
  4072df:	31 db                	xor    %ebx,%ebx
  4072e1:	48 83 ec 08          	sub    $0x8,%rsp
  4072e5:	8b 47 04             	mov    0x4(%rdi),%eax
  4072e8:	85 c0                	test   %eax,%eax
  4072ea:	7e 22                	jle    40730e <_ZN13Array2DWorkerIiE9setColumnEiPi+0x3e>
  4072ec:	0f 1f 40 00          	nopl   0x0(%rax)
  4072f0:	8b 4d 00             	mov    0x0(%rbp),%ecx
  4072f3:	89 de                	mov    %ebx,%esi
  4072f5:	44 89 ea             	mov    %r13d,%edx
  4072f8:	4c 89 e7             	mov    %r12,%rdi
  4072fb:	83 c3 01             	add    $0x1,%ebx
  4072fe:	48 83 c5 04          	add    $0x4,%rbp
  407302:	e8 e9 fe ff ff       	callq  4071f0 <_ZN13Array2DWorkerIiE3setEiii>
  407307:	41 39 5c 24 04       	cmp    %ebx,0x4(%r12)
  40730c:	7f e2                	jg     4072f0 <_ZN13Array2DWorkerIiE9setColumnEiPi+0x20>
  40730e:	48 83 c4 08          	add    $0x8,%rsp
  407312:	5b                   	pop    %rbx
  407313:	5d                   	pop    %rbp
  407314:	41 5c                	pop    %r12
  407316:	41 5d                	pop    %r13
  407318:	c3                   	retq   
  407319:	0f 1f 80 00 00 00 00 	nopl   0x0(%rax)

0000000000407320 <_ZN13Array2DWorkerIiE16getColumnSectionEii>:
  407320:	41 56                	push   %r14
  407322:	41 89 d6             	mov    %edx,%r14d
  407325:	89 ca                	mov    %ecx,%edx
  407327:	41 55                	push   %r13
  407329:	49 89 f5             	mov    %rsi,%r13
  40732c:	41 54                	push   %r12
  40732e:	41 89 cc             	mov    %ecx,%r12d
  407331:	55                   	push   %rbp
  407332:	48 89 fd             	mov    %rdi,%rbp
  407335:	53                   	push   %rbx
  407336:	8b 76 04             	mov    0x4(%rsi),%esi
  407339:	31 db                	xor    %ebx,%ebx
  40733b:	e8 a0 fc ff ff       	callq  406fe0 <_ZN13Array2DWorkerIiEC1Eii>
  407340:	45 85 e4             	test   %r12d,%r12d
  407343:	7e 24                	jle    407369 <_ZN13Array2DWorkerIiE16getColumnSectionEii+0x49>
  407345:	0f 1f 00             	nopl   (%rax)
  407348:	42 8d 34 33          	lea    (%rbx,%r14,1),%esi
  40734c:	4c 89 ef             	mov    %r13,%rdi
  40734f:	e8 1c fe ff ff       	callq  407170 <_ZN13Array2DWorkerIiE9getColumnEi>
  407354:	48 89 c2             	mov    %rax,%rdx
  407357:	89 de                	mov    %ebx,%esi
  407359:	48 89 ef             	mov    %rbp,%rdi
  40735c:	e8 6f ff ff ff       	callq  4072d0 <_ZN13Array2DWorkerIiE9setColumnEiPi>
  407361:	83 c3 01             	add    $0x1,%ebx
  407364:	44 39 e3             	cmp    %r12d,%ebx
  407367:	75 df                	jne    407348 <_ZN13Array2DWorkerIiE16getColumnSectionEii+0x28>
  407369:	5b                   	pop    %rbx
  40736a:	48 89 e8             	mov    %rbp,%rax
  40736d:	5d                   	pop    %rbp
  40736e:	41 5c                	pop    %r12
  407370:	41 5d                	pop    %r13
  407372:	41 5e                	pop    %r14
  407374:	c3                   	retq   
  407375:	48 89 c3             	mov    %rax,%rbx
  407378:	48 89 ef             	mov    %rbp,%rdi
  40737b:	e8 f0 fc ff ff       	callq  407070 <_ZN13Array2DWorkerIiED1Ev>
  407380:	48 89 df             	mov    %rbx,%rdi
  407383:	e8 98 e1 ff ff       	callq  405520 <_Unwind_Resume@plt>
  407388:	0f 1f 84 00 00 00 00 	nopl   0x0(%rax,%rax,1)
  40738f:	00 

0000000000407390 <_ZN13Array2DWorkerIiE9transposeEv>:
  407390:	41 55                	push   %r13
  407392:	49 89 fd             	mov    %rdi,%r13
  407395:	41 54                	push   %r12
  407397:	49 89 f4             	mov    %rsi,%r12
  40739a:	55                   	push   %rbp
  40739b:	53                   	push   %rbx
  40739c:	48 83 ec 08          	sub    $0x8,%rsp
  4073a0:	8b 56 04             	mov    0x4(%rsi),%edx
  4073a3:	8b 36                	mov    (%rsi),%esi
  4073a5:	e8 36 fc ff ff       	callq  406fe0 <_ZN13Array2DWorkerIiEC1Eii>
  4073aa:	41 8b 54 24 04       	mov    0x4(%r12),%edx
  4073af:	85 d2                	test   %edx,%edx
  4073b1:	7e 42                	jle    4073f5 <_ZN13Array2DWorkerIiE9transposeEv+0x65>
  4073b3:	31 ed                	xor    %ebp,%ebp
  4073b5:	0f 1f 00             	nopl   (%rax)
  4073b8:	41 8b 04 24          	mov    (%r12),%eax
  4073bc:	85 c0                	test   %eax,%eax
  4073be:	7e 2b                	jle    4073eb <_ZN13Array2DWorkerIiE9transposeEv+0x5b>
  4073c0:	31 db                	xor    %ebx,%ebx
  4073c2:	66 0f 1f 44 00 00    	nopw   0x0(%rax,%rax,1)
  4073c8:	89 da                	mov    %ebx,%edx
  4073ca:	89 ee                	mov    %ebp,%esi
  4073cc:	4c 89 e7             	mov    %r12,%rdi
  4073cf:	e8 1c fd ff ff       	callq  4070f0 <_ZN13Array2DWorkerIiE2atEii>
  4073d4:	89 c1                	mov    %eax,%ecx
  4073d6:	89 ea                	mov    %ebp,%edx
  4073d8:	89 de                	mov    %ebx,%esi
  4073da:	4c 89 ef             	mov    %r13,%rdi
  4073dd:	e8 0e fe ff ff       	callq  4071f0 <_ZN13Array2DWorkerIiE3setEiii>
  4073e2:	83 c3 01             	add    $0x1,%ebx
  4073e5:	41 39 1c 24          	cmp    %ebx,(%r12)
  4073e9:	7f dd                	jg     4073c8 <_ZN13Array2DWorkerIiE9transposeEv+0x38>
  4073eb:	83 c5 01             	add    $0x1,%ebp
  4073ee:	41 39 6c 24 04       	cmp    %ebp,0x4(%r12)
  4073f3:	7f c3                	jg     4073b8 <_ZN13Array2DWorkerIiE9transposeEv+0x28>
  4073f5:	48 83 c4 08          	add    $0x8,%rsp
  4073f9:	4c 89 e8             	mov    %r13,%rax
  4073fc:	5b                   	pop    %rbx
  4073fd:	5d                   	pop    %rbp
  4073fe:	41 5c                	pop    %r12
  407400:	41 5d                	pop    %r13
  407402:	c3                   	retq   
  407403:	48 89 c3             	mov    %rax,%rbx
  407406:	4c 89 ef             	mov    %r13,%rdi
  407409:	e8 62 fc ff ff       	callq  407070 <_ZN13Array2DWorkerIiED1Ev>
  40740e:	48 89 df             	mov    %rbx,%rdi
  407411:	e8 0a e1 ff ff       	callq  405520 <_Unwind_Resume@plt>
  407416:	66 2e 0f 1f 84 00 00 	nopw   %cs:0x0(%rax,%rax,1)
  40741d:	00 00 00 

0000000000407420 <_ZN13Array2DWorkerIfEC1Ev>:
  407420:	48 c7 47 08 00 00 00 	movq   $0x0,0x8(%rdi)
  407427:	00 
  407428:	c7 47 04 00 00 00 00 	movl   $0x0,0x4(%rdi)
  40742f:	c7 07 00 00 00 00    	movl   $0x0,(%rdi)
  407435:	48 c7 47 10 00 00 00 	movq   $0x0,0x10(%rdi)
  40743c:	00 
  40743d:	48 c7 47 18 00 00 00 	movq   $0x0,0x18(%rdi)
  407444:	00 
  407445:	c3                   	retq   
  407446:	66 2e 0f 1f 84 00 00 	nopw   %cs:0x0(%rax,%rax,1)
  40744d:	00 00 00 

0000000000407450 <_ZN13Array2DWorkerIfEC1Eii>:
  407450:	41 56                	push   %r14
  407452:	4c 63 f2             	movslq %edx,%r14
  407455:	41 55                	push   %r13
  407457:	4c 63 ee             	movslq %esi,%r13
  40745a:	44 89 e8             	mov    %r13d,%eax
  40745d:	41 54                	push   %r12
  40745f:	49 bc 00 00 00 00 00 	movabs $0x1fc0000000000000,%r12
  407466:	00 c0 1f 
  407469:	41 0f af c6          	imul   %r14d,%eax
  40746d:	55                   	push   %rbp
  40746e:	48 c7 c5 ff ff ff ff 	mov    $0xffffffffffffffff,%rbp
  407475:	48 98                	cltq   
  407477:	53                   	push   %rbx
  407478:	48 89 fb             	mov    %rdi,%rbx
  40747b:	44 89 6f 04          	mov    %r13d,0x4(%rdi)
  40747f:	44 89 37             	mov    %r14d,(%rdi)
  407482:	48 8d 3c 85 00 00 00 	lea    0x0(,%rax,4),%rdi
  407489:	00 
  40748a:	4c 39 e0             	cmp    %r12,%rax
  40748d:	48 0f 47 fd          	cmova  %rbp,%rdi
  407491:	e8 ca de ff ff       	callq  405360 <_Znam@plt>
  407496:	4a 8d 3c b5 00 00 00 	lea    0x0(,%r14,4),%rdi
  40749d:	00 
  40749e:	4d 39 e6             	cmp    %r12,%r14
  4074a1:	48 89 43 08          	mov    %rax,0x8(%rbx)
  4074a5:	48 0f 47 fd          	cmova  %rbp,%rdi
  4074a9:	e8 b2 de ff ff       	callq  405360 <_Znam@plt>
  4074ae:	4a 8d 3c ad 00 00 00 	lea    0x0(,%r13,4),%rdi
  4074b5:	00 
  4074b6:	4d 39 e5             	cmp    %r12,%r13
  4074b9:	48 89 43 10          	mov    %rax,0x10(%rbx)
  4074bd:	48 0f 47 fd          	cmova  %rbp,%rdi
  4074c1:	e8 9a de ff ff       	callq  405360 <_Znam@plt>
  4074c6:	48 89 43 18          	mov    %rax,0x18(%rbx)
  4074ca:	5b                   	pop    %rbx
  4074cb:	5d                   	pop    %rbp
  4074cc:	41 5c                	pop    %r12
  4074ce:	41 5d                	pop    %r13
  4074d0:	41 5e                	pop    %r14
  4074d2:	c3                   	retq   
  4074d3:	66 2e 0f 1f 84 00 00 	nopw   %cs:0x0(%rax,%rax,1)
  4074da:	00 00 00 
  4074dd:	0f 1f 00             	nopl   (%rax)

00000000004074e0 <_ZN13Array2DWorkerIfED1Ev>:
  4074e0:	53                   	push   %rbx
  4074e1:	48 89 fb             	mov    %rdi,%rbx
  4074e4:	48 8b 7f 08          	mov    0x8(%rdi),%rdi
  4074e8:	48 85 ff             	test   %rdi,%rdi
  4074eb:	74 05                	je     4074f2 <_ZN13Array2DWorkerIfED1Ev+0x12>
  4074ed:	e8 6e dd ff ff       	callq  405260 <_ZdaPv@plt>
  4074f2:	48 8b 7b 10          	mov    0x10(%rbx),%rdi
  4074f6:	48 85 ff             	test   %rdi,%rdi
  4074f9:	74 05                	je     407500 <_ZN13Array2DWorkerIfED1Ev+0x20>
  4074fb:	e8 60 dd ff ff       	callq  405260 <_ZdaPv@plt>
  407500:	48 8b 7b 18          	mov    0x18(%rbx),%rdi
  407504:	48 85 ff             	test   %rdi,%rdi
  407507:	74 05                	je     40750e <_ZN13Array2DWorkerIfED1Ev+0x2e>
  407509:	e8 52 dd ff ff       	callq  405260 <_ZdaPv@plt>
  40750e:	c7 43 04 00 00 00 00 	movl   $0x0,0x4(%rbx)
  407515:	c7 03 00 00 00 00    	movl   $0x0,(%rbx)
  40751b:	5b                   	pop    %rbx
  40751c:	c3                   	retq   
  40751d:	0f 1f 00             	nopl   (%rax)

0000000000407520 <_ZN13Array2DWorkerIfE11getRowCountEv>:
  407520:	8b 47 04             	mov    0x4(%rdi),%eax
  407523:	c3                   	retq   
  407524:	66 2e 0f 1f 84 00 00 	nopw   %cs:0x0(%rax,%rax,1)
  40752b:	00 00 00 
  40752e:	66 90                	xchg   %ax,%ax

0000000000407530 <_ZN13Array2DWorkerIfE14getColumnCountEv>:
  407530:	8b 07                	mov    (%rdi),%eax
  407532:	c3                   	retq   
  407533:	66 2e 0f 1f 84 00 00 	nopw   %cs:0x0(%rax,%rax,1)
  40753a:	00 00 00 
  40753d:	0f 1f 00             	nopl   (%rax)

0000000000407540 <_ZN13Array2DWorkerIfE10getRawDataEv>:
  407540:	48 8b 47 08          	mov    0x8(%rdi),%rax
  407544:	c3                   	retq   
  407545:	66 2e 0f 1f 84 00 00 	nopw   %cs:0x0(%rax,%rax,1)
  40754c:	00 00 00 
  40754f:	90                   	nop

0000000000407550 <_ZNK13Array2DWorkerIfE11getLocationEii>:
  407550:	0f af 37             	imul   (%rdi),%esi
  407553:	8d 04 16             	lea    (%rsi,%rdx,1),%eax
  407556:	c3                   	retq   
  407557:	66 0f 1f 84 00 00 00 	nopw   0x0(%rax,%rax,1)
  40755e:	00 00 

0000000000407560 <_ZN13Array2DWorkerIfE2atEii>:
  407560:	53                   	push   %rbx
  407561:	48 8b 5f 08          	mov    0x8(%rdi),%rbx
  407565:	e8 e6 ff ff ff       	callq  407550 <_ZNK13Array2DWorkerIfE11getLocationEii>
  40756a:	48 98                	cltq   
  40756c:	f3 0f 10 04 83       	movss  (%rbx,%rax,4),%xmm0
  407571:	5b                   	pop    %rbx
  407572:	c3                   	retq   
  407573:	66 2e 0f 1f 84 00 00 	nopw   %cs:0x0(%rax,%rax,1)
  40757a:	00 00 00 
  40757d:	0f 1f 00             	nopl   (%rax)

0000000000407580 <_ZN13Array2DWorkerIfE6getRowEi>:
  407580:	41 55                	push   %r13
  407582:	41 89 f5             	mov    %esi,%r13d
  407585:	41 54                	push   %r12
  407587:	55                   	push   %rbp
  407588:	48 89 fd             	mov    %rdi,%rbp
  40758b:	53                   	push   %rbx
  40758c:	31 db                	xor    %ebx,%ebx
  40758e:	48 83 ec 08          	sub    $0x8,%rsp
  407592:	8b 07                	mov    (%rdi),%eax
  407594:	85 c0                	test   %eax,%eax
  407596:	7e 2f                	jle    4075c7 <_ZN13Array2DWorkerIfE6getRowEi+0x47>
  407598:	0f 1f 84 00 00 00 00 	nopl   0x0(%rax,%rax,1)
  40759f:	00 
  4075a0:	48 8b 45 10          	mov    0x10(%rbp),%rax
  4075a4:	89 da                	mov    %ebx,%edx
  4075a6:	44 89 ee             	mov    %r13d,%esi
  4075a9:	48 89 ef             	mov    %rbp,%rdi
  4075ac:	4c 8d 24 98          	lea    (%rax,%rbx,4),%r12
  4075b0:	e8 ab ff ff ff       	callq  407560 <_ZN13Array2DWorkerIfE2atEii>
  4075b5:	8d 43 01             	lea    0x1(%rbx),%eax
  4075b8:	48 83 c3 01          	add    $0x1,%rbx
  4075bc:	39 45 00             	cmp    %eax,0x0(%rbp)
  4075bf:	f3 41 0f 11 04 24    	movss  %xmm0,(%r12)
  4075c5:	7f d9                	jg     4075a0 <_ZN13Array2DWorkerIfE6getRowEi+0x20>
  4075c7:	48 8b 45 10          	mov    0x10(%rbp),%rax
  4075cb:	48 83 c4 08          	add    $0x8,%rsp
  4075cf:	5b                   	pop    %rbx
  4075d0:	5d                   	pop    %rbp
  4075d1:	41 5c                	pop    %r12
  4075d3:	41 5d                	pop    %r13
  4075d5:	c3                   	retq   
  4075d6:	66 2e 0f 1f 84 00 00 	nopw   %cs:0x0(%rax,%rax,1)
  4075dd:	00 00 00 

00000000004075e0 <_ZN13Array2DWorkerIfE9getColumnEi>:
  4075e0:	41 55                	push   %r13
  4075e2:	41 89 f5             	mov    %esi,%r13d
  4075e5:	41 54                	push   %r12
  4075e7:	55                   	push   %rbp
  4075e8:	48 89 fd             	mov    %rdi,%rbp
  4075eb:	53                   	push   %rbx
  4075ec:	31 db                	xor    %ebx,%ebx
  4075ee:	48 83 ec 08          	sub    $0x8,%rsp
  4075f2:	8b 47 04             	mov    0x4(%rdi),%eax
  4075f5:	85 c0                	test   %eax,%eax
  4075f7:	7e 2e                	jle    407627 <_ZN13Array2DWorkerIfE9getColumnEi+0x47>
  4075f9:	0f 1f 80 00 00 00 00 	nopl   0x0(%rax)
  407600:	48 8b 45 18          	mov    0x18(%rbp),%rax
  407604:	89 de                	mov    %ebx,%esi
  407606:	44 89 ea             	mov    %r13d,%edx
  407609:	48 89 ef             	mov    %rbp,%rdi
  40760c:	4c 8d 24 98          	lea    (%rax,%rbx,4),%r12
  407610:	e8 4b ff ff ff       	callq  407560 <_ZN13Array2DWorkerIfE2atEii>
  407615:	8d 43 01             	lea    0x1(%rbx),%eax
  407618:	48 83 c3 01          	add    $0x1,%rbx
  40761c:	39 45 04             	cmp    %eax,0x4(%rbp)
  40761f:	f3 41 0f 11 04 24    	movss  %xmm0,(%r12)
  407625:	7f d9                	jg     407600 <_ZN13Array2DWorkerIfE9getColumnEi+0x20>
  407627:	48 8b 45 18          	mov    0x18(%rbp),%rax
  40762b:	48 83 c4 08          	add    $0x8,%rsp
  40762f:	5b                   	pop    %rbx
  407630:	5d                   	pop    %rbp
  407631:	41 5c                	pop    %r12
  407633:	41 5d                	pop    %r13
  407635:	c3                   	retq   
  407636:	66 2e 0f 1f 84 00 00 	nopw   %cs:0x0(%rax,%rax,1)
  40763d:	00 00 00 

0000000000407640 <_ZNK13Array2DWorkerIfE2atEii>:
  407640:	53                   	push   %rbx
  407641:	48 8b 5f 08          	mov    0x8(%rdi),%rbx
  407645:	e8 06 ff ff ff       	callq  407550 <_ZNK13Array2DWorkerIfE11getLocationEii>
  40764a:	48 98                	cltq   
  40764c:	f3 0f 10 04 83       	movss  (%rbx,%rax,4),%xmm0
  407651:	5b                   	pop    %rbx
  407652:	c3                   	retq   
  407653:	66 2e 0f 1f 84 00 00 	nopw   %cs:0x0(%rax,%rax,1)
  40765a:	00 00 00 
  40765d:	0f 1f 00             	nopl   (%rax)

0000000000407660 <_ZN13Array2DWorkerIfE3setEiif>:
  407660:	53                   	push   %rbx
  407661:	48 83 ec 10          	sub    $0x10,%rsp
  407665:	48 8b 5f 08          	mov    0x8(%rdi),%rbx
  407669:	f3 0f 11 44 24 0c    	movss  %xmm0,0xc(%rsp)
  40766f:	e8 dc fe ff ff       	callq  407550 <_ZNK13Array2DWorkerIfE11getLocationEii>
  407674:	f3 0f 10 44 24 0c    	movss  0xc(%rsp),%xmm0
  40767a:	48 98                	cltq   
  40767c:	f3 0f 11 04 83       	movss  %xmm0,(%rbx,%rax,4)
  407681:	48 83 c4 10          	add    $0x10,%rsp
  407685:	5b                   	pop    %rbx
  407686:	c3                   	retq   
  407687:	66 0f 1f 84 00 00 00 	nopw   0x0(%rax,%rax,1)
  40768e:	00 00 

0000000000407690 <_ZN13Array2DWorkerIfE6setRowEiPf>:
  407690:	41 55                	push   %r13
  407692:	41 89 f5             	mov    %esi,%r13d
  407695:	41 54                	push   %r12
  407697:	49 89 fc             	mov    %rdi,%r12
  40769a:	55                   	push   %rbp
  40769b:	48 89 d5             	mov    %rdx,%rbp
  40769e:	53                   	push   %rbx
  40769f:	31 db                	xor    %ebx,%ebx
  4076a1:	48 83 ec 08          	sub    $0x8,%rsp
  4076a5:	8b 07                	mov    (%rdi),%eax
  4076a7:	85 c0                	test   %eax,%eax
  4076a9:	7e 24                	jle    4076cf <_ZN13Array2DWorkerIfE6setRowEiPf+0x3f>
  4076ab:	0f 1f 44 00 00       	nopl   0x0(%rax,%rax,1)
  4076b0:	f3 0f 10 45 00       	movss  0x0(%rbp),%xmm0
  4076b5:	89 da                	mov    %ebx,%edx
  4076b7:	44 89 ee             	mov    %r13d,%esi
  4076ba:	4c 89 e7             	mov    %r12,%rdi
  4076bd:	83 c3 01             	add    $0x1,%ebx
  4076c0:	e8 9b ff ff ff       	callq  407660 <_ZN13Array2DWorkerIfE3setEiif>
  4076c5:	48 83 c5 04          	add    $0x4,%rbp
  4076c9:	41 39 1c 24          	cmp    %ebx,(%r12)
  4076cd:	7f e1                	jg     4076b0 <_ZN13Array2DWorkerIfE6setRowEiPf+0x20>
  4076cf:	48 83 c4 08          	add    $0x8,%rsp
  4076d3:	5b                   	pop    %rbx
  4076d4:	5d                   	pop    %rbp
  4076d5:	41 5c                	pop    %r12
  4076d7:	41 5d                	pop    %r13
  4076d9:	c3                   	retq   
  4076da:	66 0f 1f 44 00 00    	nopw   0x0(%rax,%rax,1)

00000000004076e0 <_ZN13Array2DWorkerIfE13getRowSectionEii>:
  4076e0:	41 56                	push   %r14
  4076e2:	41 89 d6             	mov    %edx,%r14d
  4076e5:	41 55                	push   %r13
  4076e7:	49 89 f5             	mov    %rsi,%r13
  4076ea:	41 54                	push   %r12
  4076ec:	41 89 cc             	mov    %ecx,%r12d
  4076ef:	55                   	push   %rbp
  4076f0:	48 89 fd             	mov    %rdi,%rbp
  4076f3:	53                   	push   %rbx
  4076f4:	8b 16                	mov    (%rsi),%edx
  4076f6:	89 ce                	mov    %ecx,%esi
  4076f8:	31 db                	xor    %ebx,%ebx
  4076fa:	e8 51 fd ff ff       	callq  407450 <_ZN13Array2DWorkerIfEC1Eii>
  4076ff:	45 85 e4             	test   %r12d,%r12d
  407702:	7e 25                	jle    407729 <_ZN13Array2DWorkerIfE13getRowSectionEii+0x49>
  407704:	0f 1f 40 00          	nopl   0x0(%rax)
  407708:	42 8d 34 33          	lea    (%rbx,%r14,1),%esi
  40770c:	4c 89 ef             	mov    %r13,%rdi
  40770f:	e8 6c fe ff ff       	callq  407580 <_ZN13Array2DWorkerIfE6getRowEi>
  407714:	48 89 c2             	mov    %rax,%rdx
  407717:	89 de                	mov    %ebx,%esi
  407719:	48 89 ef             	mov    %rbp,%rdi
  40771c:	e8 6f ff ff ff       	callq  407690 <_ZN13Array2DWorkerIfE6setRowEiPf>
  407721:	83 c3 01             	add    $0x1,%ebx
  407724:	44 39 e3             	cmp    %r12d,%ebx
  407727:	75 df                	jne    407708 <_ZN13Array2DWorkerIfE13getRowSectionEii+0x28>
  407729:	5b                   	pop    %rbx
  40772a:	48 89 e8             	mov    %rbp,%rax
  40772d:	5d                   	pop    %rbp
  40772e:	41 5c                	pop    %r12
  407730:	41 5d                	pop    %r13
  407732:	41 5e                	pop    %r14
  407734:	c3                   	retq   
  407735:	48 89 c3             	mov    %rax,%rbx
  407738:	48 89 ef             	mov    %rbp,%rdi
  40773b:	e8 a0 fd ff ff       	callq  4074e0 <_ZN13Array2DWorkerIfED1Ev>
  407740:	48 89 df             	mov    %rbx,%rdi
  407743:	e8 d8 dd ff ff       	callq  405520 <_Unwind_Resume@plt>
  407748:	0f 1f 84 00 00 00 00 	nopl   0x0(%rax,%rax,1)
  40774f:	00 

0000000000407750 <_ZN13Array2DWorkerIfE9setColumnEiPf>:
  407750:	41 55                	push   %r13
  407752:	41 89 f5             	mov    %esi,%r13d
  407755:	41 54                	push   %r12
  407757:	49 89 fc             	mov    %rdi,%r12
  40775a:	55                   	push   %rbp
  40775b:	48 89 d5             	mov    %rdx,%rbp
  40775e:	53                   	push   %rbx
  40775f:	31 db                	xor    %ebx,%ebx
  407761:	48 83 ec 08          	sub    $0x8,%rsp
  407765:	8b 47 04             	mov    0x4(%rdi),%eax
  407768:	85 c0                	test   %eax,%eax
  40776a:	7e 24                	jle    407790 <_ZN13Array2DWorkerIfE9setColumnEiPf+0x40>
  40776c:	0f 1f 40 00          	nopl   0x0(%rax)
  407770:	f3 0f 10 45 00       	movss  0x0(%rbp),%xmm0
  407775:	89 de                	mov    %ebx,%esi
  407777:	44 89 ea             	mov    %r13d,%edx
  40777a:	4c 89 e7             	mov    %r12,%rdi
  40777d:	83 c3 01             	add    $0x1,%ebx
  407780:	e8 db fe ff ff       	callq  407660 <_ZN13Array2DWorkerIfE3setEiif>
  407785:	48 83 c5 04          	add    $0x4,%rbp
  407789:	41 39 5c 24 04       	cmp    %ebx,0x4(%r12)
  40778e:	7f e0                	jg     407770 <_ZN13Array2DWorkerIfE9setColumnEiPf+0x20>
  407790:	48 83 c4 08          	add    $0x8,%rsp
  407794:	5b                   	pop    %rbx
  407795:	5d                   	pop    %rbp
  407796:	41 5c                	pop    %r12
  407798:	41 5d                	pop    %r13
  40779a:	c3                   	retq   
  40779b:	0f 1f 44 00 00       	nopl   0x0(%rax,%rax,1)

00000000004077a0 <_ZN13Array2DWorkerIfE16getColumnSectionEii>:
  4077a0:	41 56                	push   %r14
  4077a2:	41 89 d6             	mov    %edx,%r14d
  4077a5:	89 ca                	mov    %ecx,%edx
  4077a7:	41 55                	push   %r13
  4077a9:	49 89 f5             	mov    %rsi,%r13
  4077ac:	41 54                	push   %r12
  4077ae:	41 89 cc             	mov    %ecx,%r12d
  4077b1:	55                   	push   %rbp
  4077b2:	48 89 fd             	mov    %rdi,%rbp
  4077b5:	53                   	push   %rbx
  4077b6:	8b 76 04             	mov    0x4(%rsi),%esi
  4077b9:	31 db                	xor    %ebx,%ebx
  4077bb:	e8 90 fc ff ff       	callq  407450 <_ZN13Array2DWorkerIfEC1Eii>
  4077c0:	45 85 e4             	test   %r12d,%r12d
  4077c3:	7e 24                	jle    4077e9 <_ZN13Array2DWorkerIfE16getColumnSectionEii+0x49>
  4077c5:	0f 1f 00             	nopl   (%rax)
  4077c8:	42 8d 34 33          	lea    (%rbx,%r14,1),%esi
  4077cc:	4c 89 ef             	mov    %r13,%rdi
  4077cf:	e8 0c fe ff ff       	callq  4075e0 <_ZN13Array2DWorkerIfE9getColumnEi>
  4077d4:	48 89 c2             	mov    %rax,%rdx
  4077d7:	89 de                	mov    %ebx,%esi
  4077d9:	48 89 ef             	mov    %rbp,%rdi
  4077dc:	e8 6f ff ff ff       	callq  407750 <_ZN13Array2DWorkerIfE9setColumnEiPf>
  4077e1:	83 c3 01             	add    $0x1,%ebx
  4077e4:	44 39 e3             	cmp    %r12d,%ebx
  4077e7:	75 df                	jne    4077c8 <_ZN13Array2DWorkerIfE16getColumnSectionEii+0x28>
  4077e9:	5b                   	pop    %rbx
  4077ea:	48 89 e8             	mov    %rbp,%rax
  4077ed:	5d                   	pop    %rbp
  4077ee:	41 5c                	pop    %r12
  4077f0:	41 5d                	pop    %r13
  4077f2:	41 5e                	pop    %r14
  4077f4:	c3                   	retq   
  4077f5:	48 89 c3             	mov    %rax,%rbx
  4077f8:	48 89 ef             	mov    %rbp,%rdi
  4077fb:	e8 e0 fc ff ff       	callq  4074e0 <_ZN13Array2DWorkerIfED1Ev>
  407800:	48 89 df             	mov    %rbx,%rdi
  407803:	e8 18 dd ff ff       	callq  405520 <_Unwind_Resume@plt>
  407808:	0f 1f 84 00 00 00 00 	nopl   0x0(%rax,%rax,1)
  40780f:	00 

0000000000407810 <_ZN13Array2DWorkerIfE9transposeEv>:
  407810:	41 55                	push   %r13
  407812:	49 89 fd             	mov    %rdi,%r13
  407815:	41 54                	push   %r12
  407817:	49 89 f4             	mov    %rsi,%r12
  40781a:	55                   	push   %rbp
  40781b:	53                   	push   %rbx
  40781c:	48 83 ec 08          	sub    $0x8,%rsp
  407820:	8b 56 04             	mov    0x4(%rsi),%edx
  407823:	8b 36                	mov    (%rsi),%esi
  407825:	e8 26 fc ff ff       	callq  407450 <_ZN13Array2DWorkerIfEC1Eii>
  40782a:	41 8b 54 24 04       	mov    0x4(%r12),%edx
  40782f:	85 d2                	test   %edx,%edx
  407831:	7e 40                	jle    407873 <_ZN13Array2DWorkerIfE9transposeEv+0x63>
  407833:	31 ed                	xor    %ebp,%ebp
  407835:	0f 1f 00             	nopl   (%rax)
  407838:	41 8b 04 24          	mov    (%r12),%eax
  40783c:	85 c0                	test   %eax,%eax
  40783e:	7e 29                	jle    407869 <_ZN13Array2DWorkerIfE9transposeEv+0x59>
  407840:	31 db                	xor    %ebx,%ebx
  407842:	66 0f 1f 44 00 00    	nopw   0x0(%rax,%rax,1)
  407848:	89 da                	mov    %ebx,%edx
  40784a:	89 ee                	mov    %ebp,%esi
  40784c:	4c 89 e7             	mov    %r12,%rdi
  40784f:	e8 0c fd ff ff       	callq  407560 <_ZN13Array2DWorkerIfE2atEii>
  407854:	89 ea                	mov    %ebp,%edx
  407856:	89 de                	mov    %ebx,%esi
  407858:	4c 89 ef             	mov    %r13,%rdi
  40785b:	e8 00 fe ff ff       	callq  407660 <_ZN13Array2DWorkerIfE3setEiif>
  407860:	83 c3 01             	add    $0x1,%ebx
  407863:	41 39 1c 24          	cmp    %ebx,(%r12)
  407867:	7f df                	jg     407848 <_ZN13Array2DWorkerIfE9transposeEv+0x38>
  407869:	83 c5 01             	add    $0x1,%ebp
  40786c:	41 39 6c 24 04       	cmp    %ebp,0x4(%r12)
  407871:	7f c5                	jg     407838 <_ZN13Array2DWorkerIfE9transposeEv+0x28>
  407873:	48 83 c4 08          	add    $0x8,%rsp
  407877:	4c 89 e8             	mov    %r13,%rax
  40787a:	5b                   	pop    %rbx
  40787b:	5d                   	pop    %rbp
  40787c:	41 5c                	pop    %r12
  40787e:	41 5d                	pop    %r13
  407880:	c3                   	retq   
  407881:	48 89 c3             	mov    %rax,%rbx
  407884:	4c 89 ef             	mov    %r13,%rdi
  407887:	e8 54 fc ff ff       	callq  4074e0 <_ZN13Array2DWorkerIfED1Ev>
  40788c:	48 89 df             	mov    %rbx,%rdi
  40788f:	e8 8c dc ff ff       	callq  405520 <_Unwind_Resume@plt>
  407894:	66 2e 0f 1f 84 00 00 	nopw   %cs:0x0(%rax,%rax,1)
  40789b:	00 00 00 
  40789e:	66 90                	xchg   %ax,%ax

00000000004078a0 <_ZN13Array2DWorkerIdEC1Ev>:
  4078a0:	48 c7 47 08 00 00 00 	movq   $0x0,0x8(%rdi)
  4078a7:	00 
  4078a8:	c7 47 04 00 00 00 00 	movl   $0x0,0x4(%rdi)
  4078af:	c7 07 00 00 00 00    	movl   $0x0,(%rdi)
  4078b5:	48 c7 47 10 00 00 00 	movq   $0x0,0x10(%rdi)
  4078bc:	00 
  4078bd:	48 c7 47 18 00 00 00 	movq   $0x0,0x18(%rdi)
  4078c4:	00 
  4078c5:	c3                   	retq   
  4078c6:	66 2e 0f 1f 84 00 00 	nopw   %cs:0x0(%rax,%rax,1)
  4078cd:	00 00 00 

00000000004078d0 <_ZN13Array2DWorkerIdEC1Eii>:
  4078d0:	41 56                	push   %r14
  4078d2:	4c 63 f2             	movslq %edx,%r14
  4078d5:	41 55                	push   %r13
  4078d7:	4c 63 ee             	movslq %esi,%r13
  4078da:	44 89 e8             	mov    %r13d,%eax
  4078dd:	41 54                	push   %r12
  4078df:	49 bc 00 00 00 00 00 	movabs $0xfe0000000000000,%r12
  4078e6:	00 e0 0f 
  4078e9:	41 0f af c6          	imul   %r14d,%eax
  4078ed:	55                   	push   %rbp
  4078ee:	48 c7 c5 ff ff ff ff 	mov    $0xffffffffffffffff,%rbp
  4078f5:	48 98                	cltq   
  4078f7:	53                   	push   %rbx
  4078f8:	48 89 fb             	mov    %rdi,%rbx
  4078fb:	44 89 6f 04          	mov    %r13d,0x4(%rdi)
  4078ff:	44 89 37             	mov    %r14d,(%rdi)
  407902:	48 8d 3c c5 00 00 00 	lea    0x0(,%rax,8),%rdi
  407909:	00 
  40790a:	4c 39 e0             	cmp    %r12,%rax
  40790d:	48 0f 47 fd          	cmova  %rbp,%rdi
  407911:	e8 4a da ff ff       	callq  405360 <_Znam@plt>
  407916:	4a 8d 3c f5 00 00 00 	lea    0x0(,%r14,8),%rdi
  40791d:	00 
  40791e:	4d 39 e6             	cmp    %r12,%r14
  407921:	48 89 43 08          	mov    %rax,0x8(%rbx)
  407925:	48 0f 47 fd          	cmova  %rbp,%rdi
  407929:	e8 32 da ff ff       	callq  405360 <_Znam@plt>
  40792e:	4a 8d 3c ed 00 00 00 	lea    0x0(,%r13,8),%rdi
  407935:	00 
  407936:	4d 39 e5             	cmp    %r12,%r13
  407939:	48 89 43 10          	mov    %rax,0x10(%rbx)
  40793d:	48 0f 47 fd          	cmova  %rbp,%rdi
  407941:	e8 1a da ff ff       	callq  405360 <_Znam@plt>
  407946:	48 89 43 18          	mov    %rax,0x18(%rbx)
  40794a:	5b                   	pop    %rbx
  40794b:	5d                   	pop    %rbp
  40794c:	41 5c                	pop    %r12
  40794e:	41 5d                	pop    %r13
  407950:	41 5e                	pop    %r14
  407952:	c3                   	retq   
  407953:	66 2e 0f 1f 84 00 00 	nopw   %cs:0x0(%rax,%rax,1)
  40795a:	00 00 00 
  40795d:	0f 1f 00             	nopl   (%rax)

0000000000407960 <_ZN13Array2DWorkerIdED1Ev>:
  407960:	53                   	push   %rbx
  407961:	48 89 fb             	mov    %rdi,%rbx
  407964:	48 8b 7f 08          	mov    0x8(%rdi),%rdi
  407968:	48 85 ff             	test   %rdi,%rdi
  40796b:	74 05                	je     407972 <_ZN13Array2DWorkerIdED1Ev+0x12>
  40796d:	e8 ee d8 ff ff       	callq  405260 <_ZdaPv@plt>
  407972:	48 8b 7b 10          	mov    0x10(%rbx),%rdi
  407976:	48 85 ff             	test   %rdi,%rdi
  407979:	74 05                	je     407980 <_ZN13Array2DWorkerIdED1Ev+0x20>
  40797b:	e8 e0 d8 ff ff       	callq  405260 <_ZdaPv@plt>
  407980:	48 8b 7b 18          	mov    0x18(%rbx),%rdi
  407984:	48 85 ff             	test   %rdi,%rdi
  407987:	74 05                	je     40798e <_ZN13Array2DWorkerIdED1Ev+0x2e>
  407989:	e8 d2 d8 ff ff       	callq  405260 <_ZdaPv@plt>
  40798e:	c7 43 04 00 00 00 00 	movl   $0x0,0x4(%rbx)
  407995:	c7 03 00 00 00 00    	movl   $0x0,(%rbx)
  40799b:	5b                   	pop    %rbx
  40799c:	c3                   	retq   
  40799d:	0f 1f 00             	nopl   (%rax)

00000000004079a0 <_ZN13Array2DWorkerIdE11getRowCountEv>:
  4079a0:	8b 47 04             	mov    0x4(%rdi),%eax
  4079a3:	c3                   	retq   
  4079a4:	66 2e 0f 1f 84 00 00 	nopw   %cs:0x0(%rax,%rax,1)
  4079ab:	00 00 00 
  4079ae:	66 90                	xchg   %ax,%ax

00000000004079b0 <_ZN13Array2DWorkerIdE14getColumnCountEv>:
  4079b0:	8b 07                	mov    (%rdi),%eax
  4079b2:	c3                   	retq   
  4079b3:	66 2e 0f 1f 84 00 00 	nopw   %cs:0x0(%rax,%rax,1)
  4079ba:	00 00 00 
  4079bd:	0f 1f 00             	nopl   (%rax)

00000000004079c0 <_ZN13Array2DWorkerIdE10getRawDataEv>:
  4079c0:	48 8b 47 08          	mov    0x8(%rdi),%rax
  4079c4:	c3                   	retq   
  4079c5:	66 2e 0f 1f 84 00 00 	nopw   %cs:0x0(%rax,%rax,1)
  4079cc:	00 00 00 
  4079cf:	90                   	nop

00000000004079d0 <_ZNK13Array2DWorkerIdE11getLocationEii>:
  4079d0:	0f af 37             	imul   (%rdi),%esi
  4079d3:	8d 04 16             	lea    (%rsi,%rdx,1),%eax
  4079d6:	c3                   	retq   
  4079d7:	66 0f 1f 84 00 00 00 	nopw   0x0(%rax,%rax,1)
  4079de:	00 00 

00000000004079e0 <_ZN13Array2DWorkerIdE2atEii>:
  4079e0:	53                   	push   %rbx
  4079e1:	48 8b 5f 08          	mov    0x8(%rdi),%rbx
  4079e5:	e8 e6 ff ff ff       	callq  4079d0 <_ZNK13Array2DWorkerIdE11getLocationEii>
  4079ea:	48 98                	cltq   
  4079ec:	f2 0f 10 04 c3       	movsd  (%rbx,%rax,8),%xmm0
  4079f1:	5b                   	pop    %rbx
  4079f2:	c3                   	retq   
  4079f3:	66 2e 0f 1f 84 00 00 	nopw   %cs:0x0(%rax,%rax,1)
  4079fa:	00 00 00 
  4079fd:	0f 1f 00             	nopl   (%rax)

0000000000407a00 <_ZN13Array2DWorkerIdE6getRowEi>:
  407a00:	41 55                	push   %r13
  407a02:	41 89 f5             	mov    %esi,%r13d
  407a05:	41 54                	push   %r12
  407a07:	55                   	push   %rbp
  407a08:	48 89 fd             	mov    %rdi,%rbp
  407a0b:	53                   	push   %rbx
  407a0c:	31 db                	xor    %ebx,%ebx
  407a0e:	48 83 ec 08          	sub    $0x8,%rsp
  407a12:	8b 07                	mov    (%rdi),%eax
  407a14:	85 c0                	test   %eax,%eax
  407a16:	7e 2f                	jle    407a47 <_ZN13Array2DWorkerIdE6getRowEi+0x47>
  407a18:	0f 1f 84 00 00 00 00 	nopl   0x0(%rax,%rax,1)
  407a1f:	00 
  407a20:	48 8b 45 10          	mov    0x10(%rbp),%rax
  407a24:	89 da                	mov    %ebx,%edx
  407a26:	44 89 ee             	mov    %r13d,%esi
  407a29:	48 89 ef             	mov    %rbp,%rdi
  407a2c:	4c 8d 24 d8          	lea    (%rax,%rbx,8),%r12
  407a30:	e8 ab ff ff ff       	callq  4079e0 <_ZN13Array2DWorkerIdE2atEii>
  407a35:	8d 43 01             	lea    0x1(%rbx),%eax
  407a38:	48 83 c3 01          	add    $0x1,%rbx
  407a3c:	39 45 00             	cmp    %eax,0x0(%rbp)
  407a3f:	f2 41 0f 11 04 24    	movsd  %xmm0,(%r12)
  407a45:	7f d9                	jg     407a20 <_ZN13Array2DWorkerIdE6getRowEi+0x20>
  407a47:	48 8b 45 10          	mov    0x10(%rbp),%rax
  407a4b:	48 83 c4 08          	add    $0x8,%rsp
  407a4f:	5b                   	pop    %rbx
  407a50:	5d                   	pop    %rbp
  407a51:	41 5c                	pop    %r12
  407a53:	41 5d                	pop    %r13
  407a55:	c3                   	retq   
  407a56:	66 2e 0f 1f 84 00 00 	nopw   %cs:0x0(%rax,%rax,1)
  407a5d:	00 00 00 

0000000000407a60 <_ZN13Array2DWorkerIdE9getColumnEi>:
  407a60:	41 55                	push   %r13
  407a62:	41 89 f5             	mov    %esi,%r13d
  407a65:	41 54                	push   %r12
  407a67:	55                   	push   %rbp
  407a68:	48 89 fd             	mov    %rdi,%rbp
  407a6b:	53                   	push   %rbx
  407a6c:	31 db                	xor    %ebx,%ebx
  407a6e:	48 83 ec 08          	sub    $0x8,%rsp
  407a72:	8b 47 04             	mov    0x4(%rdi),%eax
  407a75:	85 c0                	test   %eax,%eax
  407a77:	7e 2e                	jle    407aa7 <_ZN13Array2DWorkerIdE9getColumnEi+0x47>
  407a79:	0f 1f 80 00 00 00 00 	nopl   0x0(%rax)
  407a80:	48 8b 45 18          	mov    0x18(%rbp),%rax
  407a84:	89 de                	mov    %ebx,%esi
  407a86:	44 89 ea             	mov    %r13d,%edx
  407a89:	48 89 ef             	mov    %rbp,%rdi
  407a8c:	4c 8d 24 d8          	lea    (%rax,%rbx,8),%r12
  407a90:	e8 4b ff ff ff       	callq  4079e0 <_ZN13Array2DWorkerIdE2atEii>
  407a95:	8d 43 01             	lea    0x1(%rbx),%eax
  407a98:	48 83 c3 01          	add    $0x1,%rbx
  407a9c:	39 45 04             	cmp    %eax,0x4(%rbp)
  407a9f:	f2 41 0f 11 04 24    	movsd  %xmm0,(%r12)
  407aa5:	7f d9                	jg     407a80 <_ZN13Array2DWorkerIdE9getColumnEi+0x20>
  407aa7:	48 8b 45 18          	mov    0x18(%rbp),%rax
  407aab:	48 83 c4 08          	add    $0x8,%rsp
  407aaf:	5b                   	pop    %rbx
  407ab0:	5d                   	pop    %rbp
  407ab1:	41 5c                	pop    %r12
  407ab3:	41 5d                	pop    %r13
  407ab5:	c3                   	retq   
  407ab6:	66 2e 0f 1f 84 00 00 	nopw   %cs:0x0(%rax,%rax,1)
  407abd:	00 00 00 

0000000000407ac0 <_ZNK13Array2DWorkerIdE2atEii>:
  407ac0:	53                   	push   %rbx
  407ac1:	48 8b 5f 08          	mov    0x8(%rdi),%rbx
  407ac5:	e8 06 ff ff ff       	callq  4079d0 <_ZNK13Array2DWorkerIdE11getLocationEii>
  407aca:	48 98                	cltq   
  407acc:	f2 0f 10 04 c3       	movsd  (%rbx,%rax,8),%xmm0
  407ad1:	5b                   	pop    %rbx
  407ad2:	c3                   	retq   
  407ad3:	66 2e 0f 1f 84 00 00 	nopw   %cs:0x0(%rax,%rax,1)
  407ada:	00 00 00 
  407add:	0f 1f 00             	nopl   (%rax)

0000000000407ae0 <_ZN13Array2DWorkerIdE3setEiid>:
  407ae0:	53                   	push   %rbx
  407ae1:	48 83 ec 10          	sub    $0x10,%rsp
  407ae5:	48 8b 5f 08          	mov    0x8(%rdi),%rbx
  407ae9:	f2 0f 11 44 24 08    	movsd  %xmm0,0x8(%rsp)
  407aef:	e8 dc fe ff ff       	callq  4079d0 <_ZNK13Array2DWorkerIdE11getLocationEii>
  407af4:	f2 0f 10 44 24 08    	movsd  0x8(%rsp),%xmm0
  407afa:	48 98                	cltq   
  407afc:	f2 0f 11 04 c3       	movsd  %xmm0,(%rbx,%rax,8)
  407b01:	48 83 c4 10          	add    $0x10,%rsp
  407b05:	5b                   	pop    %rbx
  407b06:	c3                   	retq   
  407b07:	66 0f 1f 84 00 00 00 	nopw   0x0(%rax,%rax,1)
  407b0e:	00 00 

0000000000407b10 <_ZN13Array2DWorkerIdE6setRowEiPd>:
  407b10:	41 55                	push   %r13
  407b12:	41 89 f5             	mov    %esi,%r13d
  407b15:	41 54                	push   %r12
  407b17:	49 89 fc             	mov    %rdi,%r12
  407b1a:	55                   	push   %rbp
  407b1b:	48 89 d5             	mov    %rdx,%rbp
  407b1e:	53                   	push   %rbx
  407b1f:	31 db                	xor    %ebx,%ebx
  407b21:	48 83 ec 08          	sub    $0x8,%rsp
  407b25:	8b 07                	mov    (%rdi),%eax
  407b27:	85 c0                	test   %eax,%eax
  407b29:	7e 24                	jle    407b4f <_ZN13Array2DWorkerIdE6setRowEiPd+0x3f>
  407b2b:	0f 1f 44 00 00       	nopl   0x0(%rax,%rax,1)
  407b30:	f2 0f 10 45 00       	movsd  0x0(%rbp),%xmm0
  407b35:	89 da                	mov    %ebx,%edx
  407b37:	44 89 ee             	mov    %r13d,%esi
  407b3a:	4c 89 e7             	mov    %r12,%rdi
  407b3d:	83 c3 01             	add    $0x1,%ebx
  407b40:	e8 9b ff ff ff       	callq  407ae0 <_ZN13Array2DWorkerIdE3setEiid>
  407b45:	48 83 c5 08          	add    $0x8,%rbp
  407b49:	41 39 1c 24          	cmp    %ebx,(%r12)
  407b4d:	7f e1                	jg     407b30 <_ZN13Array2DWorkerIdE6setRowEiPd+0x20>
  407b4f:	48 83 c4 08          	add    $0x8,%rsp
  407b53:	5b                   	pop    %rbx
  407b54:	5d                   	pop    %rbp
  407b55:	41 5c                	pop    %r12
  407b57:	41 5d                	pop    %r13
  407b59:	c3                   	retq   
  407b5a:	66 0f 1f 44 00 00    	nopw   0x0(%rax,%rax,1)

0000000000407b60 <_ZN13Array2DWorkerIdE13getRowSectionEii>:
  407b60:	41 56                	push   %r14
  407b62:	41 89 d6             	mov    %edx,%r14d
  407b65:	41 55                	push   %r13
  407b67:	49 89 f5             	mov    %rsi,%r13
  407b6a:	41 54                	push   %r12
  407b6c:	41 89 cc             	mov    %ecx,%r12d
  407b6f:	55                   	push   %rbp
  407b70:	48 89 fd             	mov    %rdi,%rbp
  407b73:	53                   	push   %rbx
  407b74:	8b 16                	mov    (%rsi),%edx
  407b76:	89 ce                	mov    %ecx,%esi
  407b78:	31 db                	xor    %ebx,%ebx
  407b7a:	e8 51 fd ff ff       	callq  4078d0 <_ZN13Array2DWorkerIdEC1Eii>
  407b7f:	45 85 e4             	test   %r12d,%r12d
  407b82:	7e 25                	jle    407ba9 <_ZN13Array2DWorkerIdE13getRowSectionEii+0x49>
  407b84:	0f 1f 40 00          	nopl   0x0(%rax)
  407b88:	42 8d 34 33          	lea    (%rbx,%r14,1),%esi
  407b8c:	4c 89 ef             	mov    %r13,%rdi
  407b8f:	e8 6c fe ff ff       	callq  407a00 <_ZN13Array2DWorkerIdE6getRowEi>
  407b94:	48 89 c2             	mov    %rax,%rdx
  407b97:	89 de                	mov    %ebx,%esi
  407b99:	48 89 ef             	mov    %rbp,%rdi
  407b9c:	e8 6f ff ff ff       	callq  407b10 <_ZN13Array2DWorkerIdE6setRowEiPd>
  407ba1:	83 c3 01             	add    $0x1,%ebx
  407ba4:	44 39 e3             	cmp    %r12d,%ebx
  407ba7:	75 df                	jne    407b88 <_ZN13Array2DWorkerIdE13getRowSectionEii+0x28>
  407ba9:	5b                   	pop    %rbx
  407baa:	48 89 e8             	mov    %rbp,%rax
  407bad:	5d                   	pop    %rbp
  407bae:	41 5c                	pop    %r12
  407bb0:	41 5d                	pop    %r13
  407bb2:	41 5e                	pop    %r14
  407bb4:	c3                   	retq   
  407bb5:	48 89 c3             	mov    %rax,%rbx
  407bb8:	48 89 ef             	mov    %rbp,%rdi
  407bbb:	e8 a0 fd ff ff       	callq  407960 <_ZN13Array2DWorkerIdED1Ev>
  407bc0:	48 89 df             	mov    %rbx,%rdi
  407bc3:	e8 58 d9 ff ff       	callq  405520 <_Unwind_Resume@plt>
  407bc8:	0f 1f 84 00 00 00 00 	nopl   0x0(%rax,%rax,1)
  407bcf:	00 

0000000000407bd0 <_ZN13Array2DWorkerIdE9setColumnEiPd>:
  407bd0:	41 55                	push   %r13
  407bd2:	41 89 f5             	mov    %esi,%r13d
  407bd5:	41 54                	push   %r12
  407bd7:	49 89 fc             	mov    %rdi,%r12
  407bda:	55                   	push   %rbp
  407bdb:	48 89 d5             	mov    %rdx,%rbp
  407bde:	53                   	push   %rbx
  407bdf:	31 db                	xor    %ebx,%ebx
  407be1:	48 83 ec 08          	sub    $0x8,%rsp
  407be5:	8b 47 04             	mov    0x4(%rdi),%eax
  407be8:	85 c0                	test   %eax,%eax
  407bea:	7e 24                	jle    407c10 <_ZN13Array2DWorkerIdE9setColumnEiPd+0x40>
  407bec:	0f 1f 40 00          	nopl   0x0(%rax)
  407bf0:	f2 0f 10 45 00       	movsd  0x0(%rbp),%xmm0
  407bf5:	89 de                	mov    %ebx,%esi
  407bf7:	44 89 ea             	mov    %r13d,%edx
  407bfa:	4c 89 e7             	mov    %r12,%rdi
  407bfd:	83 c3 01             	add    $0x1,%ebx
  407c00:	e8 db fe ff ff       	callq  407ae0 <_ZN13Array2DWorkerIdE3setEiid>
  407c05:	48 83 c5 08          	add    $0x8,%rbp
  407c09:	41 39 5c 24 04       	cmp    %ebx,0x4(%r12)
  407c0e:	7f e0                	jg     407bf0 <_ZN13Array2DWorkerIdE9setColumnEiPd+0x20>
  407c10:	48 83 c4 08          	add    $0x8,%rsp
  407c14:	5b                   	pop    %rbx
  407c15:	5d                   	pop    %rbp
  407c16:	41 5c                	pop    %r12
  407c18:	41 5d                	pop    %r13
  407c1a:	c3                   	retq   
  407c1b:	0f 1f 44 00 00       	nopl   0x0(%rax,%rax,1)

0000000000407c20 <_ZN13Array2DWorkerIdE16getColumnSectionEii>:
  407c20:	41 56                	push   %r14
  407c22:	41 89 d6             	mov    %edx,%r14d
  407c25:	89 ca                	mov    %ecx,%edx
  407c27:	41 55                	push   %r13
  407c29:	49 89 f5             	mov    %rsi,%r13
  407c2c:	41 54                	push   %r12
  407c2e:	41 89 cc             	mov    %ecx,%r12d
  407c31:	55                   	push   %rbp
  407c32:	48 89 fd             	mov    %rdi,%rbp
  407c35:	53                   	push   %rbx
  407c36:	8b 76 04             	mov    0x4(%rsi),%esi
  407c39:	31 db                	xor    %ebx,%ebx
  407c3b:	e8 90 fc ff ff       	callq  4078d0 <_ZN13Array2DWorkerIdEC1Eii>
  407c40:	45 85 e4             	test   %r12d,%r12d
  407c43:	7e 24                	jle    407c69 <_ZN13Array2DWorkerIdE16getColumnSectionEii+0x49>
  407c45:	0f 1f 00             	nopl   (%rax)
  407c48:	42 8d 34 33          	lea    (%rbx,%r14,1),%esi
  407c4c:	4c 89 ef             	mov    %r13,%rdi
  407c4f:	e8 0c fe ff ff       	callq  407a60 <_ZN13Array2DWorkerIdE9getColumnEi>
  407c54:	48 89 c2             	mov    %rax,%rdx
  407c57:	89 de                	mov    %ebx,%esi
  407c59:	48 89 ef             	mov    %rbp,%rdi
  407c5c:	e8 6f ff ff ff       	callq  407bd0 <_ZN13Array2DWorkerIdE9setColumnEiPd>
  407c61:	83 c3 01             	add    $0x1,%ebx
  407c64:	44 39 e3             	cmp    %r12d,%ebx
  407c67:	75 df                	jne    407c48 <_ZN13Array2DWorkerIdE16getColumnSectionEii+0x28>
  407c69:	5b                   	pop    %rbx
  407c6a:	48 89 e8             	mov    %rbp,%rax
  407c6d:	5d                   	pop    %rbp
  407c6e:	41 5c                	pop    %r12
  407c70:	41 5d                	pop    %r13
  407c72:	41 5e                	pop    %r14
  407c74:	c3                   	retq   
  407c75:	48 89 c3             	mov    %rax,%rbx
  407c78:	48 89 ef             	mov    %rbp,%rdi
  407c7b:	e8 e0 fc ff ff       	callq  407960 <_ZN13Array2DWorkerIdED1Ev>
  407c80:	48 89 df             	mov    %rbx,%rdi
  407c83:	e8 98 d8 ff ff       	callq  405520 <_Unwind_Resume@plt>
  407c88:	0f 1f 84 00 00 00 00 	nopl   0x0(%rax,%rax,1)
  407c8f:	00 

0000000000407c90 <_ZN13Array2DWorkerIdE9transposeEv>:
  407c90:	41 55                	push   %r13
  407c92:	49 89 fd             	mov    %rdi,%r13
  407c95:	41 54                	push   %r12
  407c97:	49 89 f4             	mov    %rsi,%r12
  407c9a:	55                   	push   %rbp
  407c9b:	53                   	push   %rbx
  407c9c:	48 83 ec 08          	sub    $0x8,%rsp
  407ca0:	8b 56 04             	mov    0x4(%rsi),%edx
  407ca3:	8b 36                	mov    (%rsi),%esi
  407ca5:	e8 26 fc ff ff       	callq  4078d0 <_ZN13Array2DWorkerIdEC1Eii>
  407caa:	41 8b 54 24 04       	mov    0x4(%r12),%edx
  407caf:	85 d2                	test   %edx,%edx
  407cb1:	7e 40                	jle    407cf3 <_ZN13Array2DWorkerIdE9transposeEv+0x63>
  407cb3:	31 ed                	xor    %ebp,%ebp
  407cb5:	0f 1f 00             	nopl   (%rax)
  407cb8:	41 8b 04 24          	mov    (%r12),%eax
  407cbc:	85 c0                	test   %eax,%eax
  407cbe:	7e 29                	jle    407ce9 <_ZN13Array2DWorkerIdE9transposeEv+0x59>
  407cc0:	31 db                	xor    %ebx,%ebx
  407cc2:	66 0f 1f 44 00 00    	nopw   0x0(%rax,%rax,1)
  407cc8:	89 da                	mov    %ebx,%edx
  407cca:	89 ee                	mov    %ebp,%esi
  407ccc:	4c 89 e7             	mov    %r12,%rdi
  407ccf:	e8 0c fd ff ff       	callq  4079e0 <_ZN13Array2DWorkerIdE2atEii>
  407cd4:	89 ea                	mov    %ebp,%edx
  407cd6:	89 de                	mov    %ebx,%esi
  407cd8:	4c 89 ef             	mov    %r13,%rdi
  407cdb:	e8 00 fe ff ff       	callq  407ae0 <_ZN13Array2DWorkerIdE3setEiid>
  407ce0:	83 c3 01             	add    $0x1,%ebx
  407ce3:	41 39 1c 24          	cmp    %ebx,(%r12)
  407ce7:	7f df                	jg     407cc8 <_ZN13Array2DWorkerIdE9transposeEv+0x38>
  407ce9:	83 c5 01             	add    $0x1,%ebp
  407cec:	41 39 6c 24 04       	cmp    %ebp,0x4(%r12)
  407cf1:	7f c5                	jg     407cb8 <_ZN13Array2DWorkerIdE9transposeEv+0x28>
  407cf3:	48 83 c4 08          	add    $0x8,%rsp
  407cf7:	4c 89 e8             	mov    %r13,%rax
  407cfa:	5b                   	pop    %rbx
  407cfb:	5d                   	pop    %rbp
  407cfc:	41 5c                	pop    %r12
  407cfe:	41 5d                	pop    %r13
  407d00:	c3                   	retq   
  407d01:	48 89 c3             	mov    %rax,%rbx
  407d04:	4c 89 ef             	mov    %r13,%rdi
  407d07:	e8 54 fc ff ff       	callq  407960 <_ZN13Array2DWorkerIdED1Ev>
  407d0c:	48 89 df             	mov    %rbx,%rdi
  407d0f:	e8 0c d8 ff ff       	callq  405520 <_Unwind_Resume@plt>
  407d14:	66 2e 0f 1f 84 00 00 	nopw   %cs:0x0(%rax,%rax,1)
  407d1b:	00 00 00 
  407d1e:	66 90                	xchg   %ax,%ax

0000000000407d20 <_ZN21CircularArray2DWorkerIiEC1Ev>:
  407d20:	53                   	push   %rbx
  407d21:	48 89 fb             	mov    %rdi,%rbx
  407d24:	e8 87 f2 ff ff       	callq  406fb0 <_ZN13Array2DWorkerIiEC1Ev>
  407d29:	c7 43 20 00 00 00 00 	movl   $0x0,0x20(%rbx)
  407d30:	c7 43 24 00 00 00 00 	movl   $0x0,0x24(%rbx)
  407d37:	c7 43 28 00 00 00 00 	movl   $0x0,0x28(%rbx)
  407d3e:	5b                   	pop    %rbx
  407d3f:	c3                   	retq   

0000000000407d40 <_ZN21CircularArray2DWorkerIiEC1Eii>:
  407d40:	55                   	push   %rbp
  407d41:	89 d5                	mov    %edx,%ebp
  407d43:	53                   	push   %rbx
  407d44:	48 89 fb             	mov    %rdi,%rbx
  407d47:	48 83 ec 08          	sub    $0x8,%rsp
  407d4b:	e8 90 f2 ff ff       	callq  406fe0 <_ZN13Array2DWorkerIiEC1Eii>
  407d50:	89 6b 24             	mov    %ebp,0x24(%rbx)
  407d53:	c7 43 20 00 00 00 00 	movl   $0x0,0x20(%rbx)
  407d5a:	c7 43 28 00 00 00 00 	movl   $0x0,0x28(%rbx)
  407d61:	48 83 c4 08          	add    $0x8,%rsp
  407d65:	5b                   	pop    %rbx
  407d66:	5d                   	pop    %rbp
  407d67:	c3                   	retq   
  407d68:	0f 1f 84 00 00 00 00 	nopl   0x0(%rax,%rax,1)
  407d6f:	00 

0000000000407d70 <_ZN21CircularArray2DWorkerIiED1Ev>:
  407d70:	c7 47 20 00 00 00 00 	movl   $0x0,0x20(%rdi)
  407d77:	c7 47 24 00 00 00 00 	movl   $0x0,0x24(%rdi)
  407d7e:	c7 47 28 00 00 00 00 	movl   $0x0,0x28(%rdi)
  407d85:	e9 e6 f2 ff ff       	jmpq   407070 <_ZN13Array2DWorkerIiED1Ev>
  407d8a:	66 0f 1f 44 00 00    	nopw   0x0(%rax,%rax,1)

0000000000407d90 <_ZN21CircularArray2DWorkerIiE10pushColumnEPi>:
  407d90:	55                   	push   %rbp
  407d91:	48 89 f2             	mov    %rsi,%rdx
  407d94:	53                   	push   %rbx
  407d95:	48 89 fb             	mov    %rdi,%rbx
  407d98:	48 83 ec 08          	sub    $0x8,%rsp
  407d9c:	8b 77 20             	mov    0x20(%rdi),%esi
  407d9f:	e8 2c f5 ff ff       	callq  4072d0 <_ZN13Array2DWorkerIiE9setColumnEiPi>
  407da4:	8b 6b 20             	mov    0x20(%rbx),%ebp
  407da7:	48 89 df             	mov    %rbx,%rdi
  407daa:	e8 11 f3 ff ff       	callq  4070c0 <_ZN13Array2DWorkerIiE14getColumnCountEv>
  407daf:	83 e8 01             	sub    $0x1,%eax
  407db2:	39 c5                	cmp    %eax,%ebp
  407db4:	7c 1a                	jl     407dd0 <_ZN21CircularArray2DWorkerIiE10pushColumnEPi+0x40>
  407db6:	83 43 28 01          	addl   $0x1,0x28(%rbx)
  407dba:	c7 43 20 00 00 00 00 	movl   $0x0,0x20(%rbx)
  407dc1:	48 83 c4 08          	add    $0x8,%rsp
  407dc5:	5b                   	pop    %rbx
  407dc6:	5d                   	pop    %rbp
  407dc7:	c3                   	retq   
  407dc8:	0f 1f 84 00 00 00 00 	nopl   0x0(%rax,%rax,1)
  407dcf:	00 
  407dd0:	8b 6b 20             	mov    0x20(%rbx),%ebp
  407dd3:	48 89 df             	mov    %rbx,%rdi
  407dd6:	e8 e5 f2 ff ff       	callq  4070c0 <_ZN13Array2DWorkerIiE14getColumnCountEv>
  407ddb:	39 c5                	cmp    %eax,%ebp
  407ddd:	7d e2                	jge    407dc1 <_ZN21CircularArray2DWorkerIiE10pushColumnEPi+0x31>
  407ddf:	83 43 20 01          	addl   $0x1,0x20(%rbx)
  407de3:	48 83 c4 08          	add    $0x8,%rsp
  407de7:	5b                   	pop    %rbx
  407de8:	5d                   	pop    %rbp
  407de9:	c3                   	retq   
  407dea:	66 0f 1f 44 00 00    	nopw   0x0(%rax,%rax,1)

0000000000407df0 <_ZN21CircularArray2DWorkerIiE9pushArrayE13Array2DWorkerIiE>:
  407df0:	41 54                	push   %r12
  407df2:	49 89 fc             	mov    %rdi,%r12
  407df5:	55                   	push   %rbp
  407df6:	48 89 f5             	mov    %rsi,%rbp
  407df9:	53                   	push   %rbx
  407dfa:	31 db                	xor    %ebx,%ebx
  407dfc:	eb 1a                	jmp    407e18 <_ZN21CircularArray2DWorkerIiE9pushArrayE13Array2DWorkerIiE+0x28>
  407dfe:	66 90                	xchg   %ax,%ax
  407e00:	89 de                	mov    %ebx,%esi
  407e02:	48 89 ef             	mov    %rbp,%rdi
  407e05:	83 c3 01             	add    $0x1,%ebx
  407e08:	e8 63 f3 ff ff       	callq  407170 <_ZN13Array2DWorkerIiE9getColumnEi>
  407e0d:	4c 89 e7             	mov    %r12,%rdi
  407e10:	48 89 c6             	mov    %rax,%rsi
  407e13:	e8 78 ff ff ff       	callq  407d90 <_ZN21CircularArray2DWorkerIiE10pushColumnEPi>
  407e18:	48 89 ef             	mov    %rbp,%rdi
  407e1b:	e8 a0 f2 ff ff       	callq  4070c0 <_ZN13Array2DWorkerIiE14getColumnCountEv>
  407e20:	39 c3                	cmp    %eax,%ebx
  407e22:	7c dc                	jl     407e00 <_ZN21CircularArray2DWorkerIiE9pushArrayE13Array2DWorkerIiE+0x10>
  407e24:	5b                   	pop    %rbx
  407e25:	5d                   	pop    %rbp
  407e26:	41 5c                	pop    %r12
  407e28:	c3                   	retq   
  407e29:	0f 1f 80 00 00 00 00 	nopl   0x0(%rax)

0000000000407e30 <_ZN21CircularArray2DWorkerIiE26getCurrentColumnWriteIndexEv>:
  407e30:	8b 47 20             	mov    0x20(%rdi),%eax
  407e33:	c3                   	retq   
  407e34:	66 2e 0f 1f 84 00 00 	nopw   %cs:0x0(%rax,%rax,1)
  407e3b:	00 00 00 
  407e3e:	66 90                	xchg   %ax,%ax

0000000000407e40 <_ZN21CircularArray2DWorkerIiE25getCurrentColumnReadIndexEv>:
  407e40:	8b 47 24             	mov    0x24(%rdi),%eax
  407e43:	c3                   	retq   
  407e44:	66 2e 0f 1f 84 00 00 	nopw   %cs:0x0(%rax,%rax,1)
  407e4b:	00 00 00 
  407e4e:	66 90                	xchg   %ax,%ax

0000000000407e50 <_ZN21CircularArray2DWorkerIiE26setCurrentColumnWriteIndexEi>:
  407e50:	89 77 20             	mov    %esi,0x20(%rdi)
  407e53:	c3                   	retq   
  407e54:	66 2e 0f 1f 84 00 00 	nopw   %cs:0x0(%rax,%rax,1)
  407e5b:	00 00 00 
  407e5e:	66 90                	xchg   %ax,%ax

0000000000407e60 <_ZN21CircularArray2DWorkerIiE25setCurrentColumnReadIndexEi>:
  407e60:	89 77 24             	mov    %esi,0x24(%rdi)
  407e63:	c3                   	retq   
  407e64:	66 2e 0f 1f 84 00 00 	nopw   %cs:0x0(%rax,%rax,1)
  407e6b:	00 00 00 
  407e6e:	66 90                	xchg   %ax,%ax

0000000000407e70 <_ZN21CircularArray2DWorkerIiE14getRefillCountEv>:
  407e70:	8b 47 28             	mov    0x28(%rdi),%eax
  407e73:	c3                   	retq   
  407e74:	66 2e 0f 1f 84 00 00 	nopw   %cs:0x0(%rax,%rax,1)
  407e7b:	00 00 00 
  407e7e:	66 90                	xchg   %ax,%ax

0000000000407e80 <_ZN21CircularArray2DWorkerIiE9popColumnEv>:
  407e80:	55                   	push   %rbp
  407e81:	53                   	push   %rbx
  407e82:	48 89 fb             	mov    %rdi,%rbx
  407e85:	48 83 ec 08          	sub    $0x8,%rsp
  407e89:	8b 6f 24             	mov    0x24(%rdi),%ebp
  407e8c:	e8 2f f2 ff ff       	callq  4070c0 <_ZN13Array2DWorkerIiE14getColumnCountEv>
  407e91:	83 e8 01             	sub    $0x1,%eax
  407e94:	39 c5                	cmp    %eax,%ebp
  407e96:	7c 18                	jl     407eb0 <_ZN21CircularArray2DWorkerIiE9popColumnEv+0x30>
  407e98:	c7 43 24 00 00 00 00 	movl   $0x0,0x24(%rbx)
  407e9f:	48 83 c4 08          	add    $0x8,%rsp
  407ea3:	48 89 df             	mov    %rbx,%rdi
  407ea6:	5b                   	pop    %rbx
  407ea7:	5d                   	pop    %rbp
  407ea8:	31 f6                	xor    %esi,%esi
  407eaa:	e9 c1 f2 ff ff       	jmpq   407170 <_ZN13Array2DWorkerIiE9getColumnEi>
  407eaf:	90                   	nop
  407eb0:	8b 6b 24             	mov    0x24(%rbx),%ebp
  407eb3:	48 89 df             	mov    %rbx,%rdi
  407eb6:	e8 05 f2 ff ff       	callq  4070c0 <_ZN13Array2DWorkerIiE14getColumnCountEv>
  407ebb:	39 c5                	cmp    %eax,%ebp
  407ebd:	7d 21                	jge    407ee0 <_ZN21CircularArray2DWorkerIiE9popColumnEv+0x60>
  407ebf:	8b 43 24             	mov    0x24(%rbx),%eax
  407ec2:	48 89 df             	mov    %rbx,%rdi
  407ec5:	8d 70 01             	lea    0x1(%rax),%esi
  407ec8:	89 73 24             	mov    %esi,0x24(%rbx)
  407ecb:	48 83 c4 08          	add    $0x8,%rsp
  407ecf:	5b                   	pop    %rbx
  407ed0:	5d                   	pop    %rbp
  407ed1:	e9 9a f2 ff ff       	jmpq   407170 <_ZN13Array2DWorkerIiE9getColumnEi>
  407ed6:	66 2e 0f 1f 84 00 00 	nopw   %cs:0x0(%rax,%rax,1)
  407edd:	00 00 00 
  407ee0:	8b 73 24             	mov    0x24(%rbx),%esi
  407ee3:	48 83 c4 08          	add    $0x8,%rsp
  407ee7:	48 89 df             	mov    %rbx,%rdi
  407eea:	5b                   	pop    %rbx
  407eeb:	5d                   	pop    %rbp
  407eec:	e9 7f f2 ff ff       	jmpq   407170 <_ZN13Array2DWorkerIiE9getColumnEi>
  407ef1:	66 2e 0f 1f 84 00 00 	nopw   %cs:0x0(%rax,%rax,1)
  407ef8:	00 00 00 
  407efb:	0f 1f 44 00 00       	nopl   0x0(%rax,%rax,1)

0000000000407f00 <_ZN21CircularArray2DWorkerIiE16popColumnSectionEiP13Array2DWorkerIiE>:
  407f00:	41 55                	push   %r13
  407f02:	49 89 fd             	mov    %rdi,%r13
  407f05:	41 54                	push   %r12
  407f07:	49 89 d4             	mov    %rdx,%r12
  407f0a:	55                   	push   %rbp
  407f0b:	89 f5                	mov    %esi,%ebp
  407f0d:	53                   	push   %rbx
  407f0e:	31 db                	xor    %ebx,%ebx
  407f10:	48 83 ec 08          	sub    $0x8,%rsp
  407f14:	85 f6                	test   %esi,%esi
  407f16:	7e 24                	jle    407f3c <_ZN21CircularArray2DWorkerIiE16popColumnSectionEiP13Array2DWorkerIiE+0x3c>
  407f18:	0f 1f 84 00 00 00 00 	nopl   0x0(%rax,%rax,1)
  407f1f:	00 
  407f20:	4c 89 ef             	mov    %r13,%rdi
  407f23:	e8 58 ff ff ff       	callq  407e80 <_ZN21CircularArray2DWorkerIiE9popColumnEv>
  407f28:	89 de                	mov    %ebx,%esi
  407f2a:	48 89 c2             	mov    %rax,%rdx
  407f2d:	4c 89 e7             	mov    %r12,%rdi
  407f30:	83 c3 01             	add    $0x1,%ebx
  407f33:	e8 98 f3 ff ff       	callq  4072d0 <_ZN13Array2DWorkerIiE9setColumnEiPi>
  407f38:	39 eb                	cmp    %ebp,%ebx
  407f3a:	75 e4                	jne    407f20 <_ZN21CircularArray2DWorkerIiE16popColumnSectionEiP13Array2DWorkerIiE+0x20>
  407f3c:	48 83 c4 08          	add    $0x8,%rsp
  407f40:	5b                   	pop    %rbx
  407f41:	5d                   	pop    %rbp
  407f42:	41 5c                	pop    %r12
  407f44:	41 5d                	pop    %r13
  407f46:	c3                   	retq   
  407f47:	66 0f 1f 84 00 00 00 	nopw   0x0(%rax,%rax,1)
  407f4e:	00 00 

0000000000407f50 <_ZN21CircularArray2DWorkerIiE24incrementColumnReadIndexEv>:
  407f50:	55                   	push   %rbp
  407f51:	53                   	push   %rbx
  407f52:	48 89 fb             	mov    %rdi,%rbx
  407f55:	48 83 ec 08          	sub    $0x8,%rsp
  407f59:	8b 6f 24             	mov    0x24(%rdi),%ebp
  407f5c:	e8 5f f1 ff ff       	callq  4070c0 <_ZN13Array2DWorkerIiE14getColumnCountEv>
  407f61:	83 e8 01             	sub    $0x1,%eax
  407f64:	39 c5                	cmp    %eax,%ebp
  407f66:	7d 10                	jge    407f78 <_ZN21CircularArray2DWorkerIiE24incrementColumnReadIndexEv+0x28>
  407f68:	83 43 24 01          	addl   $0x1,0x24(%rbx)
  407f6c:	48 83 c4 08          	add    $0x8,%rsp
  407f70:	5b                   	pop    %rbx
  407f71:	5d                   	pop    %rbp
  407f72:	c3                   	retq   
  407f73:	0f 1f 44 00 00       	nopl   0x0(%rax,%rax,1)
  407f78:	c7 43 24 00 00 00 00 	movl   $0x0,0x24(%rbx)
  407f7f:	48 83 c4 08          	add    $0x8,%rsp
  407f83:	5b                   	pop    %rbx
  407f84:	5d                   	pop    %rbp
  407f85:	c3                   	retq   
  407f86:	66 2e 0f 1f 84 00 00 	nopw   %cs:0x0(%rax,%rax,1)
  407f8d:	00 00 00 

0000000000407f90 <_ZN21CircularArray2DWorkerIiE25incrementColumnWriteIndexEv>:
  407f90:	55                   	push   %rbp
  407f91:	53                   	push   %rbx
  407f92:	48 89 fb             	mov    %rdi,%rbx
  407f95:	48 83 ec 08          	sub    $0x8,%rsp
  407f99:	8b 6f 20             	mov    0x20(%rdi),%ebp
  407f9c:	e8 1f f1 ff ff       	callq  4070c0 <_ZN13Array2DWorkerIiE14getColumnCountEv>
  407fa1:	83 e8 01             	sub    $0x1,%eax
  407fa4:	39 c5                	cmp    %eax,%ebp
  407fa6:	7d 10                	jge    407fb8 <_ZN21CircularArray2DWorkerIiE25incrementColumnWriteIndexEv+0x28>
  407fa8:	83 43 20 01          	addl   $0x1,0x20(%rbx)
  407fac:	48 83 c4 08          	add    $0x8,%rsp
  407fb0:	5b                   	pop    %rbx
  407fb1:	5d                   	pop    %rbp
  407fb2:	c3                   	retq   
  407fb3:	0f 1f 44 00 00       	nopl   0x0(%rax,%rax,1)
  407fb8:	c7 43 20 00 00 00 00 	movl   $0x0,0x20(%rbx)
  407fbf:	48 83 c4 08          	add    $0x8,%rsp
  407fc3:	5b                   	pop    %rbx
  407fc4:	5d                   	pop    %rbp
  407fc5:	c3                   	retq   
  407fc6:	66 2e 0f 1f 84 00 00 	nopw   %cs:0x0(%rax,%rax,1)
  407fcd:	00 00 00 

0000000000407fd0 <_ZN21CircularArray2DWorkerIiE24decrementColumnReadIndexEv>:
  407fd0:	8b 47 24             	mov    0x24(%rdi),%eax
  407fd3:	53                   	push   %rbx
  407fd4:	48 89 fb             	mov    %rdi,%rbx
  407fd7:	85 c0                	test   %eax,%eax
  407fd9:	7e 0d                	jle    407fe8 <_ZN21CircularArray2DWorkerIiE24decrementColumnReadIndexEv+0x18>
  407fdb:	83 e8 01             	sub    $0x1,%eax
  407fde:	89 43 24             	mov    %eax,0x24(%rbx)
  407fe1:	5b                   	pop    %rbx
  407fe2:	c3                   	retq   
  407fe3:	0f 1f 44 00 00       	nopl   0x0(%rax,%rax,1)
  407fe8:	e8 d3 f0 ff ff       	callq  4070c0 <_ZN13Array2DWorkerIiE14getColumnCountEv>
  407fed:	83 e8 01             	sub    $0x1,%eax
  407ff0:	89 43 24             	mov    %eax,0x24(%rbx)
  407ff3:	5b                   	pop    %rbx
  407ff4:	c3                   	retq   
  407ff5:	66 2e 0f 1f 84 00 00 	nopw   %cs:0x0(%rax,%rax,1)
  407ffc:	00 00 00 
  407fff:	90                   	nop

0000000000408000 <_ZN21CircularArray2DWorkerIiE25decrementColumnWriteIndexEv>:
  408000:	8b 47 20             	mov    0x20(%rdi),%eax
  408003:	53                   	push   %rbx
  408004:	48 89 fb             	mov    %rdi,%rbx
  408007:	85 c0                	test   %eax,%eax
  408009:	7e 0d                	jle    408018 <_ZN21CircularArray2DWorkerIiE25decrementColumnWriteIndexEv+0x18>
  40800b:	83 e8 01             	sub    $0x1,%eax
  40800e:	89 43 20             	mov    %eax,0x20(%rbx)
  408011:	5b                   	pop    %rbx
  408012:	c3                   	retq   
  408013:	0f 1f 44 00 00       	nopl   0x0(%rax,%rax,1)
  408018:	e8 a3 f0 ff ff       	callq  4070c0 <_ZN13Array2DWorkerIiE14getColumnCountEv>
  40801d:	83 e8 01             	sub    $0x1,%eax
  408020:	89 43 20             	mov    %eax,0x20(%rbx)
  408023:	5b                   	pop    %rbx
  408024:	c3                   	retq   
  408025:	66 2e 0f 1f 84 00 00 	nopw   %cs:0x0(%rax,%rax,1)
  40802c:	00 00 00 
  40802f:	90                   	nop

0000000000408030 <_ZN21CircularArray2DWorkerIiE8toStringEv>:
  408030:	41 55                	push   %r13
  408032:	45 31 ed             	xor    %r13d,%r13d
  408035:	41 54                	push   %r12
  408037:	55                   	push   %rbp
  408038:	48 89 fd             	mov    %rdi,%rbp
  40803b:	48 89 ef             	mov    %rbp,%rdi
  40803e:	53                   	push   %rbx
  40803f:	48 83 ec 08          	sub    $0x8,%rsp
  408043:	e8 68 f0 ff ff       	callq  4070b0 <_ZN13Array2DWorkerIiE11getRowCountEv>
  408048:	41 39 c5             	cmp    %eax,%r13d
  40804b:	0f 8d 98 00 00 00    	jge    4080e9 <_ZN21CircularArray2DWorkerIiE8toStringEv+0xb9>
  408051:	0f 1f 80 00 00 00 00 	nopl   0x0(%rax)
  408058:	31 db                	xor    %ebx,%ebx
  40805a:	4c 8b 25 77 df 20 00 	mov    0x20df77(%rip),%r12        # 615fd8 <_DYNAMIC+0x248>
  408061:	eb 33                	jmp    408096 <_ZN21CircularArray2DWorkerIiE8toStringEv+0x66>
  408063:	0f 1f 44 00 00       	nopl   0x0(%rax,%rax,1)
  408068:	89 da                	mov    %ebx,%edx
  40806a:	44 89 ee             	mov    %r13d,%esi
  40806d:	48 89 ef             	mov    %rbp,%rdi
  408070:	e8 7b f0 ff ff       	callq  4070f0 <_ZN13Array2DWorkerIiE2atEii>
  408075:	4c 89 e7             	mov    %r12,%rdi
  408078:	89 c6                	mov    %eax,%esi
  40807a:	83 c3 01             	add    $0x1,%ebx
  40807d:	e8 6e d1 ff ff       	callq  4051f0 <_ZNSolsEi@plt>
  408082:	48 8d 35 9b 6a 00 00 	lea    0x6a9b(%rip),%rsi        # 40eb24 <_IO_stdin_used+0xe4>
  408089:	ba 01 00 00 00       	mov    $0x1,%edx
  40808e:	48 89 c7             	mov    %rax,%rdi
  408091:	e8 7a d8 ff ff       	callq  405910 <_ZSt16__ostream_insertIcSt11char_traitsIcEERSt13basic_ostreamIT_T0_ES6_PKS3_l@plt>
  408096:	48 89 ef             	mov    %rbp,%rdi
  408099:	e8 22 f0 ff ff       	callq  4070c0 <_ZN13Array2DWorkerIiE14getColumnCountEv>
  40809e:	39 c3                	cmp    %eax,%ebx
  4080a0:	7c c6                	jl     408068 <_ZN21CircularArray2DWorkerIiE8toStringEv+0x38>
  4080a2:	49 8b 04 24          	mov    (%r12),%rax
  4080a6:	48 8b 40 e8          	mov    -0x18(%rax),%rax
  4080aa:	4a 8b 9c 20 f0 00 00 	mov    0xf0(%rax,%r12,1),%rbx
  4080b1:	00 
  4080b2:	48 85 db             	test   %rbx,%rbx
  4080b5:	74 59                	je     408110 <_ZN21CircularArray2DWorkerIiE8toStringEv+0xe0>
  4080b7:	80 7b 38 00          	cmpb   $0x0,0x38(%rbx)
  4080bb:	74 3b                	je     4080f8 <_ZN21CircularArray2DWorkerIiE8toStringEv+0xc8>
  4080bd:	0f b6 43 43          	movzbl 0x43(%rbx),%eax
  4080c1:	0f be f0             	movsbl %al,%esi
  4080c4:	4c 89 e7             	mov    %r12,%rdi
  4080c7:	41 83 c5 01          	add    $0x1,%r13d
  4080cb:	e8 60 d3 ff ff       	callq  405430 <_ZNSo3putEc@plt>
  4080d0:	48 89 c7             	mov    %rax,%rdi
  4080d3:	e8 d8 d2 ff ff       	callq  4053b0 <_ZNSo5flushEv@plt>
  4080d8:	48 89 ef             	mov    %rbp,%rdi
  4080db:	e8 d0 ef ff ff       	callq  4070b0 <_ZN13Array2DWorkerIiE11getRowCountEv>
  4080e0:	41 39 c5             	cmp    %eax,%r13d
  4080e3:	0f 8c 6f ff ff ff    	jl     408058 <_ZN21CircularArray2DWorkerIiE8toStringEv+0x28>
  4080e9:	48 83 c4 08          	add    $0x8,%rsp
  4080ed:	5b                   	pop    %rbx
  4080ee:	5d                   	pop    %rbp
  4080ef:	41 5c                	pop    %r12
  4080f1:	41 5d                	pop    %r13
  4080f3:	c3                   	retq   
  4080f4:	0f 1f 40 00          	nopl   0x0(%rax)
  4080f8:	48 89 df             	mov    %rbx,%rdi
  4080fb:	e8 a0 d2 ff ff       	callq  4053a0 <_ZNKSt5ctypeIcE13_M_widen_initEv@plt>
  408100:	48 8b 03             	mov    (%rbx),%rax
  408103:	be 0a 00 00 00       	mov    $0xa,%esi
  408108:	48 89 df             	mov    %rbx,%rdi
  40810b:	ff 50 30             	callq  *0x30(%rax)
  40810e:	eb b1                	jmp    4080c1 <_ZN21CircularArray2DWorkerIiE8toStringEv+0x91>
  408110:	e8 fb d0 ff ff       	callq  405210 <_ZSt16__throw_bad_castv@plt>
  408115:	66 2e 0f 1f 84 00 00 	nopw   %cs:0x0(%rax,%rax,1)
  40811c:	00 00 00 
  40811f:	90                   	nop

0000000000408120 <_ZN21CircularArray2DWorkerIfEC1Ev>:
  408120:	53                   	push   %rbx
  408121:	48 89 fb             	mov    %rdi,%rbx
  408124:	e8 f7 f2 ff ff       	callq  407420 <_ZN13Array2DWorkerIfEC1Ev>
  408129:	c7 43 20 00 00 00 00 	movl   $0x0,0x20(%rbx)
  408130:	c7 43 24 00 00 00 00 	movl   $0x0,0x24(%rbx)
  408137:	c7 43 28 00 00 00 00 	movl   $0x0,0x28(%rbx)
  40813e:	5b                   	pop    %rbx
  40813f:	c3                   	retq   

0000000000408140 <_ZN21CircularArray2DWorkerIfEC1Eii>:
  408140:	55                   	push   %rbp
  408141:	89 d5                	mov    %edx,%ebp
  408143:	53                   	push   %rbx
  408144:	48 89 fb             	mov    %rdi,%rbx
  408147:	48 83 ec 08          	sub    $0x8,%rsp
  40814b:	e8 00 f3 ff ff       	callq  407450 <_ZN13Array2DWorkerIfEC1Eii>
  408150:	89 6b 24             	mov    %ebp,0x24(%rbx)
  408153:	c7 43 20 00 00 00 00 	movl   $0x0,0x20(%rbx)
  40815a:	c7 43 28 00 00 00 00 	movl   $0x0,0x28(%rbx)
  408161:	48 83 c4 08          	add    $0x8,%rsp
  408165:	5b                   	pop    %rbx
  408166:	5d                   	pop    %rbp
  408167:	c3                   	retq   
  408168:	0f 1f 84 00 00 00 00 	nopl   0x0(%rax,%rax,1)
  40816f:	00 

0000000000408170 <_ZN21CircularArray2DWorkerIfED1Ev>:
  408170:	c7 47 20 00 00 00 00 	movl   $0x0,0x20(%rdi)
  408177:	c7 47 24 00 00 00 00 	movl   $0x0,0x24(%rdi)
  40817e:	c7 47 28 00 00 00 00 	movl   $0x0,0x28(%rdi)
  408185:	e9 56 f3 ff ff       	jmpq   4074e0 <_ZN13Array2DWorkerIfED1Ev>
  40818a:	66 0f 1f 44 00 00    	nopw   0x0(%rax,%rax,1)

0000000000408190 <_ZN21CircularArray2DWorkerIfE10pushColumnEPf>:
  408190:	55                   	push   %rbp
  408191:	48 89 f2             	mov    %rsi,%rdx
  408194:	53                   	push   %rbx
  408195:	48 89 fb             	mov    %rdi,%rbx
  408198:	48 83 ec 08          	sub    $0x8,%rsp
  40819c:	8b 77 20             	mov    0x20(%rdi),%esi
  40819f:	e8 ac f5 ff ff       	callq  407750 <_ZN13Array2DWorkerIfE9setColumnEiPf>
  4081a4:	8b 6b 20             	mov    0x20(%rbx),%ebp
  4081a7:	48 89 df             	mov    %rbx,%rdi
  4081aa:	e8 81 f3 ff ff       	callq  407530 <_ZN13Array2DWorkerIfE14getColumnCountEv>
  4081af:	83 e8 01             	sub    $0x1,%eax
  4081b2:	39 c5                	cmp    %eax,%ebp
  4081b4:	7c 1a                	jl     4081d0 <_ZN21CircularArray2DWorkerIfE10pushColumnEPf+0x40>
  4081b6:	83 43 28 01          	addl   $0x1,0x28(%rbx)
  4081ba:	c7 43 20 00 00 00 00 	movl   $0x0,0x20(%rbx)
  4081c1:	48 83 c4 08          	add    $0x8,%rsp
  4081c5:	5b                   	pop    %rbx
  4081c6:	5d                   	pop    %rbp
  4081c7:	c3                   	retq   
  4081c8:	0f 1f 84 00 00 00 00 	nopl   0x0(%rax,%rax,1)
  4081cf:	00 
  4081d0:	8b 6b 20             	mov    0x20(%rbx),%ebp
  4081d3:	48 89 df             	mov    %rbx,%rdi
  4081d6:	e8 55 f3 ff ff       	callq  407530 <_ZN13Array2DWorkerIfE14getColumnCountEv>
  4081db:	39 c5                	cmp    %eax,%ebp
  4081dd:	7d e2                	jge    4081c1 <_ZN21CircularArray2DWorkerIfE10pushColumnEPf+0x31>
  4081df:	83 43 20 01          	addl   $0x1,0x20(%rbx)
  4081e3:	48 83 c4 08          	add    $0x8,%rsp
  4081e7:	5b                   	pop    %rbx
  4081e8:	5d                   	pop    %rbp
  4081e9:	c3                   	retq   
  4081ea:	66 0f 1f 44 00 00    	nopw   0x0(%rax,%rax,1)

00000000004081f0 <_ZN21CircularArray2DWorkerIfE9pushArrayE13Array2DWorkerIfE>:
  4081f0:	41 54                	push   %r12
  4081f2:	49 89 fc             	mov    %rdi,%r12
  4081f5:	55                   	push   %rbp
  4081f6:	48 89 f5             	mov    %rsi,%rbp
  4081f9:	53                   	push   %rbx
  4081fa:	31 db                	xor    %ebx,%ebx
  4081fc:	eb 1a                	jmp    408218 <_ZN21CircularArray2DWorkerIfE9pushArrayE13Array2DWorkerIfE+0x28>
  4081fe:	66 90                	xchg   %ax,%ax
  408200:	89 de                	mov    %ebx,%esi
  408202:	48 89 ef             	mov    %rbp,%rdi
  408205:	83 c3 01             	add    $0x1,%ebx
  408208:	e8 d3 f3 ff ff       	callq  4075e0 <_ZN13Array2DWorkerIfE9getColumnEi>
  40820d:	4c 89 e7             	mov    %r12,%rdi
  408210:	48 89 c6             	mov    %rax,%rsi
  408213:	e8 78 ff ff ff       	callq  408190 <_ZN21CircularArray2DWorkerIfE10pushColumnEPf>
  408218:	48 89 ef             	mov    %rbp,%rdi
  40821b:	e8 10 f3 ff ff       	callq  407530 <_ZN13Array2DWorkerIfE14getColumnCountEv>
  408220:	39 c3                	cmp    %eax,%ebx
  408222:	7c dc                	jl     408200 <_ZN21CircularArray2DWorkerIfE9pushArrayE13Array2DWorkerIfE+0x10>
  408224:	5b                   	pop    %rbx
  408225:	5d                   	pop    %rbp
  408226:	41 5c                	pop    %r12
  408228:	c3                   	retq   
  408229:	0f 1f 80 00 00 00 00 	nopl   0x0(%rax)

0000000000408230 <_ZN21CircularArray2DWorkerIfE26getCurrentColumnWriteIndexEv>:
  408230:	8b 47 20             	mov    0x20(%rdi),%eax
  408233:	c3                   	retq   
  408234:	66 2e 0f 1f 84 00 00 	nopw   %cs:0x0(%rax,%rax,1)
  40823b:	00 00 00 
  40823e:	66 90                	xchg   %ax,%ax

0000000000408240 <_ZN21CircularArray2DWorkerIfE25getCurrentColumnReadIndexEv>:
  408240:	8b 47 24             	mov    0x24(%rdi),%eax
  408243:	c3                   	retq   
  408244:	66 2e 0f 1f 84 00 00 	nopw   %cs:0x0(%rax,%rax,1)
  40824b:	00 00 00 
  40824e:	66 90                	xchg   %ax,%ax

0000000000408250 <_ZN21CircularArray2DWorkerIfE26setCurrentColumnWriteIndexEi>:
  408250:	89 77 20             	mov    %esi,0x20(%rdi)
  408253:	c3                   	retq   
  408254:	66 2e 0f 1f 84 00 00 	nopw   %cs:0x0(%rax,%rax,1)
  40825b:	00 00 00 
  40825e:	66 90                	xchg   %ax,%ax

0000000000408260 <_ZN21CircularArray2DWorkerIfE25setCurrentColumnReadIndexEi>:
  408260:	89 77 24             	mov    %esi,0x24(%rdi)
  408263:	c3                   	retq   
  408264:	66 2e 0f 1f 84 00 00 	nopw   %cs:0x0(%rax,%rax,1)
  40826b:	00 00 00 
  40826e:	66 90                	xchg   %ax,%ax

0000000000408270 <_ZN21CircularArray2DWorkerIfE14getRefillCountEv>:
  408270:	8b 47 28             	mov    0x28(%rdi),%eax
  408273:	c3                   	retq   
  408274:	66 2e 0f 1f 84 00 00 	nopw   %cs:0x0(%rax,%rax,1)
  40827b:	00 00 00 
  40827e:	66 90                	xchg   %ax,%ax

0000000000408280 <_ZN21CircularArray2DWorkerIfE9popColumnEv>:
  408280:	55                   	push   %rbp
  408281:	53                   	push   %rbx
  408282:	48 89 fb             	mov    %rdi,%rbx
  408285:	48 83 ec 08          	sub    $0x8,%rsp
  408289:	8b 6f 24             	mov    0x24(%rdi),%ebp
  40828c:	e8 9f f2 ff ff       	callq  407530 <_ZN13Array2DWorkerIfE14getColumnCountEv>
  408291:	83 e8 01             	sub    $0x1,%eax
  408294:	39 c5                	cmp    %eax,%ebp
  408296:	7c 18                	jl     4082b0 <_ZN21CircularArray2DWorkerIfE9popColumnEv+0x30>
  408298:	c7 43 24 00 00 00 00 	movl   $0x0,0x24(%rbx)
  40829f:	48 83 c4 08          	add    $0x8,%rsp
  4082a3:	48 89 df             	mov    %rbx,%rdi
  4082a6:	5b                   	pop    %rbx
  4082a7:	5d                   	pop    %rbp
  4082a8:	31 f6                	xor    %esi,%esi
  4082aa:	e9 31 f3 ff ff       	jmpq   4075e0 <_ZN13Array2DWorkerIfE9getColumnEi>
  4082af:	90                   	nop
  4082b0:	8b 6b 24             	mov    0x24(%rbx),%ebp
  4082b3:	48 89 df             	mov    %rbx,%rdi
  4082b6:	e8 75 f2 ff ff       	callq  407530 <_ZN13Array2DWorkerIfE14getColumnCountEv>
  4082bb:	39 c5                	cmp    %eax,%ebp
  4082bd:	7d 21                	jge    4082e0 <_ZN21CircularArray2DWorkerIfE9popColumnEv+0x60>
  4082bf:	8b 43 24             	mov    0x24(%rbx),%eax
  4082c2:	48 89 df             	mov    %rbx,%rdi
  4082c5:	8d 70 01             	lea    0x1(%rax),%esi
  4082c8:	89 73 24             	mov    %esi,0x24(%rbx)
  4082cb:	48 83 c4 08          	add    $0x8,%rsp
  4082cf:	5b                   	pop    %rbx
  4082d0:	5d                   	pop    %rbp
  4082d1:	e9 0a f3 ff ff       	jmpq   4075e0 <_ZN13Array2DWorkerIfE9getColumnEi>
  4082d6:	66 2e 0f 1f 84 00 00 	nopw   %cs:0x0(%rax,%rax,1)
  4082dd:	00 00 00 
  4082e0:	8b 73 24             	mov    0x24(%rbx),%esi
  4082e3:	48 83 c4 08          	add    $0x8,%rsp
  4082e7:	48 89 df             	mov    %rbx,%rdi
  4082ea:	5b                   	pop    %rbx
  4082eb:	5d                   	pop    %rbp
  4082ec:	e9 ef f2 ff ff       	jmpq   4075e0 <_ZN13Array2DWorkerIfE9getColumnEi>
  4082f1:	66 2e 0f 1f 84 00 00 	nopw   %cs:0x0(%rax,%rax,1)
  4082f8:	00 00 00 
  4082fb:	0f 1f 44 00 00       	nopl   0x0(%rax,%rax,1)

0000000000408300 <_ZN21CircularArray2DWorkerIfE16popColumnSectionEiP13Array2DWorkerIfE>:
  408300:	41 55                	push   %r13
  408302:	49 89 fd             	mov    %rdi,%r13
  408305:	41 54                	push   %r12
  408307:	49 89 d4             	mov    %rdx,%r12
  40830a:	55                   	push   %rbp
  40830b:	89 f5                	mov    %esi,%ebp
  40830d:	53                   	push   %rbx
  40830e:	31 db                	xor    %ebx,%ebx
  408310:	48 83 ec 08          	sub    $0x8,%rsp
  408314:	85 f6                	test   %esi,%esi
  408316:	7e 24                	jle    40833c <_ZN21CircularArray2DWorkerIfE16popColumnSectionEiP13Array2DWorkerIfE+0x3c>
  408318:	0f 1f 84 00 00 00 00 	nopl   0x0(%rax,%rax,1)
  40831f:	00 
  408320:	4c 89 ef             	mov    %r13,%rdi
  408323:	e8 58 ff ff ff       	callq  408280 <_ZN21CircularArray2DWorkerIfE9popColumnEv>
  408328:	89 de                	mov    %ebx,%esi
  40832a:	48 89 c2             	mov    %rax,%rdx
  40832d:	4c 89 e7             	mov    %r12,%rdi
  408330:	83 c3 01             	add    $0x1,%ebx
  408333:	e8 18 f4 ff ff       	callq  407750 <_ZN13Array2DWorkerIfE9setColumnEiPf>
  408338:	39 eb                	cmp    %ebp,%ebx
  40833a:	75 e4                	jne    408320 <_ZN21CircularArray2DWorkerIfE16popColumnSectionEiP13Array2DWorkerIfE+0x20>
  40833c:	48 83 c4 08          	add    $0x8,%rsp
  408340:	5b                   	pop    %rbx
  408341:	5d                   	pop    %rbp
  408342:	41 5c                	pop    %r12
  408344:	41 5d                	pop    %r13
  408346:	c3                   	retq   
  408347:	66 0f 1f 84 00 00 00 	nopw   0x0(%rax,%rax,1)
  40834e:	00 00 

0000000000408350 <_ZN21CircularArray2DWorkerIfE24incrementColumnReadIndexEv>:
  408350:	55                   	push   %rbp
  408351:	53                   	push   %rbx
  408352:	48 89 fb             	mov    %rdi,%rbx
  408355:	48 83 ec 08          	sub    $0x8,%rsp
  408359:	8b 6f 24             	mov    0x24(%rdi),%ebp
  40835c:	e8 cf f1 ff ff       	callq  407530 <_ZN13Array2DWorkerIfE14getColumnCountEv>
  408361:	83 e8 01             	sub    $0x1,%eax
  408364:	39 c5                	cmp    %eax,%ebp
  408366:	7d 10                	jge    408378 <_ZN21CircularArray2DWorkerIfE24incrementColumnReadIndexEv+0x28>
  408368:	83 43 24 01          	addl   $0x1,0x24(%rbx)
  40836c:	48 83 c4 08          	add    $0x8,%rsp
  408370:	5b                   	pop    %rbx
  408371:	5d                   	pop    %rbp
  408372:	c3                   	retq   
  408373:	0f 1f 44 00 00       	nopl   0x0(%rax,%rax,1)
  408378:	c7 43 24 00 00 00 00 	movl   $0x0,0x24(%rbx)
  40837f:	48 83 c4 08          	add    $0x8,%rsp
  408383:	5b                   	pop    %rbx
  408384:	5d                   	pop    %rbp
  408385:	c3                   	retq   
  408386:	66 2e 0f 1f 84 00 00 	nopw   %cs:0x0(%rax,%rax,1)
  40838d:	00 00 00 

0000000000408390 <_ZN21CircularArray2DWorkerIfE25incrementColumnWriteIndexEv>:
  408390:	55                   	push   %rbp
  408391:	53                   	push   %rbx
  408392:	48 89 fb             	mov    %rdi,%rbx
  408395:	48 83 ec 08          	sub    $0x8,%rsp
  408399:	8b 6f 20             	mov    0x20(%rdi),%ebp
  40839c:	e8 8f f1 ff ff       	callq  407530 <_ZN13Array2DWorkerIfE14getColumnCountEv>
  4083a1:	83 e8 01             	sub    $0x1,%eax
  4083a4:	39 c5                	cmp    %eax,%ebp
  4083a6:	7d 10                	jge    4083b8 <_ZN21CircularArray2DWorkerIfE25incrementColumnWriteIndexEv+0x28>
  4083a8:	83 43 20 01          	addl   $0x1,0x20(%rbx)
  4083ac:	48 83 c4 08          	add    $0x8,%rsp
  4083b0:	5b                   	pop    %rbx
  4083b1:	5d                   	pop    %rbp
  4083b2:	c3                   	retq   
  4083b3:	0f 1f 44 00 00       	nopl   0x0(%rax,%rax,1)
  4083b8:	c7 43 20 00 00 00 00 	movl   $0x0,0x20(%rbx)
  4083bf:	48 83 c4 08          	add    $0x8,%rsp
  4083c3:	5b                   	pop    %rbx
  4083c4:	5d                   	pop    %rbp
  4083c5:	c3                   	retq   
  4083c6:	66 2e 0f 1f 84 00 00 	nopw   %cs:0x0(%rax,%rax,1)
  4083cd:	00 00 00 

00000000004083d0 <_ZN21CircularArray2DWorkerIfE24decrementColumnReadIndexEv>:
  4083d0:	8b 47 24             	mov    0x24(%rdi),%eax
  4083d3:	53                   	push   %rbx
  4083d4:	48 89 fb             	mov    %rdi,%rbx
  4083d7:	85 c0                	test   %eax,%eax
  4083d9:	7e 0d                	jle    4083e8 <_ZN21CircularArray2DWorkerIfE24decrementColumnReadIndexEv+0x18>
  4083db:	83 e8 01             	sub    $0x1,%eax
  4083de:	89 43 24             	mov    %eax,0x24(%rbx)
  4083e1:	5b                   	pop    %rbx
  4083e2:	c3                   	retq   
  4083e3:	0f 1f 44 00 00       	nopl   0x0(%rax,%rax,1)
  4083e8:	e8 43 f1 ff ff       	callq  407530 <_ZN13Array2DWorkerIfE14getColumnCountEv>
  4083ed:	83 e8 01             	sub    $0x1,%eax
  4083f0:	89 43 24             	mov    %eax,0x24(%rbx)
  4083f3:	5b                   	pop    %rbx
  4083f4:	c3                   	retq   
  4083f5:	66 2e 0f 1f 84 00 00 	nopw   %cs:0x0(%rax,%rax,1)
  4083fc:	00 00 00 
  4083ff:	90                   	nop

0000000000408400 <_ZN21CircularArray2DWorkerIfE25decrementColumnWriteIndexEv>:
  408400:	8b 47 20             	mov    0x20(%rdi),%eax
  408403:	53                   	push   %rbx
  408404:	48 89 fb             	mov    %rdi,%rbx
  408407:	85 c0                	test   %eax,%eax
  408409:	7e 0d                	jle    408418 <_ZN21CircularArray2DWorkerIfE25decrementColumnWriteIndexEv+0x18>
  40840b:	83 e8 01             	sub    $0x1,%eax
  40840e:	89 43 20             	mov    %eax,0x20(%rbx)
  408411:	5b                   	pop    %rbx
  408412:	c3                   	retq   
  408413:	0f 1f 44 00 00       	nopl   0x0(%rax,%rax,1)
  408418:	e8 13 f1 ff ff       	callq  407530 <_ZN13Array2DWorkerIfE14getColumnCountEv>
  40841d:	83 e8 01             	sub    $0x1,%eax
  408420:	89 43 20             	mov    %eax,0x20(%rbx)
  408423:	5b                   	pop    %rbx
  408424:	c3                   	retq   
  408425:	66 2e 0f 1f 84 00 00 	nopw   %cs:0x0(%rax,%rax,1)
  40842c:	00 00 00 
  40842f:	90                   	nop

0000000000408430 <_ZN21CircularArray2DWorkerIfE8toStringEv>:
  408430:	41 55                	push   %r13
  408432:	45 31 ed             	xor    %r13d,%r13d
  408435:	41 54                	push   %r12
  408437:	55                   	push   %rbp
  408438:	48 89 fd             	mov    %rdi,%rbp
  40843b:	48 89 ef             	mov    %rbp,%rdi
  40843e:	53                   	push   %rbx
  40843f:	48 83 ec 08          	sub    $0x8,%rsp
  408443:	e8 d8 f0 ff ff       	callq  407520 <_ZN13Array2DWorkerIfE11getRowCountEv>
  408448:	41 39 c5             	cmp    %eax,%r13d
  40844b:	0f 8d 9c 00 00 00    	jge    4084ed <_ZN21CircularArray2DWorkerIfE8toStringEv+0xbd>
  408451:	0f 1f 80 00 00 00 00 	nopl   0x0(%rax)
  408458:	31 db                	xor    %ebx,%ebx
  40845a:	4c 8b 25 77 db 20 00 	mov    0x20db77(%rip),%r12        # 615fd8 <_DYNAMIC+0x248>
  408461:	eb 37                	jmp    40849a <_ZN21CircularArray2DWorkerIfE8toStringEv+0x6a>
  408463:	0f 1f 44 00 00       	nopl   0x0(%rax,%rax,1)
  408468:	89 da                	mov    %ebx,%edx
  40846a:	44 89 ee             	mov    %r13d,%esi
  40846d:	48 89 ef             	mov    %rbp,%rdi
  408470:	e8 eb f0 ff ff       	callq  407560 <_ZN13Array2DWorkerIfE2atEii>
  408475:	0f 14 c0             	unpcklps %xmm0,%xmm0
  408478:	4c 89 e7             	mov    %r12,%rdi
  40847b:	83 c3 01             	add    $0x1,%ebx
  40847e:	0f 5a c0             	cvtps2pd %xmm0,%xmm0
  408481:	e8 ea d1 ff ff       	callq  405670 <_ZNSo9_M_insertIdEERSoT_@plt>
  408486:	48 8d 35 97 66 00 00 	lea    0x6697(%rip),%rsi        # 40eb24 <_IO_stdin_used+0xe4>
  40848d:	ba 01 00 00 00       	mov    $0x1,%edx
  408492:	48 89 c7             	mov    %rax,%rdi
  408495:	e8 76 d4 ff ff       	callq  405910 <_ZSt16__ostream_insertIcSt11char_traitsIcEERSt13basic_ostreamIT_T0_ES6_PKS3_l@plt>
  40849a:	48 89 ef             	mov    %rbp,%rdi
  40849d:	e8 8e f0 ff ff       	callq  407530 <_ZN13Array2DWorkerIfE14getColumnCountEv>
  4084a2:	39 c3                	cmp    %eax,%ebx
  4084a4:	7c c2                	jl     408468 <_ZN21CircularArray2DWorkerIfE8toStringEv+0x38>
  4084a6:	49 8b 04 24          	mov    (%r12),%rax
  4084aa:	48 8b 40 e8          	mov    -0x18(%rax),%rax
  4084ae:	4a 8b 9c 20 f0 00 00 	mov    0xf0(%rax,%r12,1),%rbx
  4084b5:	00 
  4084b6:	48 85 db             	test   %rbx,%rbx
  4084b9:	74 5d                	je     408518 <_ZN21CircularArray2DWorkerIfE8toStringEv+0xe8>
  4084bb:	80 7b 38 00          	cmpb   $0x0,0x38(%rbx)
  4084bf:	74 3f                	je     408500 <_ZN21CircularArray2DWorkerIfE8toStringEv+0xd0>
  4084c1:	0f b6 43 43          	movzbl 0x43(%rbx),%eax
  4084c5:	0f be f0             	movsbl %al,%esi
  4084c8:	4c 89 e7             	mov    %r12,%rdi
  4084cb:	41 83 c5 01          	add    $0x1,%r13d
  4084cf:	e8 5c cf ff ff       	callq  405430 <_ZNSo3putEc@plt>
  4084d4:	48 89 c7             	mov    %rax,%rdi
  4084d7:	e8 d4 ce ff ff       	callq  4053b0 <_ZNSo5flushEv@plt>
  4084dc:	48 89 ef             	mov    %rbp,%rdi
  4084df:	e8 3c f0 ff ff       	callq  407520 <_ZN13Array2DWorkerIfE11getRowCountEv>
  4084e4:	41 39 c5             	cmp    %eax,%r13d
  4084e7:	0f 8c 6b ff ff ff    	jl     408458 <_ZN21CircularArray2DWorkerIfE8toStringEv+0x28>
  4084ed:	48 83 c4 08          	add    $0x8,%rsp
  4084f1:	5b                   	pop    %rbx
  4084f2:	5d                   	pop    %rbp
  4084f3:	41 5c                	pop    %r12
  4084f5:	41 5d                	pop    %r13
  4084f7:	c3                   	retq   
  4084f8:	0f 1f 84 00 00 00 00 	nopl   0x0(%rax,%rax,1)
  4084ff:	00 
  408500:	48 89 df             	mov    %rbx,%rdi
  408503:	e8 98 ce ff ff       	callq  4053a0 <_ZNKSt5ctypeIcE13_M_widen_initEv@plt>
  408508:	48 8b 03             	mov    (%rbx),%rax
  40850b:	be 0a 00 00 00       	mov    $0xa,%esi
  408510:	48 89 df             	mov    %rbx,%rdi
  408513:	ff 50 30             	callq  *0x30(%rax)
  408516:	eb ad                	jmp    4084c5 <_ZN21CircularArray2DWorkerIfE8toStringEv+0x95>
  408518:	e8 f3 cc ff ff       	callq  405210 <_ZSt16__throw_bad_castv@plt>
  40851d:	0f 1f 00             	nopl   (%rax)

0000000000408520 <_ZN21CircularArray2DWorkerIdEC1Ev>:
  408520:	53                   	push   %rbx
  408521:	48 89 fb             	mov    %rdi,%rbx
  408524:	e8 77 f3 ff ff       	callq  4078a0 <_ZN13Array2DWorkerIdEC1Ev>
  408529:	c7 43 20 00 00 00 00 	movl   $0x0,0x20(%rbx)
  408530:	c7 43 24 00 00 00 00 	movl   $0x0,0x24(%rbx)
  408537:	c7 43 28 00 00 00 00 	movl   $0x0,0x28(%rbx)
  40853e:	5b                   	pop    %rbx
  40853f:	c3                   	retq   

0000000000408540 <_ZN21CircularArray2DWorkerIdEC1Eii>:
  408540:	55                   	push   %rbp
  408541:	89 d5                	mov    %edx,%ebp
  408543:	53                   	push   %rbx
  408544:	48 89 fb             	mov    %rdi,%rbx
  408547:	48 83 ec 08          	sub    $0x8,%rsp
  40854b:	e8 80 f3 ff ff       	callq  4078d0 <_ZN13Array2DWorkerIdEC1Eii>
  408550:	89 6b 24             	mov    %ebp,0x24(%rbx)
  408553:	c7 43 20 00 00 00 00 	movl   $0x0,0x20(%rbx)
  40855a:	c7 43 28 00 00 00 00 	movl   $0x0,0x28(%rbx)
  408561:	48 83 c4 08          	add    $0x8,%rsp
  408565:	5b                   	pop    %rbx
  408566:	5d                   	pop    %rbp
  408567:	c3                   	retq   
  408568:	0f 1f 84 00 00 00 00 	nopl   0x0(%rax,%rax,1)
  40856f:	00 

0000000000408570 <_ZN21CircularArray2DWorkerIdED1Ev>:
  408570:	c7 47 20 00 00 00 00 	movl   $0x0,0x20(%rdi)
  408577:	c7 47 24 00 00 00 00 	movl   $0x0,0x24(%rdi)
  40857e:	c7 47 28 00 00 00 00 	movl   $0x0,0x28(%rdi)
  408585:	e9 d6 f3 ff ff       	jmpq   407960 <_ZN13Array2DWorkerIdED1Ev>
  40858a:	66 0f 1f 44 00 00    	nopw   0x0(%rax,%rax,1)

0000000000408590 <_ZN21CircularArray2DWorkerIdE10pushColumnEPd>:
  408590:	55                   	push   %rbp
  408591:	48 89 f2             	mov    %rsi,%rdx
  408594:	53                   	push   %rbx
  408595:	48 89 fb             	mov    %rdi,%rbx
  408598:	48 83 ec 08          	sub    $0x8,%rsp
  40859c:	8b 77 20             	mov    0x20(%rdi),%esi
  40859f:	e8 2c f6 ff ff       	callq  407bd0 <_ZN13Array2DWorkerIdE9setColumnEiPd>
  4085a4:	8b 6b 20             	mov    0x20(%rbx),%ebp
  4085a7:	48 89 df             	mov    %rbx,%rdi
  4085aa:	e8 01 f4 ff ff       	callq  4079b0 <_ZN13Array2DWorkerIdE14getColumnCountEv>
  4085af:	83 e8 01             	sub    $0x1,%eax
  4085b2:	39 c5                	cmp    %eax,%ebp
  4085b4:	7c 1a                	jl     4085d0 <_ZN21CircularArray2DWorkerIdE10pushColumnEPd+0x40>
  4085b6:	83 43 28 01          	addl   $0x1,0x28(%rbx)
  4085ba:	c7 43 20 00 00 00 00 	movl   $0x0,0x20(%rbx)
  4085c1:	48 83 c4 08          	add    $0x8,%rsp
  4085c5:	5b                   	pop    %rbx
  4085c6:	5d                   	pop    %rbp
  4085c7:	c3                   	retq   
  4085c8:	0f 1f 84 00 00 00 00 	nopl   0x0(%rax,%rax,1)
  4085cf:	00 
  4085d0:	8b 6b 20             	mov    0x20(%rbx),%ebp
  4085d3:	48 89 df             	mov    %rbx,%rdi
  4085d6:	e8 d5 f3 ff ff       	callq  4079b0 <_ZN13Array2DWorkerIdE14getColumnCountEv>
  4085db:	39 c5                	cmp    %eax,%ebp
  4085dd:	7d e2                	jge    4085c1 <_ZN21CircularArray2DWorkerIdE10pushColumnEPd+0x31>
  4085df:	83 43 20 01          	addl   $0x1,0x20(%rbx)
  4085e3:	48 83 c4 08          	add    $0x8,%rsp
  4085e7:	5b                   	pop    %rbx
  4085e8:	5d                   	pop    %rbp
  4085e9:	c3                   	retq   
  4085ea:	66 0f 1f 44 00 00    	nopw   0x0(%rax,%rax,1)

00000000004085f0 <_ZN21CircularArray2DWorkerIdE9pushArrayE13Array2DWorkerIdE>:
  4085f0:	41 54                	push   %r12
  4085f2:	49 89 fc             	mov    %rdi,%r12
  4085f5:	55                   	push   %rbp
  4085f6:	48 89 f5             	mov    %rsi,%rbp
  4085f9:	53                   	push   %rbx
  4085fa:	31 db                	xor    %ebx,%ebx
  4085fc:	eb 1a                	jmp    408618 <_ZN21CircularArray2DWorkerIdE9pushArrayE13Array2DWorkerIdE+0x28>
  4085fe:	66 90                	xchg   %ax,%ax
  408600:	89 de                	mov    %ebx,%esi
  408602:	48 89 ef             	mov    %rbp,%rdi
  408605:	83 c3 01             	add    $0x1,%ebx
  408608:	e8 53 f4 ff ff       	callq  407a60 <_ZN13Array2DWorkerIdE9getColumnEi>
  40860d:	4c 89 e7             	mov    %r12,%rdi
  408610:	48 89 c6             	mov    %rax,%rsi
  408613:	e8 78 ff ff ff       	callq  408590 <_ZN21CircularArray2DWorkerIdE10pushColumnEPd>
  408618:	48 89 ef             	mov    %rbp,%rdi
  40861b:	e8 90 f3 ff ff       	callq  4079b0 <_ZN13Array2DWorkerIdE14getColumnCountEv>
  408620:	39 c3                	cmp    %eax,%ebx
  408622:	7c dc                	jl     408600 <_ZN21CircularArray2DWorkerIdE9pushArrayE13Array2DWorkerIdE+0x10>
  408624:	5b                   	pop    %rbx
  408625:	5d                   	pop    %rbp
  408626:	41 5c                	pop    %r12
  408628:	c3                   	retq   
  408629:	0f 1f 80 00 00 00 00 	nopl   0x0(%rax)

0000000000408630 <_ZN21CircularArray2DWorkerIdE26getCurrentColumnWriteIndexEv>:
  408630:	8b 47 20             	mov    0x20(%rdi),%eax
  408633:	c3                   	retq   
  408634:	66 2e 0f 1f 84 00 00 	nopw   %cs:0x0(%rax,%rax,1)
  40863b:	00 00 00 
  40863e:	66 90                	xchg   %ax,%ax

0000000000408640 <_ZN21CircularArray2DWorkerIdE25getCurrentColumnReadIndexEv>:
  408640:	8b 47 24             	mov    0x24(%rdi),%eax
  408643:	c3                   	retq   
  408644:	66 2e 0f 1f 84 00 00 	nopw   %cs:0x0(%rax,%rax,1)
  40864b:	00 00 00 
  40864e:	66 90                	xchg   %ax,%ax

0000000000408650 <_ZN21CircularArray2DWorkerIdE26setCurrentColumnWriteIndexEi>:
  408650:	89 77 20             	mov    %esi,0x20(%rdi)
  408653:	c3                   	retq   
  408654:	66 2e 0f 1f 84 00 00 	nopw   %cs:0x0(%rax,%rax,1)
  40865b:	00 00 00 
  40865e:	66 90                	xchg   %ax,%ax

0000000000408660 <_ZN21CircularArray2DWorkerIdE25setCurrentColumnReadIndexEi>:
  408660:	89 77 24             	mov    %esi,0x24(%rdi)
  408663:	c3                   	retq   
  408664:	66 2e 0f 1f 84 00 00 	nopw   %cs:0x0(%rax,%rax,1)
  40866b:	00 00 00 
  40866e:	66 90                	xchg   %ax,%ax

0000000000408670 <_ZN21CircularArray2DWorkerIdE14getRefillCountEv>:
  408670:	8b 47 28             	mov    0x28(%rdi),%eax
  408673:	c3                   	retq   
  408674:	66 2e 0f 1f 84 00 00 	nopw   %cs:0x0(%rax,%rax,1)
  40867b:	00 00 00 
  40867e:	66 90                	xchg   %ax,%ax

0000000000408680 <_ZN21CircularArray2DWorkerIdE9popColumnEv>:
  408680:	55                   	push   %rbp
  408681:	53                   	push   %rbx
  408682:	48 89 fb             	mov    %rdi,%rbx
  408685:	48 83 ec 08          	sub    $0x8,%rsp
  408689:	8b 6f 24             	mov    0x24(%rdi),%ebp
  40868c:	e8 1f f3 ff ff       	callq  4079b0 <_ZN13Array2DWorkerIdE14getColumnCountEv>
  408691:	83 e8 01             	sub    $0x1,%eax
  408694:	39 c5                	cmp    %eax,%ebp
  408696:	7c 18                	jl     4086b0 <_ZN21CircularArray2DWorkerIdE9popColumnEv+0x30>
  408698:	c7 43 24 00 00 00 00 	movl   $0x0,0x24(%rbx)
  40869f:	48 83 c4 08          	add    $0x8,%rsp
  4086a3:	48 89 df             	mov    %rbx,%rdi
  4086a6:	5b                   	pop    %rbx
  4086a7:	5d                   	pop    %rbp
  4086a8:	31 f6                	xor    %esi,%esi
  4086aa:	e9 b1 f3 ff ff       	jmpq   407a60 <_ZN13Array2DWorkerIdE9getColumnEi>
  4086af:	90                   	nop
  4086b0:	8b 6b 24             	mov    0x24(%rbx),%ebp
  4086b3:	48 89 df             	mov    %rbx,%rdi
  4086b6:	e8 f5 f2 ff ff       	callq  4079b0 <_ZN13Array2DWorkerIdE14getColumnCountEv>
  4086bb:	39 c5                	cmp    %eax,%ebp
  4086bd:	7d 21                	jge    4086e0 <_ZN21CircularArray2DWorkerIdE9popColumnEv+0x60>
  4086bf:	8b 43 24             	mov    0x24(%rbx),%eax
  4086c2:	48 89 df             	mov    %rbx,%rdi
  4086c5:	8d 70 01             	lea    0x1(%rax),%esi
  4086c8:	89 73 24             	mov    %esi,0x24(%rbx)
  4086cb:	48 83 c4 08          	add    $0x8,%rsp
  4086cf:	5b                   	pop    %rbx
  4086d0:	5d                   	pop    %rbp
  4086d1:	e9 8a f3 ff ff       	jmpq   407a60 <_ZN13Array2DWorkerIdE9getColumnEi>
  4086d6:	66 2e 0f 1f 84 00 00 	nopw   %cs:0x0(%rax,%rax,1)
  4086dd:	00 00 00 
  4086e0:	8b 73 24             	mov    0x24(%rbx),%esi
  4086e3:	48 83 c4 08          	add    $0x8,%rsp
  4086e7:	48 89 df             	mov    %rbx,%rdi
  4086ea:	5b                   	pop    %rbx
  4086eb:	5d                   	pop    %rbp
  4086ec:	e9 6f f3 ff ff       	jmpq   407a60 <_ZN13Array2DWorkerIdE9getColumnEi>
  4086f1:	66 2e 0f 1f 84 00 00 	nopw   %cs:0x0(%rax,%rax,1)
  4086f8:	00 00 00 
  4086fb:	0f 1f 44 00 00       	nopl   0x0(%rax,%rax,1)

0000000000408700 <_ZN21CircularArray2DWorkerIdE16popColumnSectionEiP13Array2DWorkerIdE>:
  408700:	41 55                	push   %r13
  408702:	49 89 fd             	mov    %rdi,%r13
  408705:	41 54                	push   %r12
  408707:	49 89 d4             	mov    %rdx,%r12
  40870a:	55                   	push   %rbp
  40870b:	89 f5                	mov    %esi,%ebp
  40870d:	53                   	push   %rbx
  40870e:	31 db                	xor    %ebx,%ebx
  408710:	48 83 ec 08          	sub    $0x8,%rsp
  408714:	85 f6                	test   %esi,%esi
  408716:	7e 24                	jle    40873c <_ZN21CircularArray2DWorkerIdE16popColumnSectionEiP13Array2DWorkerIdE+0x3c>
  408718:	0f 1f 84 00 00 00 00 	nopl   0x0(%rax,%rax,1)
  40871f:	00 
  408720:	4c 89 ef             	mov    %r13,%rdi
  408723:	e8 58 ff ff ff       	callq  408680 <_ZN21CircularArray2DWorkerIdE9popColumnEv>
  408728:	89 de                	mov    %ebx,%esi
  40872a:	48 89 c2             	mov    %rax,%rdx
  40872d:	4c 89 e7             	mov    %r12,%rdi
  408730:	83 c3 01             	add    $0x1,%ebx
  408733:	e8 98 f4 ff ff       	callq  407bd0 <_ZN13Array2DWorkerIdE9setColumnEiPd>
  408738:	39 eb                	cmp    %ebp,%ebx
  40873a:	75 e4                	jne    408720 <_ZN21CircularArray2DWorkerIdE16popColumnSectionEiP13Array2DWorkerIdE+0x20>
  40873c:	48 83 c4 08          	add    $0x8,%rsp
  408740:	5b                   	pop    %rbx
  408741:	5d                   	pop    %rbp
  408742:	41 5c                	pop    %r12
  408744:	41 5d                	pop    %r13
  408746:	c3                   	retq   
  408747:	66 0f 1f 84 00 00 00 	nopw   0x0(%rax,%rax,1)
  40874e:	00 00 

0000000000408750 <_ZN21CircularArray2DWorkerIdE24incrementColumnReadIndexEv>:
  408750:	55                   	push   %rbp
  408751:	53                   	push   %rbx
  408752:	48 89 fb             	mov    %rdi,%rbx
  408755:	48 83 ec 08          	sub    $0x8,%rsp
  408759:	8b 6f 24             	mov    0x24(%rdi),%ebp
  40875c:	e8 4f f2 ff ff       	callq  4079b0 <_ZN13Array2DWorkerIdE14getColumnCountEv>
  408761:	83 e8 01             	sub    $0x1,%eax
  408764:	39 c5                	cmp    %eax,%ebp
  408766:	7d 10                	jge    408778 <_ZN21CircularArray2DWorkerIdE24incrementColumnReadIndexEv+0x28>
  408768:	83 43 24 01          	addl   $0x1,0x24(%rbx)
  40876c:	48 83 c4 08          	add    $0x8,%rsp
  408770:	5b                   	pop    %rbx
  408771:	5d                   	pop    %rbp
  408772:	c3                   	retq   
  408773:	0f 1f 44 00 00       	nopl   0x0(%rax,%rax,1)
  408778:	c7 43 24 00 00 00 00 	movl   $0x0,0x24(%rbx)
  40877f:	48 83 c4 08          	add    $0x8,%rsp
  408783:	5b                   	pop    %rbx
  408784:	5d                   	pop    %rbp
  408785:	c3                   	retq   
  408786:	66 2e 0f 1f 84 00 00 	nopw   %cs:0x0(%rax,%rax,1)
  40878d:	00 00 00 

0000000000408790 <_ZN21CircularArray2DWorkerIdE25incrementColumnWriteIndexEv>:
  408790:	55                   	push   %rbp
  408791:	53                   	push   %rbx
  408792:	48 89 fb             	mov    %rdi,%rbx
  408795:	48 83 ec 08          	sub    $0x8,%rsp
  408799:	8b 6f 20             	mov    0x20(%rdi),%ebp
  40879c:	e8 0f f2 ff ff       	callq  4079b0 <_ZN13Array2DWorkerIdE14getColumnCountEv>
  4087a1:	83 e8 01             	sub    $0x1,%eax
  4087a4:	39 c5                	cmp    %eax,%ebp
  4087a6:	7d 10                	jge    4087b8 <_ZN21CircularArray2DWorkerIdE25incrementColumnWriteIndexEv+0x28>
  4087a8:	83 43 20 01          	addl   $0x1,0x20(%rbx)
  4087ac:	48 83 c4 08          	add    $0x8,%rsp
  4087b0:	5b                   	pop    %rbx
  4087b1:	5d                   	pop    %rbp
  4087b2:	c3                   	retq   
  4087b3:	0f 1f 44 00 00       	nopl   0x0(%rax,%rax,1)
  4087b8:	c7 43 20 00 00 00 00 	movl   $0x0,0x20(%rbx)
  4087bf:	48 83 c4 08          	add    $0x8,%rsp
  4087c3:	5b                   	pop    %rbx
  4087c4:	5d                   	pop    %rbp
  4087c5:	c3                   	retq   
  4087c6:	66 2e 0f 1f 84 00 00 	nopw   %cs:0x0(%rax,%rax,1)
  4087cd:	00 00 00 

00000000004087d0 <_ZN21CircularArray2DWorkerIdE24decrementColumnReadIndexEv>:
  4087d0:	8b 47 24             	mov    0x24(%rdi),%eax
  4087d3:	53                   	push   %rbx
  4087d4:	48 89 fb             	mov    %rdi,%rbx
  4087d7:	85 c0                	test   %eax,%eax
  4087d9:	7e 0d                	jle    4087e8 <_ZN21CircularArray2DWorkerIdE24decrementColumnReadIndexEv+0x18>
  4087db:	83 e8 01             	sub    $0x1,%eax
  4087de:	89 43 24             	mov    %eax,0x24(%rbx)
  4087e1:	5b                   	pop    %rbx
  4087e2:	c3                   	retq   
  4087e3:	0f 1f 44 00 00       	nopl   0x0(%rax,%rax,1)
  4087e8:	e8 c3 f1 ff ff       	callq  4079b0 <_ZN13Array2DWorkerIdE14getColumnCountEv>
  4087ed:	83 e8 01             	sub    $0x1,%eax
  4087f0:	89 43 24             	mov    %eax,0x24(%rbx)
  4087f3:	5b                   	pop    %rbx
  4087f4:	c3                   	retq   
  4087f5:	66 2e 0f 1f 84 00 00 	nopw   %cs:0x0(%rax,%rax,1)
  4087fc:	00 00 00 
  4087ff:	90                   	nop

0000000000408800 <_ZN21CircularArray2DWorkerIdE25decrementColumnWriteIndexEv>:
  408800:	8b 47 20             	mov    0x20(%rdi),%eax
  408803:	53                   	push   %rbx
  408804:	48 89 fb             	mov    %rdi,%rbx
  408807:	85 c0                	test   %eax,%eax
  408809:	7e 0d                	jle    408818 <_ZN21CircularArray2DWorkerIdE25decrementColumnWriteIndexEv+0x18>
  40880b:	83 e8 01             	sub    $0x1,%eax
  40880e:	89 43 20             	mov    %eax,0x20(%rbx)
  408811:	5b                   	pop    %rbx
  408812:	c3                   	retq   
  408813:	0f 1f 44 00 00       	nopl   0x0(%rax,%rax,1)
  408818:	e8 93 f1 ff ff       	callq  4079b0 <_ZN13Array2DWorkerIdE14getColumnCountEv>
  40881d:	83 e8 01             	sub    $0x1,%eax
  408820:	89 43 20             	mov    %eax,0x20(%rbx)
  408823:	5b                   	pop    %rbx
  408824:	c3                   	retq   
  408825:	66 2e 0f 1f 84 00 00 	nopw   %cs:0x0(%rax,%rax,1)
  40882c:	00 00 00 
  40882f:	90                   	nop

0000000000408830 <_ZN21CircularArray2DWorkerIdE8toStringEv>:
  408830:	41 55                	push   %r13
  408832:	45 31 ed             	xor    %r13d,%r13d
  408835:	41 54                	push   %r12
  408837:	55                   	push   %rbp
  408838:	48 89 fd             	mov    %rdi,%rbp
  40883b:	48 89 ef             	mov    %rbp,%rdi
  40883e:	53                   	push   %rbx
  40883f:	48 83 ec 08          	sub    $0x8,%rsp
  408843:	e8 58 f1 ff ff       	callq  4079a0 <_ZN13Array2DWorkerIdE11getRowCountEv>
  408848:	41 39 c5             	cmp    %eax,%r13d
  40884b:	0f 8d 96 00 00 00    	jge    4088e7 <_ZN21CircularArray2DWorkerIdE8toStringEv+0xb7>
  408851:	0f 1f 80 00 00 00 00 	nopl   0x0(%rax)
  408858:	31 db                	xor    %ebx,%ebx
  40885a:	4c 8b 25 77 d7 20 00 	mov    0x20d777(%rip),%r12        # 615fd8 <_DYNAMIC+0x248>
  408861:	eb 31                	jmp    408894 <_ZN21CircularArray2DWorkerIdE8toStringEv+0x64>
  408863:	0f 1f 44 00 00       	nopl   0x0(%rax,%rax,1)
  408868:	89 da                	mov    %ebx,%edx
  40886a:	44 89 ee             	mov    %r13d,%esi
  40886d:	48 89 ef             	mov    %rbp,%rdi
  408870:	e8 6b f1 ff ff       	callq  4079e0 <_ZN13Array2DWorkerIdE2atEii>
  408875:	4c 89 e7             	mov    %r12,%rdi
  408878:	83 c3 01             	add    $0x1,%ebx
  40887b:	e8 f0 cd ff ff       	callq  405670 <_ZNSo9_M_insertIdEERSoT_@plt>
  408880:	48 8d 35 9d 62 00 00 	lea    0x629d(%rip),%rsi        # 40eb24 <_IO_stdin_used+0xe4>
  408887:	ba 01 00 00 00       	mov    $0x1,%edx
  40888c:	48 89 c7             	mov    %rax,%rdi
  40888f:	e8 7c d0 ff ff       	callq  405910 <_ZSt16__ostream_insertIcSt11char_traitsIcEERSt13basic_ostreamIT_T0_ES6_PKS3_l@plt>
  408894:	48 89 ef             	mov    %rbp,%rdi
  408897:	e8 14 f1 ff ff       	callq  4079b0 <_ZN13Array2DWorkerIdE14getColumnCountEv>
  40889c:	39 c3                	cmp    %eax,%ebx
  40889e:	7c c8                	jl     408868 <_ZN21CircularArray2DWorkerIdE8toStringEv+0x38>
  4088a0:	49 8b 04 24          	mov    (%r12),%rax
  4088a4:	48 8b 40 e8          	mov    -0x18(%rax),%rax
  4088a8:	4a 8b 9c 20 f0 00 00 	mov    0xf0(%rax,%r12,1),%rbx
  4088af:	00 
  4088b0:	48 85 db             	test   %rbx,%rbx
  4088b3:	74 5b                	je     408910 <_ZN21CircularArray2DWorkerIdE8toStringEv+0xe0>
  4088b5:	80 7b 38 00          	cmpb   $0x0,0x38(%rbx)
  4088b9:	74 3d                	je     4088f8 <_ZN21CircularArray2DWorkerIdE8toStringEv+0xc8>
  4088bb:	0f b6 43 43          	movzbl 0x43(%rbx),%eax
  4088bf:	0f be f0             	movsbl %al,%esi
  4088c2:	4c 89 e7             	mov    %r12,%rdi
  4088c5:	41 83 c5 01          	add    $0x1,%r13d
  4088c9:	e8 62 cb ff ff       	callq  405430 <_ZNSo3putEc@plt>
  4088ce:	48 89 c7             	mov    %rax,%rdi
  4088d1:	e8 da ca ff ff       	callq  4053b0 <_ZNSo5flushEv@plt>
  4088d6:	48 89 ef             	mov    %rbp,%rdi
  4088d9:	e8 c2 f0 ff ff       	callq  4079a0 <_ZN13Array2DWorkerIdE11getRowCountEv>
  4088de:	41 39 c5             	cmp    %eax,%r13d
  4088e1:	0f 8c 71 ff ff ff    	jl     408858 <_ZN21CircularArray2DWorkerIdE8toStringEv+0x28>
  4088e7:	48 83 c4 08          	add    $0x8,%rsp
  4088eb:	5b                   	pop    %rbx
  4088ec:	5d                   	pop    %rbp
  4088ed:	41 5c                	pop    %r12
  4088ef:	41 5d                	pop    %r13
  4088f1:	c3                   	retq   
  4088f2:	66 0f 1f 44 00 00    	nopw   0x0(%rax,%rax,1)
  4088f8:	48 89 df             	mov    %rbx,%rdi
  4088fb:	e8 a0 ca ff ff       	callq  4053a0 <_ZNKSt5ctypeIcE13_M_widen_initEv@plt>
  408900:	48 8b 03             	mov    (%rbx),%rax
  408903:	be 0a 00 00 00       	mov    $0xa,%esi
  408908:	48 89 df             	mov    %rbx,%rdi
  40890b:	ff 50 30             	callq  *0x30(%rax)
  40890e:	eb af                	jmp    4088bf <_ZN21CircularArray2DWorkerIdE8toStringEv+0x8f>
  408910:	e8 fb c8 ff ff       	callq  405210 <_ZSt16__throw_bad_castv@plt>
  408915:	66 2e 0f 1f 84 00 00 	nopw   %cs:0x0(%rax,%rax,1)
  40891c:	00 00 00 
  40891f:	90                   	nop

0000000000408920 <_ZN15SpectrogramDataIdED1Ev>:
  408920:	48 8d 05 f9 ca 20 00 	lea    0x20caf9(%rip),%rax        # 615420 <_ZTV15SpectrogramDataIdE>
  408927:	48 83 c0 10          	add    $0x10,%rax
  40892b:	48 89 07             	mov    %rax,(%rdi)
  40892e:	e9 4d cc ff ff       	jmpq   405580 <_ZN13QwtRasterDataD2Ev@plt>
