
ProducerConsumer3:     file format elf64-x86-64


Disassembly of section .init:

0000000000404f48 <_init>:
  404f48:	48 83 ec 08          	sub    $0x8,%rsp
  404f4c:	48 8b 05 7d 10 21 00 	mov    0x21107d(%rip),%rax        # 615fd0 <_DYNAMIC+0x240>
  404f53:	48 85 c0             	test   %rax,%rax
  404f56:	74 05                	je     404f5d <_init+0x15>
  404f58:	e8 73 03 00 00       	callq  4052d0 <__gmon_start__@plt>
  404f5d:	48 83 c4 08          	add    $0x8,%rsp
  404f61:	c3                   	retq   

Disassembly of section .plt:

0000000000404f70 <_ZN6QMutexC1ENS_13RecursionModeE@plt-0x10>:
  404f70:	ff 35 92 10 21 00    	pushq  0x211092(%rip)        # 616008 <_GLOBAL_OFFSET_TABLE_+0x8>
  404f76:	ff 25 94 10 21 00    	jmpq   *0x211094(%rip)        # 616010 <_GLOBAL_OFFSET_TABLE_+0x10>
  404f7c:	0f 1f 40 00          	nopl   0x0(%rax)

0000000000404f80 <_ZN6QMutexC1ENS_13RecursionModeE@plt>:
  404f80:	ff 25 92 10 21 00    	jmpq   *0x211092(%rip)        # 616018 <_GLOBAL_OFFSET_TABLE_+0x18>
  404f86:	68 00 00 00 00       	pushq  $0x0
  404f8b:	e9 e0 ff ff ff       	jmpq   404f70 <_init+0x28>

0000000000404f90 <_ZN12QApplicationD1Ev@plt>:
  404f90:	ff 25 8a 10 21 00    	jmpq   *0x21108a(%rip)        # 616020 <_GLOBAL_OFFSET_TABLE_+0x20>
  404f96:	68 01 00 00 00       	pushq  $0x1
  404f9b:	e9 d0 ff ff ff       	jmpq   404f70 <_init+0x28>

0000000000404fa0 <_ZN7QWidget10paintEventEP11QPaintEvent@plt>:
  404fa0:	ff 25 82 10 21 00    	jmpq   *0x211082(%rip)        # 616028 <_GLOBAL_OFFSET_TABLE_+0x28>
  404fa6:	68 02 00 00 00       	pushq  $0x2
  404fab:	e9 c0 ff ff ff       	jmpq   404f70 <_init+0x28>

0000000000404fb0 <_ZN7QWidget13dragMoveEventEP14QDragMoveEvent@plt>:
  404fb0:	ff 25 7a 10 21 00    	jmpq   *0x21107a(%rip)        # 616030 <_GLOBAL_OFFSET_TABLE_+0x30>
  404fb6:	68 03 00 00 00       	pushq  $0x3
  404fbb:	e9 b0 ff ff ff       	jmpq   404f70 <_init+0x28>

0000000000404fc0 <memcpy@plt>:
  404fc0:	ff 25 72 10 21 00    	jmpq   *0x211072(%rip)        # 616038 <_GLOBAL_OFFSET_TABLE_+0x38>
  404fc6:	68 04 00 00 00       	pushq  $0x4
  404fcb:	e9 a0 ff ff ff       	jmpq   404f70 <_init+0x28>

0000000000404fd0 <_ZN7QWidget9showEventEP10QShowEvent@plt>:
  404fd0:	ff 25 6a 10 21 00    	jmpq   *0x21106a(%rip)        # 616040 <_GLOBAL_OFFSET_TABLE_+0x40>
  404fd6:	68 05 00 00 00       	pushq  $0x5
  404fdb:	e9 90 ff ff ff       	jmpq   404f70 <_init+0x28>

0000000000404fe0 <_ZN7QwtPlot11qt_metacallEN11QMetaObject4CallEiPPv@plt>:
  404fe0:	ff 25 62 10 21 00    	jmpq   *0x211062(%rip)        # 616048 <_GLOBAL_OFFSET_TABLE_+0x48>
  404fe6:	68 06 00 00 00       	pushq  $0x6
  404feb:	e9 80 ff ff ff       	jmpq   404f70 <_init+0x28>

0000000000404ff0 <_ZN6QBrushC1EN2Qt11GlobalColorENS0_10BrushStyleE@plt>:
  404ff0:	ff 25 5a 10 21 00    	jmpq   *0x21105a(%rip)        # 616050 <_GLOBAL_OFFSET_TABLE_+0x50>
  404ff6:	68 07 00 00 00       	pushq  $0x7
  404ffb:	e9 70 ff ff ff       	jmpq   404f70 <_init+0x28>

0000000000405000 <_ZN14QWaitCondition7wakeAllEv@plt>:
  405000:	ff 25 52 10 21 00    	jmpq   *0x211052(%rip)        # 616058 <_GLOBAL_OFFSET_TABLE_+0x58>
  405006:	68 08 00 00 00       	pushq  $0x8
  40500b:	e9 60 ff ff ff       	jmpq   404f70 <_init+0x28>

0000000000405010 <_ZN7QWidget6resizeERK5QSize@plt>:
  405010:	ff 25 4a 10 21 00    	jmpq   *0x21104a(%rip)        # 616060 <_GLOBAL_OFFSET_TABLE_+0x60>
  405016:	68 09 00 00 00       	pushq  $0x9
  40501b:	e9 50 ff ff ff       	jmpq   404f70 <_init+0x28>

0000000000405020 <_ZN12QProgressBarC1EP7QWidget@plt>:
  405020:	ff 25 42 10 21 00    	jmpq   *0x211042(%rip)        # 616068 <_GLOBAL_OFFSET_TABLE_+0x68>
  405026:	68 0a 00 00 00       	pushq  $0xa
  40502b:	e9 40 ff ff ff       	jmpq   404f70 <_init+0x28>

0000000000405030 <_ZN7QwtPlot5eventEP6QEvent@plt>:
  405030:	ff 25 3a 10 21 00    	jmpq   *0x21103a(%rip)        # 616070 <_GLOBAL_OFFSET_TABLE_+0x70>
  405036:	68 0b 00 00 00       	pushq  $0xb
  40503b:	e9 30 ff ff ff       	jmpq   404f70 <_init+0x28>

0000000000405040 <_ZNSo9_M_insertIeEERSoT_@plt>:
  405040:	ff 25 32 10 21 00    	jmpq   *0x211032(%rip)        # 616078 <_GLOBAL_OFFSET_TABLE_+0x78>
  405046:	68 0c 00 00 00       	pushq  $0xc
  40504b:	e9 20 ff ff ff       	jmpq   404f70 <_init+0x28>

0000000000405050 <_ZThn16_NK7QWidget6metricEN12QPaintDevice17PaintDeviceMetricE@plt>:
  405050:	ff 25 2a 10 21 00    	jmpq   *0x21102a(%rip)        # 616080 <_GLOBAL_OFFSET_TABLE_+0x80>
  405056:	68 0d 00 00 00       	pushq  $0xd
  40505b:	e9 10 ff ff ff       	jmpq   404f70 <_init+0x28>

0000000000405060 <_Znwm@plt>:
  405060:	ff 25 22 10 21 00    	jmpq   *0x211022(%rip)        # 616088 <_GLOBAL_OFFSET_TABLE_+0x88>
  405066:	68 0e 00 00 00       	pushq  $0xe
  40506b:	e9 00 ff ff ff       	jmpq   404f70 <_init+0x28>

0000000000405070 <_ZN6QBrushD1Ev@plt>:
  405070:	ff 25 1a 10 21 00    	jmpq   *0x21101a(%rip)        # 616090 <_GLOBAL_OFFSET_TABLE_+0x90>
  405076:	68 0f 00 00 00       	pushq  $0xf
  40507b:	e9 f0 fe ff ff       	jmpq   404f70 <_init+0x28>

0000000000405080 <_ZN11QMainWindow5eventEP6QEvent@plt>:
  405080:	ff 25 12 10 21 00    	jmpq   *0x211012(%rip)        # 616098 <_GLOBAL_OFFSET_TABLE_+0x98>
  405086:	68 10 00 00 00       	pushq  $0x10
  40508b:	e9 e0 fe ff ff       	jmpq   404f70 <_init+0x28>

0000000000405090 <_ZN11QMetaObject10ConnectionD1Ev@plt>:
  405090:	ff 25 0a 10 21 00    	jmpq   *0x21100a(%rip)        # 6160a0 <_GLOBAL_OFFSET_TABLE_+0xa0>
  405096:	68 11 00 00 00       	pushq  $0x11
  40509b:	e9 d0 fe ff ff       	jmpq   404f70 <_init+0x28>

00000000004050a0 <_ZN11QMainWindowD2Ev@plt>:
  4050a0:	ff 25 02 10 21 00    	jmpq   *0x211002(%rip)        # 6160a8 <_GLOBAL_OFFSET_TABLE_+0xa8>
  4050a6:	68 12 00 00 00       	pushq  $0x12
  4050ab:	e9 c0 fe ff ff       	jmpq   404f70 <_init+0x28>

00000000004050b0 <_ZN6QColor6setRgbEiiii@plt>:
  4050b0:	ff 25 fa 0f 21 00    	jmpq   *0x210ffa(%rip)        # 6160b0 <_GLOBAL_OFFSET_TABLE_+0xb0>
  4050b6:	68 13 00 00 00       	pushq  $0x13
  4050bb:	e9 b0 fe ff ff       	jmpq   404f70 <_init+0x28>

00000000004050c0 <_ZN17QwtPlotRasterItem8setAlphaEi@plt>:
  4050c0:	ff 25 f2 0f 21 00    	jmpq   *0x210ff2(%rip)        # 6160b8 <_GLOBAL_OFFSET_TABLE_+0xb8>
  4050c6:	68 14 00 00 00       	pushq  $0x14
  4050cb:	e9 a0 fe ff ff       	jmpq   404f70 <_init+0x28>

00000000004050d0 <_ZN7QWidget16inputMethodEventEP17QInputMethodEvent@plt>:
  4050d0:	ff 25 ea 0f 21 00    	jmpq   *0x210fea(%rip)        # 6160c0 <_GLOBAL_OFFSET_TABLE_+0xc0>
  4050d6:	68 15 00 00 00       	pushq  $0x15
  4050db:	e9 90 fe ff ff       	jmpq   404f70 <_init+0x28>

00000000004050e0 <_ZN7QString15fromUtf8_helperEPKci@plt>:
  4050e0:	ff 25 e2 0f 21 00    	jmpq   *0x210fe2(%rip)        # 6160c8 <_GLOBAL_OFFSET_TABLE_+0xc8>
  4050e6:	68 16 00 00 00       	pushq  $0x16
  4050eb:	e9 80 fe ff ff       	jmpq   404f70 <_init+0x28>

00000000004050f0 <_ZNK7QObject10objectNameEv@plt>:
  4050f0:	ff 25 da 0f 21 00    	jmpq   *0x210fda(%rip)        # 6160d0 <_GLOBAL_OFFSET_TABLE_+0xd0>
  4050f6:	68 17 00 00 00       	pushq  $0x17
  4050fb:	e9 70 fe ff ff       	jmpq   404f70 <_init+0x28>

0000000000405100 <_ZNK17QwtLinearColorMap10colorIndexERK11QwtIntervald@plt>:
  405100:	ff 25 d2 0f 21 00    	jmpq   *0x210fd2(%rip)        # 6160d8 <_GLOBAL_OFFSET_TABLE_+0xd8>
  405106:	68 18 00 00 00       	pushq  $0x18
  40510b:	e9 60 fe ff ff       	jmpq   404f70 <_init+0x28>

0000000000405110 <_ZN7QWidget17mouseReleaseEventEP11QMouseEvent@plt>:
  405110:	ff 25 ca 0f 21 00    	jmpq   *0x210fca(%rip)        # 6160e0 <_GLOBAL_OFFSET_TABLE_+0xe0>
  405116:	68 19 00 00 00       	pushq  $0x19
  40511b:	e9 50 fe ff ff       	jmpq   404f70 <_init+0x28>

0000000000405120 <_ZN7QObject10childEventEP11QChildEvent@plt>:
  405120:	ff 25 c2 0f 21 00    	jmpq   *0x210fc2(%rip)        # 6160e8 <_GLOBAL_OFFSET_TABLE_+0xe8>
  405126:	68 1a 00 00 00       	pushq  $0x1a
  40512b:	e9 40 fe ff ff       	jmpq   404f70 <_init+0x28>

0000000000405130 <_ZNK7QwtPlot15minimumSizeHintEv@plt>:
  405130:	ff 25 ba 0f 21 00    	jmpq   *0x210fba(%rip)        # 6160f0 <_GLOBAL_OFFSET_TABLE_+0xf0>
  405136:	68 1b 00 00 00       	pushq  $0x1b
  40513b:	e9 30 fe ff ff       	jmpq   404f70 <_init+0x28>

0000000000405140 <_ZN7QwtPlot10enableAxisEib@plt>:
  405140:	ff 25 b2 0f 21 00    	jmpq   *0x210fb2(%rip)        # 6160f8 <_GLOBAL_OFFSET_TABLE_+0xf8>
  405146:	68 1c 00 00 00       	pushq  $0x1c
  40514b:	e9 20 fe ff ff       	jmpq   404f70 <_init+0x28>

0000000000405150 <_ZN13QwtRasterData11setIntervalEN2Qt4AxisERK11QwtInterval@plt>:
  405150:	ff 25 aa 0f 21 00    	jmpq   *0x210faa(%rip)        # 616100 <_GLOBAL_OFFSET_TABLE_+0x100>
  405156:	68 1d 00 00 00       	pushq  $0x1d
  40515b:	e9 10 fe ff ff       	jmpq   404f70 <_init+0x28>

0000000000405160 <_ZNK7QWidget11paintEngineEv@plt>:
  405160:	ff 25 a2 0f 21 00    	jmpq   *0x210fa2(%rip)        # 616108 <_GLOBAL_OFFSET_TABLE_+0x108>
  405166:	68 1e 00 00 00       	pushq  $0x1e
  40516b:	e9 00 fe ff ff       	jmpq   404f70 <_init+0x28>

0000000000405170 <_ZN7QWidget13keyPressEventEP9QKeyEvent@plt>:
  405170:	ff 25 9a 0f 21 00    	jmpq   *0x210f9a(%rip)        # 616110 <_GLOBAL_OFFSET_TABLE_+0x110>
  405176:	68 1f 00 00 00       	pushq  $0x1f
  40517b:	e9 f0 fd ff ff       	jmpq   404f70 <_init+0x28>

0000000000405180 <_ZN11QMainWindow11qt_metacallEN11QMetaObject4CallEiPPv@plt>:
  405180:	ff 25 92 0f 21 00    	jmpq   *0x210f92(%rip)        # 616118 <_GLOBAL_OFFSET_TABLE_+0x118>
  405186:	68 20 00 00 00       	pushq  $0x20
  40518b:	e9 e0 fd ff ff       	jmpq   404f70 <_init+0x28>

0000000000405190 <_ZN7QThread11qt_metacastEPKc@plt>:
  405190:	ff 25 8a 0f 21 00    	jmpq   *0x210f8a(%rip)        # 616120 <_GLOBAL_OFFSET_TABLE_+0x120>
  405196:	68 21 00 00 00       	pushq  $0x21
  40519b:	e9 d0 fd ff ff       	jmpq   404f70 <_init+0x28>

00000000004051a0 <_ZN13QwtRasterData10initRasterERK6QRectFRK5QSize@plt>:
  4051a0:	ff 25 82 0f 21 00    	jmpq   *0x210f82(%rip)        # 616128 <_GLOBAL_OFFSET_TABLE_+0x128>
  4051a6:	68 22 00 00 00       	pushq  $0x22
  4051ab:	e9 c0 fd ff ff       	jmpq   404f70 <_init+0x28>

00000000004051b0 <_ZNK7QWidget11initPainterEP8QPainter@plt>:
  4051b0:	ff 25 7a 0f 21 00    	jmpq   *0x210f7a(%rip)        # 616130 <_GLOBAL_OFFSET_TABLE_+0x130>
  4051b6:	68 23 00 00 00       	pushq  $0x23
  4051bb:	e9 b0 fd ff ff       	jmpq   404f70 <_init+0x28>

00000000004051c0 <memset@plt>:
  4051c0:	ff 25 72 0f 21 00    	jmpq   *0x210f72(%rip)        # 616138 <_GLOBAL_OFFSET_TABLE_+0x138>
  4051c6:	68 24 00 00 00       	pushq  $0x24
  4051cb:	e9 a0 fd ff ff       	jmpq   404f70 <_init+0x28>

00000000004051d0 <_ZN7QWidget14dragEnterEventEP15QDragEnterEvent@plt>:
  4051d0:	ff 25 6a 0f 21 00    	jmpq   *0x210f6a(%rip)        # 616140 <_GLOBAL_OFFSET_TABLE_+0x140>
  4051d6:	68 25 00 00 00       	pushq  $0x25
  4051db:	e9 90 fd ff ff       	jmpq   404f70 <_init+0x28>

00000000004051e0 <_ZN18QwtPlotSpectrogram14setDisplayModeENS_11DisplayModeEb@plt>:
  4051e0:	ff 25 62 0f 21 00    	jmpq   *0x210f62(%rip)        # 616148 <_GLOBAL_OFFSET_TABLE_+0x148>
  4051e6:	68 26 00 00 00       	pushq  $0x26
  4051eb:	e9 80 fd ff ff       	jmpq   404f70 <_init+0x28>

00000000004051f0 <_ZNSolsEi@plt>:
  4051f0:	ff 25 5a 0f 21 00    	jmpq   *0x210f5a(%rip)        # 616150 <_GLOBAL_OFFSET_TABLE_+0x150>
  4051f6:	68 27 00 00 00       	pushq  $0x27
  4051fb:	e9 70 fd ff ff       	jmpq   404f70 <_init+0x28>

0000000000405200 <_ZN7QObject10timerEventEP11QTimerEvent@plt>:
  405200:	ff 25 52 0f 21 00    	jmpq   *0x210f52(%rip)        # 616158 <_GLOBAL_OFFSET_TABLE_+0x158>
  405206:	68 28 00 00 00       	pushq  $0x28
  40520b:	e9 60 fd ff ff       	jmpq   404f70 <_init+0x28>

0000000000405210 <_ZSt16__throw_bad_castv@plt>:
  405210:	ff 25 4a 0f 21 00    	jmpq   *0x210f4a(%rip)        # 616160 <_GLOBAL_OFFSET_TABLE_+0x160>
  405216:	68 29 00 00 00       	pushq  $0x29
  40521b:	e9 50 fd ff ff       	jmpq   404f70 <_init+0x28>

0000000000405220 <_ZNK7QwtPlot10itemToInfoEP11QwtPlotItem@plt>:
  405220:	ff 25 42 0f 21 00    	jmpq   *0x210f42(%rip)        # 616168 <_GLOBAL_OFFSET_TABLE_+0x168>
  405226:	68 2a 00 00 00       	pushq  $0x2a
  40522b:	e9 40 fd ff ff       	jmpq   404f70 <_init+0x28>

0000000000405230 <_ZN7QwtPlot11resizeEventEP12QResizeEvent@plt>:
  405230:	ff 25 3a 0f 21 00    	jmpq   *0x210f3a(%rip)        # 616170 <_GLOBAL_OFFSET_TABLE_+0x170>
  405236:	68 2b 00 00 00       	pushq  $0x2b
  40523b:	e9 30 fd ff ff       	jmpq   404f70 <_init+0x28>

0000000000405240 <_ZNK7QwtPlot20getCanvasMarginsHintEPK11QwtScaleMapRK6QRectFRdS6_S6_S6_@plt>:
  405240:	ff 25 32 0f 21 00    	jmpq   *0x210f32(%rip)        # 616178 <_GLOBAL_OFFSET_TABLE_+0x178>
  405246:	68 2c 00 00 00       	pushq  $0x2c
  40524b:	e9 20 fd ff ff       	jmpq   404f70 <_init+0x28>

0000000000405250 <_ZN7QLayout18setContentsMarginsEiiii@plt>:
  405250:	ff 25 2a 0f 21 00    	jmpq   *0x210f2a(%rip)        # 616180 <_GLOBAL_OFFSET_TABLE_+0x180>
  405256:	68 2d 00 00 00       	pushq  $0x2d
  40525b:	e9 10 fd ff ff       	jmpq   404f70 <_init+0x28>

0000000000405260 <_ZdaPv@plt>:
  405260:	ff 25 22 0f 21 00    	jmpq   *0x210f22(%rip)        # 616188 <_GLOBAL_OFFSET_TABLE_+0x188>
  405266:	68 2e 00 00 00       	pushq  $0x2e
  40526b:	e9 00 fd ff ff       	jmpq   404f70 <_init+0x28>

0000000000405270 <_ZN7QwtPlot11qt_metacastEPKc@plt>:
  405270:	ff 25 1a 0f 21 00    	jmpq   *0x210f1a(%rip)        # 616190 <_GLOBAL_OFFSET_TABLE_+0x190>
  405276:	68 2f 00 00 00       	pushq  $0x2f
  40527b:	e9 f0 fc ff ff       	jmpq   404f70 <_init+0x28>

0000000000405280 <_ZNK7QWidget7devTypeEv@plt>:
  405280:	ff 25 12 0f 21 00    	jmpq   *0x210f12(%rip)        # 616198 <_GLOBAL_OFFSET_TABLE_+0x198>
  405286:	68 30 00 00 00       	pushq  $0x30
  40528b:	e9 e0 fc ff ff       	jmpq   404f70 <_init+0x28>

0000000000405290 <_ZN7QWidget11actionEventEP12QActionEvent@plt>:
  405290:	ff 25 0a 0f 21 00    	jmpq   *0x210f0a(%rip)        # 6161a0 <_GLOBAL_OFFSET_TABLE_+0x1a0>
  405296:	68 31 00 00 00       	pushq  $0x31
  40529b:	e9 d0 fc ff ff       	jmpq   404f70 <_init+0x28>

00000000004052a0 <_ZN7QwtPlotD2Ev@plt>:
  4052a0:	ff 25 02 0f 21 00    	jmpq   *0x210f02(%rip)        # 6161a8 <_GLOBAL_OFFSET_TABLE_+0x1a8>
  4052a6:	68 32 00 00 00       	pushq  $0x32
  4052ab:	e9 c0 fc ff ff       	jmpq   404f70 <_init+0x28>

00000000004052b0 <_ZN7QObject11customEventEP6QEvent@plt>:
  4052b0:	ff 25 fa 0e 21 00    	jmpq   *0x210efa(%rip)        # 6161b0 <_GLOBAL_OFFSET_TABLE_+0x1b0>
  4052b6:	68 33 00 00 00       	pushq  $0x33
  4052bb:	e9 b0 fc ff ff       	jmpq   404f70 <_init+0x28>

00000000004052c0 <_ZThn16_NK7QWidget11initPainterEP8QPainter@plt>:
  4052c0:	ff 25 f2 0e 21 00    	jmpq   *0x210ef2(%rip)        # 6161b8 <_GLOBAL_OFFSET_TABLE_+0x1b8>
  4052c6:	68 34 00 00 00       	pushq  $0x34
  4052cb:	e9 a0 fc ff ff       	jmpq   404f70 <_init+0x28>

00000000004052d0 <__gmon_start__@plt>:
  4052d0:	ff 25 ea 0e 21 00    	jmpq   *0x210eea(%rip)        # 6161c0 <_GLOBAL_OFFSET_TABLE_+0x1c0>
  4052d6:	68 35 00 00 00       	pushq  $0x35
  4052db:	e9 90 fc ff ff       	jmpq   404f70 <_init+0x28>

00000000004052e0 <_ZN17QwtLinearColorMapC2EN11QwtColorMap6FormatE@plt>:
  4052e0:	ff 25 e2 0e 21 00    	jmpq   *0x210ee2(%rip)        # 6161c8 <_GLOBAL_OFFSET_TABLE_+0x1c8>
  4052e6:	68 36 00 00 00       	pushq  $0x36
  4052eb:	e9 80 fc ff ff       	jmpq   404f70 <_init+0x28>

00000000004052f0 <_ZN18QwtPlotSpectrogram20setDefaultContourPenERK4QPen@plt>:
  4052f0:	ff 25 da 0e 21 00    	jmpq   *0x210eda(%rip)        # 6161d0 <_GLOBAL_OFFSET_TABLE_+0x1d0>
  4052f6:	68 37 00 00 00       	pushq  $0x37
  4052fb:	e9 70 fc ff ff       	jmpq   404f70 <_init+0x28>

0000000000405300 <_ZNK7QWidget10redirectedEP6QPoint@plt>:
  405300:	ff 25 d2 0e 21 00    	jmpq   *0x210ed2(%rip)        # 6161d8 <_GLOBAL_OFFSET_TABLE_+0x1d8>
  405306:	68 38 00 00 00       	pushq  $0x38
  40530b:	e9 60 fc ff ff       	jmpq   404f70 <_init+0x28>

0000000000405310 <_ZNK7QWidget16inputMethodQueryEN2Qt16InputMethodQueryE@plt>:
  405310:	ff 25 ca 0e 21 00    	jmpq   *0x210eca(%rip)        # 6161e0 <_GLOBAL_OFFSET_TABLE_+0x1e0>
  405316:	68 39 00 00 00       	pushq  $0x39
  40531b:	e9 50 fc ff ff       	jmpq   404f70 <_init+0x28>

0000000000405320 <_ZN7QWidget10leaveEventEP6QEvent@plt>:
  405320:	ff 25 c2 0e 21 00    	jmpq   *0x210ec2(%rip)        # 6161e8 <_GLOBAL_OFFSET_TABLE_+0x1e8>
  405326:	68 3a 00 00 00       	pushq  $0x3a
  40532b:	e9 40 fc ff ff       	jmpq   404f70 <_init+0x28>

0000000000405330 <_ZNK7QWidget8sizeHintEv@plt>:
  405330:	ff 25 ba 0e 21 00    	jmpq   *0x210eba(%rip)        # 6161f0 <_GLOBAL_OFFSET_TABLE_+0x1f0>
  405336:	68 3b 00 00 00       	pushq  $0x3b
  40533b:	e9 30 fc ff ff       	jmpq   404f70 <_init+0x28>

0000000000405340 <_ZN7QwtPlot12updateLayoutEv@plt>:
  405340:	ff 25 b2 0e 21 00    	jmpq   *0x210eb2(%rip)        # 6161f8 <_GLOBAL_OFFSET_TABLE_+0x1f8>
  405346:	68 3c 00 00 00       	pushq  $0x3c
  40534b:	e9 20 fc ff ff       	jmpq   404f70 <_init+0x28>

0000000000405350 <_ZN7QwtPlot10axisWidgetEi@plt>:
  405350:	ff 25 aa 0e 21 00    	jmpq   *0x210eaa(%rip)        # 616200 <_GLOBAL_OFFSET_TABLE_+0x200>
  405356:	68 3d 00 00 00       	pushq  $0x3d
  40535b:	e9 10 fc ff ff       	jmpq   404f70 <_init+0x28>

0000000000405360 <_Znam@plt>:
  405360:	ff 25 a2 0e 21 00    	jmpq   *0x210ea2(%rip)        # 616208 <_GLOBAL_OFFSET_TABLE_+0x208>
  405366:	68 3e 00 00 00       	pushq  $0x3e
  40536b:	e9 00 fc ff ff       	jmpq   404f70 <_init+0x28>

0000000000405370 <_ZNK7QWidget15minimumSizeHintEv@plt>:
  405370:	ff 25 9a 0e 21 00    	jmpq   *0x210e9a(%rip)        # 616210 <_GLOBAL_OFFSET_TABLE_+0x210>
  405376:	68 3f 00 00 00       	pushq  $0x3f
  40537b:	e9 f0 fb ff ff       	jmpq   404f70 <_init+0x28>

0000000000405380 <_ZThn16_NK7QWidget10redirectedEP6QPoint@plt>:
  405380:	ff 25 92 0e 21 00    	jmpq   *0x210e92(%rip)        # 616218 <_GLOBAL_OFFSET_TABLE_+0x218>
  405386:	68 40 00 00 00       	pushq  $0x40
  40538b:	e9 e0 fb ff ff       	jmpq   404f70 <_init+0x28>

0000000000405390 <_ZN18QwtPlotSpectrogram7setDataEP13QwtRasterData@plt>:
  405390:	ff 25 8a 0e 21 00    	jmpq   *0x210e8a(%rip)        # 616220 <_GLOBAL_OFFSET_TABLE_+0x220>
  405396:	68 41 00 00 00       	pushq  $0x41
  40539b:	e9 d0 fb ff ff       	jmpq   404f70 <_init+0x28>

00000000004053a0 <_ZNKSt5ctypeIcE13_M_widen_initEv@plt>:
  4053a0:	ff 25 82 0e 21 00    	jmpq   *0x210e82(%rip)        # 616228 <_GLOBAL_OFFSET_TABLE_+0x228>
  4053a6:	68 42 00 00 00       	pushq  $0x42
  4053ab:	e9 c0 fb ff ff       	jmpq   404f70 <_init+0x28>

00000000004053b0 <_ZNSo5flushEv@plt>:
  4053b0:	ff 25 7a 0e 21 00    	jmpq   *0x210e7a(%rip)        # 616230 <_GLOBAL_OFFSET_TABLE_+0x230>
  4053b6:	68 43 00 00 00       	pushq  $0x43
  4053bb:	e9 b0 fb ff ff       	jmpq   404f70 <_init+0x28>

00000000004053c0 <gettimeofday@plt>:
  4053c0:	ff 25 72 0e 21 00    	jmpq   *0x210e72(%rip)        # 616238 <_GLOBAL_OFFSET_TABLE_+0x238>
  4053c6:	68 44 00 00 00       	pushq  $0x44
  4053cb:	e9 a0 fb ff ff       	jmpq   404f70 <_init+0x28>

00000000004053d0 <_ZN7QWidget21mouseDoubleClickEventEP11QMouseEvent@plt>:
  4053d0:	ff 25 6a 0e 21 00    	jmpq   *0x210e6a(%rip)        # 616240 <_GLOBAL_OFFSET_TABLE_+0x240>
  4053d6:	68 45 00 00 00       	pushq  $0x45
  4053db:	e9 90 fb ff ff       	jmpq   404f70 <_init+0x28>

00000000004053e0 <_ZN7QWidget11resizeEventEP12QResizeEvent@plt>:
  4053e0:	ff 25 62 0e 21 00    	jmpq   *0x210e62(%rip)        # 616248 <_GLOBAL_OFFSET_TABLE_+0x248>
  4053e6:	68 46 00 00 00       	pushq  $0x46
  4053eb:	e9 80 fb ff ff       	jmpq   404f70 <_init+0x28>

00000000004053f0 <_ZN7QWidget11changeEventEP6QEvent@plt>:
  4053f0:	ff 25 5a 0e 21 00    	jmpq   *0x210e5a(%rip)        # 616250 <_GLOBAL_OFFSET_TABLE_+0x250>
  4053f6:	68 47 00 00 00       	pushq  $0x47
  4053fb:	e9 70 fb ff ff       	jmpq   404f70 <_init+0x28>

0000000000405400 <_ZN7QString16fromAscii_helperEPKci@plt>:
  405400:	ff 25 52 0e 21 00    	jmpq   *0x210e52(%rip)        # 616258 <_GLOBAL_OFFSET_TABLE_+0x258>
  405406:	68 48 00 00 00       	pushq  $0x48
  40540b:	e9 60 fb ff ff       	jmpq   404f70 <_init+0x28>

0000000000405410 <_ZNK11QwtColorMap10colorTableERK11QwtInterval@plt>:
  405410:	ff 25 4a 0e 21 00    	jmpq   *0x210e4a(%rip)        # 616260 <_GLOBAL_OFFSET_TABLE_+0x260>
  405416:	68 49 00 00 00       	pushq  $0x49
  40541b:	e9 50 fb ff ff       	jmpq   404f70 <_init+0x28>

0000000000405420 <_ZdlPv@plt>:
  405420:	ff 25 42 0e 21 00    	jmpq   *0x210e42(%rip)        # 616268 <_GLOBAL_OFFSET_TABLE_+0x268>
  405426:	68 4a 00 00 00       	pushq  $0x4a
  40542b:	e9 40 fb ff ff       	jmpq   404f70 <_init+0x28>

0000000000405430 <_ZNSo3putEc@plt>:
  405430:	ff 25 3a 0e 21 00    	jmpq   *0x210e3a(%rip)        # 616270 <_GLOBAL_OFFSET_TABLE_+0x270>
  405436:	68 4b 00 00 00       	pushq  $0x4b
  40543b:	e9 30 fb ff ff       	jmpq   404f70 <_init+0x28>

0000000000405440 <_ZN10QSemaphore10tryAcquireEii@plt>:
  405440:	ff 25 32 0e 21 00    	jmpq   *0x210e32(%rip)        # 616278 <_GLOBAL_OFFSET_TABLE_+0x278>
  405446:	68 4c 00 00 00       	pushq  $0x4c
  40544b:	e9 20 fb ff ff       	jmpq   404f70 <_init+0x28>

0000000000405450 <_ZN7QWidget4showEv@plt>:
  405450:	ff 25 2a 0e 21 00    	jmpq   *0x210e2a(%rip)        # 616280 <_GLOBAL_OFFSET_TABLE_+0x280>
  405456:	68 4d 00 00 00       	pushq  $0x4d
  40545b:	e9 10 fb ff ff       	jmpq   404f70 <_init+0x28>

0000000000405460 <_ZN7QWidget10wheelEventEP11QWheelEvent@plt>:
  405460:	ff 25 22 0e 21 00    	jmpq   *0x210e22(%rip)        # 616288 <_GLOBAL_OFFSET_TABLE_+0x288>
  405466:	68 4e 00 00 00       	pushq  $0x4e
  40546b:	e9 00 fb ff ff       	jmpq   404f70 <_init+0x28>

0000000000405470 <_ZN7QWidget18focusNextPrevChildEb@plt>:
  405470:	ff 25 1a 0e 21 00    	jmpq   *0x210e1a(%rip)        # 616290 <_GLOBAL_OFFSET_TABLE_+0x290>
  405476:	68 4f 00 00 00       	pushq  $0x4f
  40547b:	e9 f0 fa ff ff       	jmpq   404f70 <_init+0x28>

0000000000405480 <_ZNK17QwtLinearColorMap3rgbERK11QwtIntervald@plt>:
  405480:	ff 25 12 0e 21 00    	jmpq   *0x210e12(%rip)        # 616298 <_GLOBAL_OFFSET_TABLE_+0x298>
  405486:	68 50 00 00 00       	pushq  $0x50
  40548b:	e9 e0 fa ff ff       	jmpq   404f70 <_init+0x28>

0000000000405490 <_ZN18QwtPlotSpectrogramC1ERK7QString@plt>:
  405490:	ff 25 0a 0e 21 00    	jmpq   *0x210e0a(%rip)        # 6162a0 <_GLOBAL_OFFSET_TABLE_+0x2a0>
  405496:	68 51 00 00 00       	pushq  $0x51
  40549b:	e9 d0 fa ff ff       	jmpq   404f70 <_init+0x28>

00000000004054a0 <__gxx_personality_v0@plt>:
  4054a0:	ff 25 02 0e 21 00    	jmpq   *0x210e02(%rip)        # 6162a8 <_GLOBAL_OFFSET_TABLE_+0x2a8>
  4054a6:	68 52 00 00 00       	pushq  $0x52
  4054ab:	e9 c0 fa ff ff       	jmpq   404f70 <_init+0x28>

00000000004054b0 <_ZN6QLabel7setTextERK7QString@plt>:
  4054b0:	ff 25 fa 0d 21 00    	jmpq   *0x210dfa(%rip)        # 6162b0 <_GLOBAL_OFFSET_TABLE_+0x2b0>
  4054b6:	68 53 00 00 00       	pushq  $0x53
  4054bb:	e9 b0 fa ff ff       	jmpq   404f70 <_init+0x28>

00000000004054c0 <_ZN17QwtLinearColorMapD2Ev@plt>:
  4054c0:	ff 25 f2 0d 21 00    	jmpq   *0x210df2(%rip)        # 6162b8 <_GLOBAL_OFFSET_TABLE_+0x2b8>
  4054c6:	68 54 00 00 00       	pushq  $0x54
  4054cb:	e9 a0 fa ff ff       	jmpq   404f70 <_init+0x28>

00000000004054d0 <_ZN7QWidget9dropEventEP10QDropEvent@plt>:
  4054d0:	ff 25 ea 0d 21 00    	jmpq   *0x210dea(%rip)        # 6162c0 <_GLOBAL_OFFSET_TABLE_+0x2c0>
  4054d6:	68 55 00 00 00       	pushq  $0x55
  4054db:	e9 90 fa ff ff       	jmpq   404f70 <_init+0x28>

00000000004054e0 <_ZN7QwtPlot11eventFilterEP7QObjectP6QEvent@plt>:
  4054e0:	ff 25 e2 0d 21 00    	jmpq   *0x210de2(%rip)        # 6162c8 <_GLOBAL_OFFSET_TABLE_+0x2c8>
  4054e6:	68 56 00 00 00       	pushq  $0x56
  4054eb:	e9 80 fa ff ff       	jmpq   404f70 <_init+0x28>

00000000004054f0 <_ZN10QSemaphoreC1Ei@plt>:
  4054f0:	ff 25 da 0d 21 00    	jmpq   *0x210dda(%rip)        # 6162d0 <_GLOBAL_OFFSET_TABLE_+0x2d0>
  4054f6:	68 57 00 00 00       	pushq  $0x57
  4054fb:	e9 70 fa ff ff       	jmpq   404f70 <_init+0x28>

0000000000405500 <_ZN10QSemaphore7releaseEi@plt>:
  405500:	ff 25 d2 0d 21 00    	jmpq   *0x210dd2(%rip)        # 6162d8 <_GLOBAL_OFFSET_TABLE_+0x2d8>
  405506:	68 58 00 00 00       	pushq  $0x58
  40550b:	e9 60 fa ff ff       	jmpq   404f70 <_init+0x28>

0000000000405510 <_ZN14QWaitConditionC1Ev@plt>:
  405510:	ff 25 ca 0d 21 00    	jmpq   *0x210dca(%rip)        # 6162e0 <_GLOBAL_OFFSET_TABLE_+0x2e0>
  405516:	68 59 00 00 00       	pushq  $0x59
  40551b:	e9 50 fa ff ff       	jmpq   404f70 <_init+0x28>

0000000000405520 <_Unwind_Resume@plt>:
  405520:	ff 25 c2 0d 21 00    	jmpq   *0x210dc2(%rip)        # 6162e8 <_GLOBAL_OFFSET_TABLE_+0x2e8>
  405526:	68 5a 00 00 00       	pushq  $0x5a
  40552b:	e9 40 fa ff ff       	jmpq   404f70 <_init+0x28>

0000000000405530 <_ZN12QApplicationC1ERiPPci@plt>:
  405530:	ff 25 ba 0d 21 00    	jmpq   *0x210dba(%rip)        # 6162f0 <_GLOBAL_OFFSET_TABLE_+0x2f0>
  405536:	68 5b 00 00 00       	pushq  $0x5b
  40553b:	e9 30 fa ff ff       	jmpq   404f70 <_init+0x28>

0000000000405540 <_ZN7QWidget9hideEventEP10QHideEvent@plt>:
  405540:	ff 25 b2 0d 21 00    	jmpq   *0x210db2(%rip)        # 6162f8 <_GLOBAL_OFFSET_TABLE_+0x2f8>
  405546:	68 5c 00 00 00       	pushq  $0x5c
  40554b:	e9 20 fa ff ff       	jmpq   404f70 <_init+0x28>

0000000000405550 <_ZN13QwtRasterData13discardRasterEv@plt>:
  405550:	ff 25 aa 0d 21 00    	jmpq   *0x210daa(%rip)        # 616300 <_GLOBAL_OFFSET_TABLE_+0x300>
  405556:	68 5d 00 00 00       	pushq  $0x5d
  40555b:	e9 10 fa ff ff       	jmpq   404f70 <_init+0x28>

0000000000405560 <_ZN7QObject7connectEPKS_PKcS1_S3_N2Qt14ConnectionTypeE@plt>:
  405560:	ff 25 a2 0d 21 00    	jmpq   *0x210da2(%rip)        # 616308 <_GLOBAL_OFFSET_TABLE_+0x308>
  405566:	68 5e 00 00 00       	pushq  $0x5e
  40556b:	e9 00 fa ff ff       	jmpq   404f70 <_init+0x28>

0000000000405570 <_ZNK7QwtPlot8sizeHintEv@plt>:
  405570:	ff 25 9a 0d 21 00    	jmpq   *0x210d9a(%rip)        # 616310 <_GLOBAL_OFFSET_TABLE_+0x310>
  405576:	68 5f 00 00 00       	pushq  $0x5f
  40557b:	e9 f0 f9 ff ff       	jmpq   404f70 <_init+0x28>

0000000000405580 <_ZN13QwtRasterDataD2Ev@plt>:
  405580:	ff 25 92 0d 21 00    	jmpq   *0x210d92(%rip)        # 616318 <_GLOBAL_OFFSET_TABLE_+0x318>
  405586:	68 60 00 00 00       	pushq  $0x60
  40558b:	e9 e0 f9 ff ff       	jmpq   404f70 <_init+0x28>

0000000000405590 <_ZN18QwtPlotSpectrogram11setColorMapEP11QwtColorMap@plt>:
  405590:	ff 25 8a 0d 21 00    	jmpq   *0x210d8a(%rip)        # 616320 <_GLOBAL_OFFSET_TABLE_+0x320>
  405596:	68 61 00 00 00       	pushq  $0x61
  40559b:	e9 d0 f9 ff ff       	jmpq   404f70 <_init+0x28>

00000000004055a0 <_ZN7QwtPlotC2EP7QWidget@plt>:
  4055a0:	ff 25 82 0d 21 00    	jmpq   *0x210d82(%rip)        # 616328 <_GLOBAL_OFFSET_TABLE_+0x328>
  4055a6:	68 62 00 00 00       	pushq  $0x62
  4055ab:	e9 c0 f9 ff ff       	jmpq   404f70 <_init+0x28>

00000000004055b0 <_ZN6QMutexD1Ev@plt>:
  4055b0:	ff 25 7a 0d 21 00    	jmpq   *0x210d7a(%rip)        # 616330 <_GLOBAL_OFFSET_TABLE_+0x330>
  4055b6:	68 63 00 00 00       	pushq  $0x63
  4055bb:	e9 b0 f9 ff ff       	jmpq   404f70 <_init+0x28>

00000000004055c0 <_ZN11QMainWindow16setCentralWidgetEP7QWidget@plt>:
  4055c0:	ff 25 72 0d 21 00    	jmpq   *0x210d72(%rip)        # 616338 <_GLOBAL_OFFSET_TABLE_+0x338>
  4055c6:	68 64 00 00 00       	pushq  $0x64
  4055cb:	e9 a0 f9 ff ff       	jmpq   404f70 <_init+0x28>

00000000004055d0 <_ZThn16_NK7QWidget7devTypeEv@plt>:
  4055d0:	ff 25 6a 0d 21 00    	jmpq   *0x210d6a(%rip)        # 616340 <_GLOBAL_OFFSET_TABLE_+0x340>
  4055d6:	68 65 00 00 00       	pushq  $0x65
  4055db:	e9 90 f9 ff ff       	jmpq   404f70 <_init+0x28>

00000000004055e0 <_ZNK7QwtPlot9canvasMapEi@plt>:
  4055e0:	ff 25 62 0d 21 00    	jmpq   *0x210d62(%rip)        # 616348 <_GLOBAL_OFFSET_TABLE_+0x348>
  4055e6:	68 66 00 00 00       	pushq  $0x66
  4055eb:	e9 80 f9 ff ff       	jmpq   404f70 <_init+0x28>

00000000004055f0 <time@plt>:
  4055f0:	ff 25 5a 0d 21 00    	jmpq   *0x210d5a(%rip)        # 616350 <_GLOBAL_OFFSET_TABLE_+0x350>
  4055f6:	68 67 00 00 00       	pushq  $0x67
  4055fb:	e9 70 f9 ff ff       	jmpq   404f70 <_init+0x28>

0000000000405600 <_ZN4QPenC1ERK6QBrushdN2Qt8PenStyleENS3_11PenCapStyleENS3_12PenJoinStyleE@plt>:
  405600:	ff 25 52 0d 21 00    	jmpq   *0x210d52(%rip)        # 616358 <_GLOBAL_OFFSET_TABLE_+0x358>
  405606:	68 68 00 00 00       	pushq  $0x68
  40560b:	e9 60 f9 ff ff       	jmpq   404f70 <_init+0x28>

0000000000405610 <_ZN11QMainWindow11qt_metacastEPKc@plt>:
  405610:	ff 25 4a 0d 21 00    	jmpq   *0x210d4a(%rip)        # 616360 <_GLOBAL_OFFSET_TABLE_+0x360>
  405616:	68 69 00 00 00       	pushq  $0x69
  40561b:	e9 50 f9 ff ff       	jmpq   404f70 <_init+0x28>

0000000000405620 <_ZN7QwtPlot10plotLayoutEv@plt>:
  405620:	ff 25 42 0d 21 00    	jmpq   *0x210d42(%rip)        # 616368 <_GLOBAL_OFFSET_TABLE_+0x368>
  405626:	68 6a 00 00 00       	pushq  $0x6a
  40562b:	e9 40 f9 ff ff       	jmpq   404f70 <_init+0x28>

0000000000405630 <_ZN7QWidget16contextMenuEventEP17QContextMenuEvent@plt>:
  405630:	ff 25 3a 0d 21 00    	jmpq   *0x210d3a(%rip)        # 616370 <_GLOBAL_OFFSET_TABLE_+0x370>
  405636:	68 6b 00 00 00       	pushq  $0x6b
  40563b:	e9 30 f9 ff ff       	jmpq   404f70 <_init+0x28>

0000000000405640 <_ZN7QWidget10enterEventEP6QEvent@plt>:
  405640:	ff 25 32 0d 21 00    	jmpq   *0x210d32(%rip)        # 616378 <_GLOBAL_OFFSET_TABLE_+0x378>
  405646:	68 6c 00 00 00       	pushq  $0x6c
  40564b:	e9 20 f9 ff ff       	jmpq   404f70 <_init+0x28>

0000000000405650 <_ZN7QThread11qt_metacallEN11QMetaObject4CallEiPPv@plt>:
  405650:	ff 25 2a 0d 21 00    	jmpq   *0x210d2a(%rip)        # 616380 <_GLOBAL_OFFSET_TABLE_+0x380>
  405656:	68 6d 00 00 00       	pushq  $0x6d
  40565b:	e9 10 f9 ff ff       	jmpq   404f70 <_init+0x28>

0000000000405660 <_ZN14QwtScaleWidget18setColorBarEnabledEb@plt>:
  405660:	ff 25 22 0d 21 00    	jmpq   *0x210d22(%rip)        # 616388 <_GLOBAL_OFFSET_TABLE_+0x388>
  405666:	68 6e 00 00 00       	pushq  $0x6e
  40566b:	e9 00 f9 ff ff       	jmpq   404f70 <_init+0x28>

0000000000405670 <_ZNSo9_M_insertIdEERSoT_@plt>:
  405670:	ff 25 1a 0d 21 00    	jmpq   *0x210d1a(%rip)        # 616390 <_GLOBAL_OFFSET_TABLE_+0x390>
  405676:	68 6f 00 00 00       	pushq  $0x6f
  40567b:	e9 f0 f8 ff ff       	jmpq   404f70 <_init+0x28>

0000000000405680 <_ZNK7QwtPlot9drawItemsEP8QPainterRK6QRectFPK11QwtScaleMap@plt>:
  405680:	ff 25 12 0d 21 00    	jmpq   *0x210d12(%rip)        # 616398 <_GLOBAL_OFFSET_TABLE_+0x398>
  405686:	68 70 00 00 00       	pushq  $0x70
  40568b:	e9 e0 f8 ff ff       	jmpq   404f70 <_init+0x28>

0000000000405690 <_ZN17QwtLinearColorMap16setColorIntervalERK6QColorS2_@plt>:
  405690:	ff 25 0a 0d 21 00    	jmpq   *0x210d0a(%rip)        # 6163a0 <_GLOBAL_OFFSET_TABLE_+0x3a0>
  405696:	68 71 00 00 00       	pushq  $0x71
  40569b:	e9 d0 f8 ff ff       	jmpq   404f70 <_init+0x28>

00000000004056a0 <_ZN11QVBoxLayoutC1EP7QWidget@plt>:
  4056a0:	ff 25 02 0d 21 00    	jmpq   *0x210d02(%rip)        # 6163a8 <_GLOBAL_OFFSET_TABLE_+0x3a8>
  4056a6:	68 72 00 00 00       	pushq  $0x72
  4056ab:	e9 c0 f8 ff ff       	jmpq   404f70 <_init+0x28>

00000000004056b0 <_ZN7QWidget10setVisibleEb@plt>:
  4056b0:	ff 25 fa 0c 21 00    	jmpq   *0x210cfa(%rip)        # 6163b0 <_GLOBAL_OFFSET_TABLE_+0x3b0>
  4056b6:	68 73 00 00 00       	pushq  $0x73
  4056bb:	e9 b0 f8 ff ff       	jmpq   404f70 <_init+0x28>

00000000004056c0 <_ZNK7QWidget6metricEN12QPaintDevice17PaintDeviceMetricE@plt>:
  4056c0:	ff 25 f2 0c 21 00    	jmpq   *0x210cf2(%rip)        # 6163b8 <_GLOBAL_OFFSET_TABLE_+0x3b8>
  4056c6:	68 74 00 00 00       	pushq  $0x74
  4056cb:	e9 a0 f8 ff ff       	jmpq   404f70 <_init+0x28>

00000000004056d0 <_ZN11QMainWindow15createPopupMenuEv@plt>:
  4056d0:	ff 25 ea 0c 21 00    	jmpq   *0x210cea(%rip)        # 6163c0 <_GLOBAL_OFFSET_TABLE_+0x3c0>
  4056d6:	68 75 00 00 00       	pushq  $0x75
  4056db:	e9 90 f8 ff ff       	jmpq   404f70 <_init+0x28>

00000000004056e0 <_ZN6QLabelC1EP7QWidget6QFlagsIN2Qt10WindowTypeEE@plt>:
  4056e0:	ff 25 e2 0c 21 00    	jmpq   *0x210ce2(%rip)        # 6163c8 <_GLOBAL_OFFSET_TABLE_+0x3c8>
  4056e6:	68 76 00 00 00       	pushq  $0x76
  4056eb:	e9 80 f8 ff ff       	jmpq   404f70 <_init+0x28>

00000000004056f0 <_ZNK13QwtRasterData9pixelHintERK6QRectF@plt>:
  4056f0:	ff 25 da 0c 21 00    	jmpq   *0x210cda(%rip)        # 6163d0 <_GLOBAL_OFFSET_TABLE_+0x3d0>
  4056f6:	68 77 00 00 00       	pushq  $0x77
  4056fb:	e9 70 f8 ff ff       	jmpq   404f70 <_init+0x28>

0000000000405700 <_ZN7QWidget14dragLeaveEventEP15QDragLeaveEvent@plt>:
  405700:	ff 25 d2 0c 21 00    	jmpq   *0x210cd2(%rip)        # 6163d8 <_GLOBAL_OFFSET_TABLE_+0x3d8>
  405706:	68 78 00 00 00       	pushq  $0x78
  40570b:	e9 60 f8 ff ff       	jmpq   404f70 <_init+0x28>

0000000000405710 <_ZNK7QWidget14heightForWidthEi@plt>:
  405710:	ff 25 ca 0c 21 00    	jmpq   *0x210cca(%rip)        # 6163e0 <_GLOBAL_OFFSET_TABLE_+0x3e0>
  405716:	68 79 00 00 00       	pushq  $0x79
  40571b:	e9 50 f8 ff ff       	jmpq   404f70 <_init+0x28>

0000000000405720 <_ZN7QwtPlot6replotEv@plt>:
  405720:	ff 25 c2 0c 21 00    	jmpq   *0x210cc2(%rip)        # 6163e8 <_GLOBAL_OFFSET_TABLE_+0x3e8>
  405726:	68 7a 00 00 00       	pushq  $0x7a
  40572b:	e9 40 f8 ff ff       	jmpq   404f70 <_init+0x28>

0000000000405730 <_ZN14QWaitCondition4waitEP6QMutexm@plt>:
  405730:	ff 25 ba 0c 21 00    	jmpq   *0x210cba(%rip)        # 6163f0 <_GLOBAL_OFFSET_TABLE_+0x3f0>
  405736:	68 7b 00 00 00       	pushq  $0x7b
  40573b:	e9 30 f8 ff ff       	jmpq   404f70 <_init+0x28>

0000000000405740 <_ZNK7QWidget13sharedPainterEv@plt>:
  405740:	ff 25 b2 0c 21 00    	jmpq   *0x210cb2(%rip)        # 6163f8 <_GLOBAL_OFFSET_TABLE_+0x3f8>
  405746:	68 7c 00 00 00       	pushq  $0x7c
  40574b:	e9 20 f8 ff ff       	jmpq   404f70 <_init+0x28>

0000000000405750 <strcmp@plt>:
  405750:	ff 25 aa 0c 21 00    	jmpq   *0x210caa(%rip)        # 616400 <_GLOBAL_OFFSET_TABLE_+0x400>
  405756:	68 7d 00 00 00       	pushq  $0x7d
  40575b:	e9 10 f8 ff ff       	jmpq   404f70 <_init+0x28>

0000000000405760 <_ZN14QwtScaleWidget8setTitleERK7QString@plt>:
  405760:	ff 25 a2 0c 21 00    	jmpq   *0x210ca2(%rip)        # 616408 <_GLOBAL_OFFSET_TABLE_+0x408>
  405766:	68 7e 00 00 00       	pushq  $0x7e
  40576b:	e9 00 f8 ff ff       	jmpq   404f70 <_init+0x28>

0000000000405770 <_ZN4QPenC1EN2Qt8PenStyleE@plt>:
  405770:	ff 25 9a 0c 21 00    	jmpq   *0x210c9a(%rip)        # 616410 <_GLOBAL_OFFSET_TABLE_+0x410>
  405776:	68 7f 00 00 00       	pushq  $0x7f
  40577b:	e9 f0 f7 ff ff       	jmpq   404f70 <_init+0x28>

0000000000405780 <_ZN7QThread5eventEP6QEvent@plt>:
  405780:	ff 25 92 0c 21 00    	jmpq   *0x210c92(%rip)        # 616418 <_GLOBAL_OFFSET_TABLE_+0x418>
  405786:	68 80 00 00 00       	pushq  $0x80
  40578b:	e9 e0 f7 ff ff       	jmpq   404f70 <_init+0x28>

0000000000405790 <_ZN7QWidget14setWindowTitleERK7QString@plt>:
  405790:	ff 25 8a 0c 21 00    	jmpq   *0x210c8a(%rip)        # 616420 <_GLOBAL_OFFSET_TABLE_+0x420>
  405796:	68 81 00 00 00       	pushq  $0x81
  40579b:	e9 d0 f7 ff ff       	jmpq   404f70 <_init+0x28>

00000000004057a0 <_ZN7QObject16disconnectNotifyERK11QMetaMethod@plt>:
  4057a0:	ff 25 82 0c 21 00    	jmpq   *0x210c82(%rip)        # 616428 <_GLOBAL_OFFSET_TABLE_+0x428>
  4057a6:	68 82 00 00 00       	pushq  $0x82
  4057ab:	e9 c0 f7 ff ff       	jmpq   404f70 <_init+0x28>

00000000004057b0 <_ZN11QwtPlotItem6attachEP7QwtPlot@plt>:
  4057b0:	ff 25 7a 0c 21 00    	jmpq   *0x210c7a(%rip)        # 616430 <_GLOBAL_OFFSET_TABLE_+0x430>
  4057b6:	68 83 00 00 00       	pushq  $0x83
  4057bb:	e9 b0 f7 ff ff       	jmpq   404f70 <_init+0x28>

00000000004057c0 <__cxa_atexit@plt>:
  4057c0:	ff 25 72 0c 21 00    	jmpq   *0x210c72(%rip)        # 616438 <_GLOBAL_OFFSET_TABLE_+0x438>
  4057c6:	68 84 00 00 00       	pushq  $0x84
  4057cb:	e9 a0 f7 ff ff       	jmpq   404f70 <_init+0x28>

00000000004057d0 <_ZN7QwtPlot10drawCanvasEP8QPainter@plt>:
  4057d0:	ff 25 6a 0c 21 00    	jmpq   *0x210c6a(%rip)        # 616440 <_GLOBAL_OFFSET_TABLE_+0x440>
  4057d6:	68 85 00 00 00       	pushq  $0x85
  4057db:	e9 90 f7 ff ff       	jmpq   404f70 <_init+0x28>

00000000004057e0 <_ZN11QMainWindow16contextMenuEventEP17QContextMenuEvent@plt>:
  4057e0:	ff 25 62 0c 21 00    	jmpq   *0x210c62(%rip)        # 616448 <_GLOBAL_OFFSET_TABLE_+0x448>
  4057e6:	68 86 00 00 00       	pushq  $0x86
  4057eb:	e9 80 f7 ff ff       	jmpq   404f70 <_init+0x28>

00000000004057f0 <_ZN12QProgressBar8setValueEi@plt>:
  4057f0:	ff 25 5a 0c 21 00    	jmpq   *0x210c5a(%rip)        # 616450 <_GLOBAL_OFFSET_TABLE_+0x450>
  4057f6:	68 87 00 00 00       	pushq  $0x87
  4057fb:	e9 70 f7 ff ff       	jmpq   404f70 <_init+0x28>

0000000000405800 <_ZN12QApplication4execEv@plt>:
  405800:	ff 25 52 0c 21 00    	jmpq   *0x210c52(%rip)        # 616458 <_GLOBAL_OFFSET_TABLE_+0x458>
  405806:	68 88 00 00 00       	pushq  $0x88
  40580b:	e9 60 f7 ff ff       	jmpq   404f70 <_init+0x28>

0000000000405810 <_ZN13QwtPlotLayout22setAlignCanvasToScalesEb@plt>:
  405810:	ff 25 4a 0c 21 00    	jmpq   *0x210c4a(%rip)        # 616460 <_GLOBAL_OFFSET_TABLE_+0x460>
  405816:	68 89 00 00 00       	pushq  $0x89
  40581b:	e9 50 f7 ff ff       	jmpq   404f70 <_init+0x28>

0000000000405820 <_ZN7QWidget13focusOutEventEP11QFocusEvent@plt>:
  405820:	ff 25 42 0c 21 00    	jmpq   *0x210c42(%rip)        # 616468 <_GLOBAL_OFFSET_TABLE_+0x468>
  405826:	68 8a 00 00 00       	pushq  $0x8a
  40582b:	e9 40 f7 ff ff       	jmpq   404f70 <_init+0x28>

0000000000405830 <_ZN7QWidget10closeEventEP11QCloseEvent@plt>:
  405830:	ff 25 3a 0c 21 00    	jmpq   *0x210c3a(%rip)        # 616470 <_GLOBAL_OFFSET_TABLE_+0x470>
  405836:	68 8b 00 00 00       	pushq  $0x8b
  40583b:	e9 30 f7 ff ff       	jmpq   404f70 <_init+0x28>

0000000000405840 <_ZN7QWidget15keyReleaseEventEP9QKeyEvent@plt>:
  405840:	ff 25 32 0c 21 00    	jmpq   *0x210c32(%rip)        # 616478 <_GLOBAL_OFFSET_TABLE_+0x478>
  405846:	68 8c 00 00 00       	pushq  $0x8c
  40584b:	e9 20 f7 ff ff       	jmpq   404f70 <_init+0x28>

0000000000405850 <_ZN11QMetaObject8activateEP7QObjectPKS_iPPv@plt>:
  405850:	ff 25 2a 0c 21 00    	jmpq   *0x210c2a(%rip)        # 616480 <_GLOBAL_OFFSET_TABLE_+0x480>
  405856:	68 8d 00 00 00       	pushq  $0x8d
  40585b:	e9 10 f7 ff ff       	jmpq   404f70 <_init+0x28>

0000000000405860 <_ZN7QObject11eventFilterEPS_P6QEvent@plt>:
  405860:	ff 25 22 0c 21 00    	jmpq   *0x210c22(%rip)        # 616488 <_GLOBAL_OFFSET_TABLE_+0x488>
  405866:	68 8e 00 00 00       	pushq  $0x8e
  40586b:	e9 00 f7 ff ff       	jmpq   404f70 <_init+0x28>

0000000000405870 <_ZN7QWidgetC1EPS_6QFlagsIN2Qt10WindowTypeEE@plt>:
  405870:	ff 25 1a 0c 21 00    	jmpq   *0x210c1a(%rip)        # 616490 <_GLOBAL_OFFSET_TABLE_+0x490>
  405876:	68 8f 00 00 00       	pushq  $0x8f
  40587b:	e9 f0 f6 ff ff       	jmpq   404f70 <_init+0x28>

0000000000405880 <_ZN16QCoreApplication9translateEPKcS1_S1_i@plt>:
  405880:	ff 25 12 0c 21 00    	jmpq   *0x210c12(%rip)        # 616498 <_GLOBAL_OFFSET_TABLE_+0x498>
  405886:	68 90 00 00 00       	pushq  $0x90
  40588b:	e9 e0 f6 ff ff       	jmpq   404f70 <_init+0x28>

0000000000405890 <_ZN7QThreadC2EP7QObject@plt>:
  405890:	ff 25 0a 0c 21 00    	jmpq   *0x210c0a(%rip)        # 6164a0 <_GLOBAL_OFFSET_TABLE_+0x4a0>
  405896:	68 91 00 00 00       	pushq  $0x91
  40589b:	e9 d0 f6 ff ff       	jmpq   404f70 <_init+0x28>

00000000004058a0 <_ZN7QObject13connectNotifyERK11QMetaMethod@plt>:
  4058a0:	ff 25 02 0c 21 00    	jmpq   *0x210c02(%rip)        # 6164a8 <_GLOBAL_OFFSET_TABLE_+0x4a8>
  4058a6:	68 92 00 00 00       	pushq  $0x92
  4058ab:	e9 c0 f6 ff ff       	jmpq   404f70 <_init+0x28>

00000000004058b0 <_ZN6QMutex4lockEv@plt>:
  4058b0:	ff 25 fa 0b 21 00    	jmpq   *0x210bfa(%rip)        # 6164b0 <_GLOBAL_OFFSET_TABLE_+0x4b0>
  4058b6:	68 93 00 00 00       	pushq  $0x93
  4058bb:	e9 b0 f6 ff ff       	jmpq   404f70 <_init+0x28>

00000000004058c0 <__libc_start_main@plt>:
  4058c0:	ff 25 f2 0b 21 00    	jmpq   *0x210bf2(%rip)        # 6164b8 <_GLOBAL_OFFSET_TABLE_+0x4b8>
  4058c6:	68 94 00 00 00       	pushq  $0x94
  4058cb:	e9 a0 f6 ff ff       	jmpq   404f70 <_init+0x28>

00000000004058d0 <_ZN10QSemaphore7acquireEi@plt>:
  4058d0:	ff 25 ea 0b 21 00    	jmpq   *0x210bea(%rip)        # 6164c0 <_GLOBAL_OFFSET_TABLE_+0x4c0>
  4058d6:	68 95 00 00 00       	pushq  $0x95
  4058db:	e9 90 f6 ff ff       	jmpq   404f70 <_init+0x28>

00000000004058e0 <_ZN12QProgressBar8setRangeEii@plt>:
  4058e0:	ff 25 e2 0b 21 00    	jmpq   *0x210be2(%rip)        # 6164c8 <_GLOBAL_OFFSET_TABLE_+0x4c8>
  4058e6:	68 96 00 00 00       	pushq  $0x96
  4058eb:	e9 80 f6 ff ff       	jmpq   404f70 <_init+0x28>

00000000004058f0 <_ZN15QAbstractButton7setTextERK7QString@plt>:
  4058f0:	ff 25 da 0b 21 00    	jmpq   *0x210bda(%rip)        # 6164d0 <_GLOBAL_OFFSET_TABLE_+0x4d0>
  4058f6:	68 97 00 00 00       	pushq  $0x97
  4058fb:	e9 70 f6 ff ff       	jmpq   404f70 <_init+0x28>

0000000000405900 <_ZN18QwtPlotSpectrogram4dataEv@plt>:
  405900:	ff 25 d2 0b 21 00    	jmpq   *0x210bd2(%rip)        # 6164d8 <_GLOBAL_OFFSET_TABLE_+0x4d8>
  405906:	68 98 00 00 00       	pushq  $0x98
  40590b:	e9 60 f6 ff ff       	jmpq   404f70 <_init+0x28>

0000000000405910 <_ZSt16__ostream_insertIcSt11char_traitsIcEERSt13basic_ostreamIT_T0_ES6_PKS3_l@plt>:
  405910:	ff 25 ca 0b 21 00    	jmpq   *0x210bca(%rip)        # 6164e0 <_GLOBAL_OFFSET_TABLE_+0x4e0>
  405916:	68 99 00 00 00       	pushq  $0x99
  40591b:	e9 50 f6 ff ff       	jmpq   404f70 <_init+0x28>

0000000000405920 <_ZN6QFrame10paintEventEP11QPaintEvent@plt>:
  405920:	ff 25 c2 0b 21 00    	jmpq   *0x210bc2(%rip)        # 6164e8 <_GLOBAL_OFFSET_TABLE_+0x4e8>
  405926:	68 9a 00 00 00       	pushq  $0x9a
  40592b:	e9 40 f6 ff ff       	jmpq   404f70 <_init+0x28>

0000000000405930 <_ZThn16_NK7QWidget11paintEngineEv@plt>:
  405930:	ff 25 ba 0b 21 00    	jmpq   *0x210bba(%rip)        # 6164f0 <_GLOBAL_OFFSET_TABLE_+0x4f0>
  405936:	68 9b 00 00 00       	pushq  $0x9b
  40593b:	e9 30 f6 ff ff       	jmpq   404f70 <_init+0x28>

0000000000405940 <_ZNK7QWidget17hasHeightForWidthEv@plt>:
  405940:	ff 25 b2 0b 21 00    	jmpq   *0x210bb2(%rip)        # 6164f8 <_GLOBAL_OFFSET_TABLE_+0x4f8>
  405946:	68 9c 00 00 00       	pushq  $0x9c
  40594b:	e9 20 f6 ff ff       	jmpq   404f70 <_init+0x28>

0000000000405950 <_ZN10QArrayData10deallocateEPS_mm@plt>:
  405950:	ff 25 aa 0b 21 00    	jmpq   *0x210baa(%rip)        # 616500 <_GLOBAL_OFFSET_TABLE_+0x500>
  405956:	68 9d 00 00 00       	pushq  $0x9d
  40595b:	e9 10 f6 ff ff       	jmpq   404f70 <_init+0x28>

0000000000405960 <_ZNSt8ios_base4InitC1Ev@plt>:
  405960:	ff 25 a2 0b 21 00    	jmpq   *0x210ba2(%rip)        # 616508 <_GLOBAL_OFFSET_TABLE_+0x508>
  405966:	68 9e 00 00 00       	pushq  $0x9e
  40596b:	e9 00 f6 ff ff       	jmpq   404f70 <_init+0x28>

0000000000405970 <_ZN14QWaitConditionD1Ev@plt>:
  405970:	ff 25 9a 0b 21 00    	jmpq   *0x210b9a(%rip)        # 616510 <_GLOBAL_OFFSET_TABLE_+0x510>
  405976:	68 9f 00 00 00       	pushq  $0x9f
  40597b:	e9 f0 f5 ff ff       	jmpq   404f70 <_init+0x28>

0000000000405980 <_ZNK13QwtRasterData12contourLinesERK6QRectFRK5QSizeRK5QListIdE6QFlagsINS_10ConrecFlagEE@plt>:
  405980:	ff 25 92 0b 21 00    	jmpq   *0x210b92(%rip)        # 616518 <_GLOBAL_OFFSET_TABLE_+0x518>
  405986:	68 a0 00 00 00       	pushq  $0xa0
  40598b:	e9 e0 f5 ff ff       	jmpq   404f70 <_init+0x28>

0000000000405990 <_ZN6QMutex6unlockEv@plt>:
  405990:	ff 25 8a 0b 21 00    	jmpq   *0x210b8a(%rip)        # 616520 <_GLOBAL_OFFSET_TABLE_+0x520>
  405996:	68 a1 00 00 00       	pushq  $0xa1
  40599b:	e9 d0 f5 ff ff       	jmpq   404f70 <_init+0x28>

00000000004059a0 <_ZN6QFrame11changeEventEP6QEvent@plt>:
  4059a0:	ff 25 82 0b 21 00    	jmpq   *0x210b82(%rip)        # 616528 <_GLOBAL_OFFSET_TABLE_+0x528>
  4059a6:	68 a2 00 00 00       	pushq  $0xa2
  4059ab:	e9 c0 f5 ff ff       	jmpq   404f70 <_init+0x28>

00000000004059b0 <_ZN17QwtLinearColorMap12addColorStopEdRK6QColor@plt>:
  4059b0:	ff 25 7a 0b 21 00    	jmpq   *0x210b7a(%rip)        # 616530 <_GLOBAL_OFFSET_TABLE_+0x530>
  4059b6:	68 a3 00 00 00       	pushq  $0xa3
  4059bb:	e9 b0 f5 ff ff       	jmpq   404f70 <_init+0x28>

00000000004059c0 <_ZN7QWidget11tabletEventEP12QTabletEvent@plt>:
  4059c0:	ff 25 72 0b 21 00    	jmpq   *0x210b72(%rip)        # 616538 <_GLOBAL_OFFSET_TABLE_+0x538>
  4059c6:	68 a4 00 00 00       	pushq  $0xa4
  4059cb:	e9 a0 f5 ff ff       	jmpq   404f70 <_init+0x28>

00000000004059d0 <_ZN6QColorC1EN2Qt11GlobalColorE@plt>:
  4059d0:	ff 25 6a 0b 21 00    	jmpq   *0x210b6a(%rip)        # 616540 <_GLOBAL_OFFSET_TABLE_+0x540>
  4059d6:	68 a5 00 00 00       	pushq  $0xa5
  4059db:	e9 90 f5 ff ff       	jmpq   404f70 <_init+0x28>

00000000004059e0 <_ZN11QwtPlotItem20setRenderThreadCountEj@plt>:
  4059e0:	ff 25 62 0b 21 00    	jmpq   *0x210b62(%rip)        # 616548 <_GLOBAL_OFFSET_TABLE_+0x548>
  4059e6:	68 a6 00 00 00       	pushq  $0xa6
  4059eb:	e9 80 f5 ff ff       	jmpq   404f70 <_init+0x28>

00000000004059f0 <_ZN14QwtScaleWidget11setColorMapERK11QwtIntervalP11QwtColorMap@plt>:
  4059f0:	ff 25 5a 0b 21 00    	jmpq   *0x210b5a(%rip)        # 616550 <_GLOBAL_OFFSET_TABLE_+0x550>
  4059f6:	68 a7 00 00 00       	pushq  $0xa7
  4059fb:	e9 70 f5 ff ff       	jmpq   404f70 <_init+0x28>

0000000000405a00 <_ZNK11QObjectData17dynamicMetaObjectEv@plt>:
  405a00:	ff 25 52 0b 21 00    	jmpq   *0x210b52(%rip)        # 616558 <_GLOBAL_OFFSET_TABLE_+0x558>
  405a06:	68 a8 00 00 00       	pushq  $0xa8
  405a0b:	e9 60 f5 ff ff       	jmpq   404f70 <_init+0x28>

0000000000405a10 <_ZN10QBoxLayout10setSpacingEi@plt>:
  405a10:	ff 25 4a 0b 21 00    	jmpq   *0x210b4a(%rip)        # 616560 <_GLOBAL_OFFSET_TABLE_+0x560>
  405a16:	68 a9 00 00 00       	pushq  $0xa9
  405a1b:	e9 50 f5 ff ff       	jmpq   404f70 <_init+0x28>

0000000000405a20 <_ZN10QSemaphore10tryAcquireEi@plt>:
  405a20:	ff 25 42 0b 21 00    	jmpq   *0x210b42(%rip)        # 616568 <_GLOBAL_OFFSET_TABLE_+0x568>
  405a26:	68 aa 00 00 00       	pushq  $0xaa
  405a2b:	e9 40 f5 ff ff       	jmpq   404f70 <_init+0x28>

0000000000405a30 <_ZN7QwtPlot12setAxisScaleEiddd@plt>:
  405a30:	ff 25 3a 0b 21 00    	jmpq   *0x210b3a(%rip)        # 616570 <_GLOBAL_OFFSET_TABLE_+0x570>
  405a36:	68 ab 00 00 00       	pushq  $0xab
  405a3b:	e9 30 f5 ff ff       	jmpq   404f70 <_init+0x28>

0000000000405a40 <_ZNK10QSemaphore9availableEv@plt>:
  405a40:	ff 25 32 0b 21 00    	jmpq   *0x210b32(%rip)        # 616578 <_GLOBAL_OFFSET_TABLE_+0x578>
  405a46:	68 ac 00 00 00       	pushq  $0xac
  405a4b:	e9 20 f5 ff ff       	jmpq   404f70 <_init+0x28>

0000000000405a50 <_ZN7QThread5startENS_8PriorityE@plt>:
  405a50:	ff 25 2a 0b 21 00    	jmpq   *0x210b2a(%rip)        # 616580 <_GLOBAL_OFFSET_TABLE_+0x580>
  405a56:	68 ad 00 00 00       	pushq  $0xad
  405a5b:	e9 10 f5 ff ff       	jmpq   404f70 <_init+0x28>

0000000000405a60 <_ZN11QMetaObject18connectSlotsByNameEP7QObject@plt>:
  405a60:	ff 25 22 0b 21 00    	jmpq   *0x210b22(%rip)        # 616588 <_GLOBAL_OFFSET_TABLE_+0x588>
  405a66:	68 ae 00 00 00       	pushq  $0xae
  405a6b:	e9 00 f5 ff ff       	jmpq   404f70 <_init+0x28>

0000000000405a70 <_ZN7QWidget15mousePressEventEP11QMouseEvent@plt>:
  405a70:	ff 25 1a 0b 21 00    	jmpq   *0x210b1a(%rip)        # 616590 <_GLOBAL_OFFSET_TABLE_+0x590>
  405a76:	68 af 00 00 00       	pushq  $0xaf
  405a7b:	e9 f0 f4 ff ff       	jmpq   404f70 <_init+0x28>

0000000000405a80 <_ZN7QWidget12focusInEventEP11QFocusEvent@plt>:
  405a80:	ff 25 12 0b 21 00    	jmpq   *0x210b12(%rip)        # 616598 <_GLOBAL_OFFSET_TABLE_+0x598>
  405a86:	68 b0 00 00 00       	pushq  $0xb0
  405a8b:	e9 e0 f4 ff ff       	jmpq   404f70 <_init+0x28>

0000000000405a90 <_ZN7QThreadD2Ev@plt>:
  405a90:	ff 25 0a 0b 21 00    	jmpq   *0x210b0a(%rip)        # 6165a0 <_GLOBAL_OFFSET_TABLE_+0x5a0>
  405a96:	68 b1 00 00 00       	pushq  $0xb1
  405a9b:	e9 d0 f4 ff ff       	jmpq   404f70 <_init+0x28>

0000000000405aa0 <_ZNSt9basic_iosIcSt11char_traitsIcEE5clearESt12_Ios_Iostate@plt>:
  405aa0:	ff 25 02 0b 21 00    	jmpq   *0x210b02(%rip)        # 6165a8 <_GLOBAL_OFFSET_TABLE_+0x5a8>
  405aa6:	68 b2 00 00 00       	pushq  $0xb2
  405aab:	e9 c0 f4 ff ff       	jmpq   404f70 <_init+0x28>

0000000000405ab0 <_ZThn16_NK7QWidget13sharedPainterEv@plt>:
  405ab0:	ff 25 fa 0a 21 00    	jmpq   *0x210afa(%rip)        # 6165b0 <_GLOBAL_OFFSET_TABLE_+0x5b0>
  405ab6:	68 b3 00 00 00       	pushq  $0xb3
  405abb:	e9 b0 f4 ff ff       	jmpq   404f70 <_init+0x28>

0000000000405ac0 <_ZN13QwtRasterDataC2Ev@plt>:
  405ac0:	ff 25 f2 0a 21 00    	jmpq   *0x210af2(%rip)        # 6165b8 <_GLOBAL_OFFSET_TABLE_+0x5b8>
  405ac6:	68 b4 00 00 00       	pushq  $0xb4
  405acb:	e9 a0 f4 ff ff       	jmpq   404f70 <_init+0x28>

0000000000405ad0 <_ZN7QWidget14mouseMoveEventEP11QMouseEvent@plt>:
  405ad0:	ff 25 ea 0a 21 00    	jmpq   *0x210aea(%rip)        # 6165c0 <_GLOBAL_OFFSET_TABLE_+0x5c0>
  405ad6:	68 b5 00 00 00       	pushq  $0xb5
  405adb:	e9 90 f4 ff ff       	jmpq   404f70 <_init+0x28>

0000000000405ae0 <_ZN17QwtLinearColorMap7setModeENS_4ModeE@plt>:
  405ae0:	ff 25 e2 0a 21 00    	jmpq   *0x210ae2(%rip)        # 6165c8 <_GLOBAL_OFFSET_TABLE_+0x5c8>
  405ae6:	68 b6 00 00 00       	pushq  $0xb6
  405aeb:	e9 80 f4 ff ff       	jmpq   404f70 <_init+0x28>

0000000000405af0 <_ZN10QBoxLayout9addWidgetEP7QWidgeti6QFlagsIN2Qt13AlignmentFlagEE@plt>:
  405af0:	ff 25 da 0a 21 00    	jmpq   *0x210ada(%rip)        # 6165d0 <_GLOBAL_OFFSET_TABLE_+0x5d0>
  405af6:	68 b7 00 00 00       	pushq  $0xb7
  405afb:	e9 70 f4 ff ff       	jmpq   404f70 <_init+0x28>

0000000000405b00 <_ZNK7QwtPlot10infoToItemERK8QVariant@plt>:
  405b00:	ff 25 d2 0a 21 00    	jmpq   *0x210ad2(%rip)        # 6165d8 <_GLOBAL_OFFSET_TABLE_+0x5d8>
  405b06:	68 b8 00 00 00       	pushq  $0xb8
  405b0b:	e9 60 f4 ff ff       	jmpq   404f70 <_init+0x28>

0000000000405b10 <_ZN11QPushButtonC1EP7QWidget@plt>:
  405b10:	ff 25 ca 0a 21 00    	jmpq   *0x210aca(%rip)        # 6165e0 <_GLOBAL_OFFSET_TABLE_+0x5e0>
  405b16:	68 b9 00 00 00       	pushq  $0xb9
  405b1b:	e9 50 f4 ff ff       	jmpq   404f70 <_init+0x28>

0000000000405b20 <_ZN7QWidget10setEnabledEb@plt>:
  405b20:	ff 25 c2 0a 21 00    	jmpq   *0x210ac2(%rip)        # 6165e8 <_GLOBAL_OFFSET_TABLE_+0x5e8>
  405b26:	68 ba 00 00 00       	pushq  $0xba
  405b2b:	e9 40 f4 ff ff       	jmpq   404f70 <_init+0x28>

0000000000405b30 <_ZN11QMainWindowC2EP7QWidget6QFlagsIN2Qt10WindowTypeEE@plt>:
  405b30:	ff 25 ba 0a 21 00    	jmpq   *0x210aba(%rip)        # 6165f0 <_GLOBAL_OFFSET_TABLE_+0x5f0>
  405b36:	68 bb 00 00 00       	pushq  $0xbb
  405b3b:	e9 30 f4 ff ff       	jmpq   404f70 <_init+0x28>

0000000000405b40 <_ZN7QObject13setObjectNameERK7QString@plt>:
  405b40:	ff 25 b2 0a 21 00    	jmpq   *0x210ab2(%rip)        # 6165f8 <_GLOBAL_OFFSET_TABLE_+0x5f8>
  405b46:	68 bc 00 00 00       	pushq  $0xbc
  405b4b:	e9 20 f4 ff ff       	jmpq   404f70 <_init+0x28>

0000000000405b50 <_ZN7QWidget9moveEventEP10QMoveEvent@plt>:
  405b50:	ff 25 aa 0a 21 00    	jmpq   *0x210aaa(%rip)        # 616600 <_GLOBAL_OFFSET_TABLE_+0x600>
  405b56:	68 bd 00 00 00       	pushq  $0xbd
  405b5b:	e9 10 f4 ff ff       	jmpq   404f70 <_init+0x28>

0000000000405b60 <_ZN4QPenD1Ev@plt>:
  405b60:	ff 25 a2 0a 21 00    	jmpq   *0x210aa2(%rip)        # 616608 <_GLOBAL_OFFSET_TABLE_+0x608>
  405b66:	68 be 00 00 00       	pushq  $0xbe
  405b6b:	e9 00 f4 ff ff       	jmpq   404f70 <_init+0x28>

0000000000405b70 <_ZN7QWidget11nativeEventERK10QByteArrayPvPl@plt>:
  405b70:	ff 25 9a 0a 21 00    	jmpq   *0x210a9a(%rip)        # 616610 <_GLOBAL_OFFSET_TABLE_+0x610>
  405b76:	68 bf 00 00 00       	pushq  $0xbf
  405b7b:	e9 f0 f3 ff ff       	jmpq   404f70 <_init+0x28>

Disassembly of section .text:

0000000000405b80 <_ZStlsISt11char_traitsIcEERSt13basic_ostreamIcT_ES5_PKc.part.1>:
  405b80:	50                   	push   %rax
  405b81:	48 8b 07             	mov    (%rdi),%rax
  405b84:	48 03 78 e8          	add    -0x18(%rax),%rdi
  405b88:	8b 77 20             	mov    0x20(%rdi),%esi
  405b8b:	83 ce 01             	or     $0x1,%esi
  405b8e:	e8 0d ff ff ff       	callq  405aa0 <_ZNSt9basic_iosIcSt11char_traitsIcEE5clearESt12_Ios_Iostate@plt>
  405b93:	5a                   	pop    %rdx
  405b94:	c3                   	retq   

0000000000405b95 <_ZStlsISt11char_traitsIcEERSt13basic_ostreamIcT_ES5_PKc.part.1>:
  405b95:	50                   	push   %rax
  405b96:	48 8b 07             	mov    (%rdi),%rax
  405b99:	48 03 78 e8          	add    -0x18(%rax),%rdi
  405b9d:	8b 77 20             	mov    0x20(%rdi),%esi
  405ba0:	83 ce 01             	or     $0x1,%esi
  405ba3:	e8 f8 fe ff ff       	callq  405aa0 <_ZNSt9basic_iosIcSt11char_traitsIcEE5clearESt12_Ios_Iostate@plt>
  405ba8:	5a                   	pop    %rdx
  405ba9:	c3                   	retq   

0000000000405baa <_ZStlsISt11char_traitsIcEERSt13basic_ostreamIcT_ES5_PKc.part.1>:
  405baa:	50                   	push   %rax
  405bab:	48 8b 07             	mov    (%rdi),%rax
  405bae:	48 03 78 e8          	add    -0x18(%rax),%rdi
  405bb2:	8b 77 20             	mov    0x20(%rdi),%esi
  405bb5:	83 ce 01             	or     $0x1,%esi
  405bb8:	e8 e3 fe ff ff       	callq  405aa0 <_ZNSt9basic_iosIcSt11char_traitsIcEE5clearESt12_Ios_Iostate@plt>
  405bbd:	5a                   	pop    %rdx
  405bbe:	c3                   	retq   

0000000000405bbf <_ZStlsISt11char_traitsIcEERSt13basic_ostreamIcT_ES5_PKc.part.1>:
  405bbf:	50                   	push   %rax
  405bc0:	48 8b 07             	mov    (%rdi),%rax
  405bc3:	48 03 78 e8          	add    -0x18(%rax),%rdi
  405bc7:	8b 77 20             	mov    0x20(%rdi),%esi
  405bca:	83 ce 01             	or     $0x1,%esi
  405bcd:	e8 ce fe ff ff       	callq  405aa0 <_ZNSt9basic_iosIcSt11char_traitsIcEE5clearESt12_Ios_Iostate@plt>
  405bd2:	5a                   	pop    %rdx
  405bd3:	c3                   	retq   

0000000000405bd4 <_ZStlsISt11char_traitsIcEERSt13basic_ostreamIcT_ES5_PKc.part.1>:
  405bd4:	50                   	push   %rax
  405bd5:	48 8b 07             	mov    (%rdi),%rax
  405bd8:	48 03 78 e8          	add    -0x18(%rax),%rdi
  405bdc:	8b 77 20             	mov    0x20(%rdi),%esi
  405bdf:	83 ce 01             	or     $0x1,%esi
  405be2:	e8 b9 fe ff ff       	callq  405aa0 <_ZNSt9basic_iosIcSt11char_traitsIcEE5clearESt12_Ios_Iostate@plt>
  405be7:	5a                   	pop    %rdx
  405be8:	c3                   	retq   

0000000000405be9 <_ZStlsISt11char_traitsIcEERSt13basic_ostreamIcT_ES5_PKc.part.1>:
  405be9:	50                   	push   %rax
  405bea:	48 8b 07             	mov    (%rdi),%rax
  405bed:	48 03 78 e8          	add    -0x18(%rax),%rdi
  405bf1:	8b 77 20             	mov    0x20(%rdi),%esi
  405bf4:	83 ce 01             	or     $0x1,%esi
  405bf7:	e8 a4 fe ff ff       	callq  405aa0 <_ZNSt9basic_iosIcSt11char_traitsIcEE5clearESt12_Ios_Iostate@plt>
  405bfc:	5a                   	pop    %rdx
  405bfd:	c3                   	retq   
  405bfe:	66 90                	xchg   %ax,%ax

0000000000405c00 <_GLOBAL__sub_I_main>:
  405c00:	48 8d 3d 2a 0a 21 00 	lea    0x210a2a(%rip),%rdi        # 616631 <_ZStL8__ioinit>
  405c07:	48 83 ec 08          	sub    $0x8,%rsp
  405c0b:	e8 50 fd ff ff       	callq  405960 <_ZNSt8ios_base4InitC1Ev@plt>
  405c10:	48 8b 3d d1 03 21 00 	mov    0x2103d1(%rip),%rdi        # 615fe8 <_DYNAMIC+0x258>
  405c17:	48 8d 15 02 0a 21 00 	lea    0x210a02(%rip),%rdx        # 616620 <__dso_handle>
  405c1e:	48 8d 35 0c 0a 21 00 	lea    0x210a0c(%rip),%rsi        # 616631 <_ZStL8__ioinit>
  405c25:	48 83 c4 08          	add    $0x8,%rsp
  405c29:	e9 92 fb ff ff       	jmpq   4057c0 <__cxa_atexit@plt>
  405c2e:	66 90                	xchg   %ax,%ax

0000000000405c30 <main>:
  405c30:	41 54                	push   %r12
  405c32:	48 89 f2             	mov    %rsi,%rdx
  405c35:	b9 02 03 05 00       	mov    $0x50302,%ecx
  405c3a:	55                   	push   %rbp
  405c3b:	53                   	push   %rbx
  405c3c:	48 83 c4 80          	add    $0xffffffffffffff80,%rsp
  405c40:	48 8d 6c 24 10       	lea    0x10(%rsp),%rbp
  405c45:	48 8d 74 24 0c       	lea    0xc(%rsp),%rsi
  405c4a:	48 8d 5c 24 20       	lea    0x20(%rsp),%rbx
  405c4f:	89 7c 24 0c          	mov    %edi,0xc(%rsp)
  405c53:	48 89 ef             	mov    %rbp,%rdi
  405c56:	e8 d5 f8 ff ff       	callq  405530 <_ZN12QApplicationC1ERiPPci@plt>
  405c5b:	31 f6                	xor    %esi,%esi
  405c5d:	48 89 df             	mov    %rbx,%rdi
  405c60:	e8 2b 06 00 00       	callq  406290 <_ZN10MainWindowC1EP7QWidget>
  405c65:	48 89 df             	mov    %rbx,%rdi
  405c68:	e8 e3 f7 ff ff       	callq  405450 <_ZN7QWidget4showEv@plt>
  405c6d:	e8 8e fb ff ff       	callq  405800 <_ZN12QApplication4execEv@plt>
  405c72:	48 89 df             	mov    %rbx,%rdi
  405c75:	41 89 c4             	mov    %eax,%r12d
  405c78:	e8 43 05 00 00       	callq  4061c0 <_ZN10MainWindowD1Ev>
  405c7d:	48 89 ef             	mov    %rbp,%rdi
  405c80:	e8 0b f3 ff ff       	callq  404f90 <_ZN12QApplicationD1Ev@plt>
  405c85:	48 83 ec 80          	sub    $0xffffffffffffff80,%rsp
  405c89:	44 89 e0             	mov    %r12d,%eax
  405c8c:	5b                   	pop    %rbx
  405c8d:	5d                   	pop    %rbp
  405c8e:	41 5c                	pop    %r12
  405c90:	c3                   	retq   
  405c91:	48 89 c3             	mov    %rax,%rbx
  405c94:	48 89 ef             	mov    %rbp,%rdi
  405c97:	e8 f4 f2 ff ff       	callq  404f90 <_ZN12QApplicationD1Ev@plt>
  405c9c:	48 89 df             	mov    %rbx,%rdi
  405c9f:	e8 7c f8 ff ff       	callq  405520 <_Unwind_Resume@plt>
  405ca4:	49 89 c4             	mov    %rax,%r12
  405ca7:	48 89 df             	mov    %rbx,%rdi
  405caa:	e8 11 05 00 00       	callq  4061c0 <_ZN10MainWindowD1Ev>
  405caf:	4c 89 e3             	mov    %r12,%rbx
  405cb2:	eb e0                	jmp    405c94 <main+0x64>
  405cb4:	66 2e 0f 1f 84 00 00 	nopw   %cs:0x0(%rax,%rax,1)
  405cbb:	00 00 00 
  405cbe:	66 90                	xchg   %ax,%ax

0000000000405cc0 <_GLOBAL__sub_I_dataBlock>:
  405cc0:	48 8d 3d b1 09 21 00 	lea    0x2109b1(%rip),%rdi        # 616678 <_ZStL8__ioinit>
  405cc7:	48 83 ec 08          	sub    $0x8,%rsp
  405ccb:	e8 90 fc ff ff       	callq  405960 <_ZNSt8ios_base4InitC1Ev@plt>
  405cd0:	48 8b 3d 11 03 21 00 	mov    0x210311(%rip),%rdi        # 615fe8 <_DYNAMIC+0x258>
  405cd7:	48 8d 15 42 09 21 00 	lea    0x210942(%rip),%rdx        # 616620 <__dso_handle>
  405cde:	48 8d 35 93 09 21 00 	lea    0x210993(%rip),%rsi        # 616678 <_ZStL8__ioinit>
  405ce5:	48 83 c4 08          	add    $0x8,%rsp
  405ce9:	e9 d2 fa ff ff       	jmpq   4057c0 <__cxa_atexit@plt>
  405cee:	66 90                	xchg   %ax,%ax

0000000000405cf0 <_GLOBAL__sub_I_array2dworker.cpp>:
  405cf0:	48 8d 3d 82 09 21 00 	lea    0x210982(%rip),%rdi        # 616679 <_ZStL8__ioinit>
  405cf7:	48 83 ec 08          	sub    $0x8,%rsp
  405cfb:	e8 60 fc ff ff       	callq  405960 <_ZNSt8ios_base4InitC1Ev@plt>
  405d00:	48 8b 3d e1 02 21 00 	mov    0x2102e1(%rip),%rdi        # 615fe8 <_DYNAMIC+0x258>
  405d07:	48 8d 15 12 09 21 00 	lea    0x210912(%rip),%rdx        # 616620 <__dso_handle>
  405d0e:	48 8d 35 64 09 21 00 	lea    0x210964(%rip),%rsi        # 616679 <_ZStL8__ioinit>
  405d15:	48 83 c4 08          	add    $0x8,%rsp
  405d19:	e9 a2 fa ff ff       	jmpq   4057c0 <__cxa_atexit@plt>
  405d1e:	66 90                	xchg   %ax,%ax

0000000000405d20 <_GLOBAL__sub_I_circulararray2dworker.cpp>:
  405d20:	48 8d 3d 53 09 21 00 	lea    0x210953(%rip),%rdi        # 61667a <_ZStL8__ioinit>
  405d27:	48 83 ec 08          	sub    $0x8,%rsp
  405d2b:	e8 30 fc ff ff       	callq  405960 <_ZNSt8ios_base4InitC1Ev@plt>
  405d30:	48 8b 3d b1 02 21 00 	mov    0x2102b1(%rip),%rdi        # 615fe8 <_DYNAMIC+0x258>
  405d37:	48 8d 15 e2 08 21 00 	lea    0x2108e2(%rip),%rdx        # 616620 <__dso_handle>
  405d3e:	48 8d 35 35 09 21 00 	lea    0x210935(%rip),%rsi        # 61667a <_ZStL8__ioinit>
  405d45:	48 83 c4 08          	add    $0x8,%rsp
  405d49:	e9 72 fa ff ff       	jmpq   4057c0 <__cxa_atexit@plt>
  405d4e:	66 90                	xchg   %ax,%ax

0000000000405d50 <_GLOBAL__sub_I_spectrogramdata.cpp>:
  405d50:	48 8d 3d 24 09 21 00 	lea    0x210924(%rip),%rdi        # 61667b <_ZStL8__ioinit>
  405d57:	48 83 ec 08          	sub    $0x8,%rsp
  405d5b:	e8 00 fc ff ff       	callq  405960 <_ZNSt8ios_base4InitC1Ev@plt>
  405d60:	48 8b 3d 81 02 21 00 	mov    0x210281(%rip),%rdi        # 615fe8 <_DYNAMIC+0x258>
  405d67:	48 8d 15 b2 08 21 00 	lea    0x2108b2(%rip),%rdx        # 616620 <__dso_handle>
  405d6e:	48 8d 35 06 09 21 00 	lea    0x210906(%rip),%rsi        # 61667b <_ZStL8__ioinit>
  405d75:	48 83 c4 08          	add    $0x8,%rsp
  405d79:	e9 42 fa ff ff       	jmpq   4057c0 <__cxa_atexit@plt>
  405d7e:	66 90                	xchg   %ax,%ax

0000000000405d80 <_GLOBAL__sub_I__ZN15SpectrogramPlotC2EP7QWidget>:
  405d80:	48 8d 3d f5 08 21 00 	lea    0x2108f5(%rip),%rdi        # 61667c <_ZStL8__ioinit>
  405d87:	48 83 ec 08          	sub    $0x8,%rsp
  405d8b:	e8 d0 fb ff ff       	callq  405960 <_ZNSt8ios_base4InitC1Ev@plt>
  405d90:	48 8b 3d 51 02 21 00 	mov    0x210251(%rip),%rdi        # 615fe8 <_DYNAMIC+0x258>
  405d97:	48 8d 15 82 08 21 00 	lea    0x210882(%rip),%rdx        # 616620 <__dso_handle>
  405d9e:	48 8d 35 d7 08 21 00 	lea    0x2108d7(%rip),%rsi        # 61667c <_ZStL8__ioinit>
  405da5:	48 83 c4 08          	add    $0x8,%rsp
  405da9:	e9 12 fa ff ff       	jmpq   4057c0 <__cxa_atexit@plt>
  405dae:	66 90                	xchg   %ax,%ax

0000000000405db0 <_GLOBAL__sub_I_freeSpace>:
  405db0:	53                   	push   %rbx
  405db1:	48 8d 3d d8 08 21 00 	lea    0x2108d8(%rip),%rdi        # 616690 <_ZStL8__ioinit>
  405db8:	e8 a3 fb ff ff       	callq  405960 <_ZNSt8ios_base4InitC1Ev@plt>
  405dbd:	48 8b 3d 24 02 21 00 	mov    0x210224(%rip),%rdi        # 615fe8 <_DYNAMIC+0x258>
  405dc4:	48 8d 15 55 08 21 00 	lea    0x210855(%rip),%rdx        # 616620 <__dso_handle>
  405dcb:	48 8d 35 be 08 21 00 	lea    0x2108be(%rip),%rsi        # 616690 <_ZStL8__ioinit>
  405dd2:	e8 e9 f9 ff ff       	callq  4057c0 <__cxa_atexit@plt>
  405dd7:	48 8d 3d aa 08 21 00 	lea    0x2108aa(%rip),%rdi        # 616688 <freeSpace>
  405dde:	be 40 4b 4c 00       	mov    $0x4c4b40,%esi
  405de3:	e8 08 f7 ff ff       	callq  4054f0 <_ZN10QSemaphoreC1Ei@plt>
  405de8:	48 8b 1d 01 02 21 00 	mov    0x210201(%rip),%rbx        # 615ff0 <_DYNAMIC+0x260>
  405def:	48 8d 15 2a 08 21 00 	lea    0x21082a(%rip),%rdx        # 616620 <__dso_handle>
  405df6:	48 8d 35 8b 08 21 00 	lea    0x21088b(%rip),%rsi        # 616688 <freeSpace>
  405dfd:	48 89 df             	mov    %rbx,%rdi
  405e00:	e8 bb f9 ff ff       	callq  4057c0 <__cxa_atexit@plt>
  405e05:	48 8d 3d 74 08 21 00 	lea    0x210874(%rip),%rdi        # 616680 <usedSpace>
  405e0c:	31 f6                	xor    %esi,%esi
  405e0e:	e8 dd f6 ff ff       	callq  4054f0 <_ZN10QSemaphoreC1Ei@plt>
  405e13:	48 89 df             	mov    %rbx,%rdi
  405e16:	48 8d 15 03 08 21 00 	lea    0x210803(%rip),%rdx        # 616620 <__dso_handle>
  405e1d:	48 8d 35 5c 08 21 00 	lea    0x21085c(%rip),%rsi        # 616680 <usedSpace>
  405e24:	5b                   	pop    %rbx
  405e25:	e9 96 f9 ff ff       	jmpq   4057c0 <__cxa_atexit@plt>
  405e2a:	66 0f 1f 44 00 00    	nopw   0x0(%rax,%rax,1)

0000000000405e30 <_GLOBAL__sub_I__ZN14ProducerUnsafeC2EP7QObject>:
  405e30:	48 8d 3d 5a 08 21 00 	lea    0x21085a(%rip),%rdi        # 616691 <_ZStL8__ioinit>
  405e37:	48 83 ec 08          	sub    $0x8,%rsp
  405e3b:	e8 20 fb ff ff       	callq  405960 <_ZNSt8ios_base4InitC1Ev@plt>
  405e40:	48 8b 3d a1 01 21 00 	mov    0x2101a1(%rip),%rdi        # 615fe8 <_DYNAMIC+0x258>
  405e47:	48 8d 15 d2 07 21 00 	lea    0x2107d2(%rip),%rdx        # 616620 <__dso_handle>
  405e4e:	48 8d 35 3c 08 21 00 	lea    0x21083c(%rip),%rsi        # 616691 <_ZStL8__ioinit>
  405e55:	48 83 c4 08          	add    $0x8,%rsp
  405e59:	e9 62 f9 ff ff       	jmpq   4057c0 <__cxa_atexit@plt>
  405e5e:	66 90                	xchg   %ax,%ax

0000000000405e60 <_GLOBAL__sub_I__ZN14ConsumerUnsafeC2EP7QObject>:
  405e60:	48 8d 3d 2b 08 21 00 	lea    0x21082b(%rip),%rdi        # 616692 <_ZStL8__ioinit>
  405e67:	48 83 ec 08          	sub    $0x8,%rsp
  405e6b:	e8 f0 fa ff ff       	callq  405960 <_ZNSt8ios_base4InitC1Ev@plt>
  405e70:	48 8b 3d 71 01 21 00 	mov    0x210171(%rip),%rdi        # 615fe8 <_DYNAMIC+0x258>
  405e77:	48 8d 15 a2 07 21 00 	lea    0x2107a2(%rip),%rdx        # 616620 <__dso_handle>
  405e7e:	48 8d 35 0d 08 21 00 	lea    0x21080d(%rip),%rsi        # 616692 <_ZStL8__ioinit>
  405e85:	48 83 c4 08          	add    $0x8,%rsp
  405e89:	e9 32 f9 ff ff       	jmpq   4057c0 <__cxa_atexit@plt>
  405e8e:	66 90                	xchg   %ax,%ax

0000000000405e90 <_GLOBAL__sub_I_circulararray2dworkerthreaded.cpp>:
  405e90:	48 8d 3d fc 07 21 00 	lea    0x2107fc(%rip),%rdi        # 616693 <_ZStL8__ioinit>
  405e97:	48 83 ec 08          	sub    $0x8,%rsp
  405e9b:	e8 c0 fa ff ff       	callq  405960 <_ZNSt8ios_base4InitC1Ev@plt>
  405ea0:	48 8b 3d 41 01 21 00 	mov    0x210141(%rip),%rdi        # 615fe8 <_DYNAMIC+0x258>
  405ea7:	48 8d 15 72 07 21 00 	lea    0x210772(%rip),%rdx        # 616620 <__dso_handle>
  405eae:	48 8d 35 de 07 21 00 	lea    0x2107de(%rip),%rsi        # 616693 <_ZStL8__ioinit>
  405eb5:	48 83 c4 08          	add    $0x8,%rsp
  405eb9:	e9 02 f9 ff ff       	jmpq   4057c0 <__cxa_atexit@plt>
  405ebe:	66 90                	xchg   %ax,%ax

0000000000405ec0 <_GLOBAL__sub_I_array2dspectrum.cpp>:
  405ec0:	48 8d 3d cd 07 21 00 	lea    0x2107cd(%rip),%rdi        # 616694 <_ZStL8__ioinit>
  405ec7:	48 83 ec 08          	sub    $0x8,%rsp
  405ecb:	e8 90 fa ff ff       	callq  405960 <_ZNSt8ios_base4InitC1Ev@plt>
  405ed0:	48 8b 3d 11 01 21 00 	mov    0x210111(%rip),%rdi        # 615fe8 <_DYNAMIC+0x258>
  405ed7:	48 8d 15 42 07 21 00 	lea    0x210742(%rip),%rdx        # 616620 <__dso_handle>
  405ede:	48 8d 35 af 07 21 00 	lea    0x2107af(%rip),%rsi        # 616694 <_ZStL8__ioinit>
  405ee5:	48 83 c4 08          	add    $0x8,%rsp
  405ee9:	e9 d2 f8 ff ff       	jmpq   4057c0 <__cxa_atexit@plt>
  405eee:	66 90                	xchg   %ax,%ax

0000000000405ef0 <_GLOBAL__sub_I_circulararray2dspectrum.cpp>:
  405ef0:	48 8d 3d 9e 07 21 00 	lea    0x21079e(%rip),%rdi        # 616695 <_ZStL8__ioinit>
  405ef7:	48 83 ec 08          	sub    $0x8,%rsp
  405efb:	e8 60 fa ff ff       	callq  405960 <_ZNSt8ios_base4InitC1Ev@plt>
  405f00:	48 8b 3d e1 00 21 00 	mov    0x2100e1(%rip),%rdi        # 615fe8 <_DYNAMIC+0x258>
  405f07:	48 8d 15 12 07 21 00 	lea    0x210712(%rip),%rdx        # 616620 <__dso_handle>
  405f0e:	48 8d 35 80 07 21 00 	lea    0x210780(%rip),%rsi        # 616695 <_ZStL8__ioinit>
  405f15:	48 83 c4 08          	add    $0x8,%rsp
  405f19:	e9 a2 f8 ff ff       	jmpq   4057c0 <__cxa_atexit@plt>
  405f1e:	66 90                	xchg   %ax,%ax

0000000000405f20 <_GLOBAL__sub_I_circulararray2dspectrumthreaded.cpp>:
  405f20:	48 8d 3d 6f 07 21 00 	lea    0x21076f(%rip),%rdi        # 616696 <_ZStL8__ioinit>
  405f27:	48 83 ec 08          	sub    $0x8,%rsp
  405f2b:	e8 30 fa ff ff       	callq  405960 <_ZNSt8ios_base4InitC1Ev@plt>
  405f30:	48 8b 3d b1 00 21 00 	mov    0x2100b1(%rip),%rdi        # 615fe8 <_DYNAMIC+0x258>
  405f37:	48 8d 15 e2 06 21 00 	lea    0x2106e2(%rip),%rdx        # 616620 <__dso_handle>
  405f3e:	48 8d 35 51 07 21 00 	lea    0x210751(%rip),%rsi        # 616696 <_ZStL8__ioinit>
  405f45:	48 83 c4 08          	add    $0x8,%rsp
  405f49:	e9 72 f8 ff ff       	jmpq   4057c0 <__cxa_atexit@plt>
  405f4e:	66 90                	xchg   %ax,%ax

0000000000405f50 <_GLOBAL__sub_I__ZN8PipelineC2EP7QObjectP31CircularArray2DSpectrumThreadedIfES4_ii>:
  405f50:	48 8d 3d 40 07 21 00 	lea    0x210740(%rip),%rdi        # 616697 <_ZStL8__ioinit>
  405f57:	48 83 ec 08          	sub    $0x8,%rsp
  405f5b:	e8 00 fa ff ff       	callq  405960 <_ZNSt8ios_base4InitC1Ev@plt>
  405f60:	48 8b 3d 81 00 21 00 	mov    0x210081(%rip),%rdi        # 615fe8 <_DYNAMIC+0x258>
  405f67:	48 8d 15 b2 06 21 00 	lea    0x2106b2(%rip),%rdx        # 616620 <__dso_handle>
  405f6e:	48 8d 35 22 07 21 00 	lea    0x210722(%rip),%rsi        # 616697 <_ZStL8__ioinit>
  405f75:	48 83 c4 08          	add    $0x8,%rsp
  405f79:	e9 42 f8 ff ff       	jmpq   4057c0 <__cxa_atexit@plt>
  405f7e:	66 90                	xchg   %ax,%ax

0000000000405f80 <_GLOBAL__sub_I__ZN7PlotterC2EP7QObjectP31CircularArray2DSpectrumThreadedIfEiiP15SpectrogramPlot>:
  405f80:	48 8d 3d 11 07 21 00 	lea    0x210711(%rip),%rdi        # 616698 <_ZStL8__ioinit>
  405f87:	48 83 ec 08          	sub    $0x8,%rsp
  405f8b:	e8 d0 f9 ff ff       	callq  405960 <_ZNSt8ios_base4InitC1Ev@plt>
  405f90:	48 8b 3d 51 00 21 00 	mov    0x210051(%rip),%rdi        # 615fe8 <_DYNAMIC+0x258>
  405f97:	48 8d 15 82 06 21 00 	lea    0x210682(%rip),%rdx        # 616620 <__dso_handle>
  405f9e:	48 8d 35 f3 06 21 00 	lea    0x2106f3(%rip),%rsi        # 616698 <_ZStL8__ioinit>
  405fa5:	48 83 c4 08          	add    $0x8,%rsp
  405fa9:	e9 12 f8 ff ff       	jmpq   4057c0 <__cxa_atexit@plt>
  405fae:	66 90                	xchg   %ax,%ax

0000000000405fb0 <_GLOBAL__sub_I__ZN10MainWindow18qt_static_metacallEP7QObjectN11QMetaObject4CallEiPPv>:
  405fb0:	48 8d 3d e2 06 21 00 	lea    0x2106e2(%rip),%rdi        # 616699 <_ZStL8__ioinit>
  405fb7:	48 83 ec 08          	sub    $0x8,%rsp
  405fbb:	e8 a0 f9 ff ff       	callq  405960 <_ZNSt8ios_base4InitC1Ev@plt>
  405fc0:	48 8b 3d 21 00 21 00 	mov    0x210021(%rip),%rdi        # 615fe8 <_DYNAMIC+0x258>
  405fc7:	48 8d 15 52 06 21 00 	lea    0x210652(%rip),%rdx        # 616620 <__dso_handle>
  405fce:	48 8d 35 c4 06 21 00 	lea    0x2106c4(%rip),%rsi        # 616699 <_ZStL8__ioinit>
  405fd5:	48 83 c4 08          	add    $0x8,%rsp
  405fd9:	e9 e2 f7 ff ff       	jmpq   4057c0 <__cxa_atexit@plt>
  405fde:	66 90                	xchg   %ax,%ax

0000000000405fe0 <_GLOBAL__sub_I__ZN15SpectrogramPlot18qt_static_metacallEP7QObjectN11QMetaObject4CallEiPPv>:
  405fe0:	48 8d 3d b3 06 21 00 	lea    0x2106b3(%rip),%rdi        # 61669a <_ZStL8__ioinit>
  405fe7:	48 83 ec 08          	sub    $0x8,%rsp
  405feb:	e8 70 f9 ff ff       	callq  405960 <_ZNSt8ios_base4InitC1Ev@plt>
  405ff0:	48 8b 3d f1 ff 20 00 	mov    0x20fff1(%rip),%rdi        # 615fe8 <_DYNAMIC+0x258>
  405ff7:	48 8d 15 22 06 21 00 	lea    0x210622(%rip),%rdx        # 616620 <__dso_handle>
  405ffe:	48 8d 35 95 06 21 00 	lea    0x210695(%rip),%rsi        # 61669a <_ZStL8__ioinit>
  406005:	48 83 c4 08          	add    $0x8,%rsp
  406009:	e9 b2 f7 ff ff       	jmpq   4057c0 <__cxa_atexit@plt>
  40600e:	66 90                	xchg   %ax,%ax

0000000000406010 <_GLOBAL__sub_I__ZN14ProducerUnsafe18qt_static_metacallEP7QObjectN11QMetaObject4CallEiPPv>:
  406010:	48 8d 3d 84 06 21 00 	lea    0x210684(%rip),%rdi        # 61669b <_ZStL8__ioinit>
  406017:	48 83 ec 08          	sub    $0x8,%rsp
  40601b:	e8 40 f9 ff ff       	callq  405960 <_ZNSt8ios_base4InitC1Ev@plt>
  406020:	48 8b 3d c1 ff 20 00 	mov    0x20ffc1(%rip),%rdi        # 615fe8 <_DYNAMIC+0x258>
  406027:	48 8d 15 f2 05 21 00 	lea    0x2105f2(%rip),%rdx        # 616620 <__dso_handle>
  40602e:	48 8d 35 66 06 21 00 	lea    0x210666(%rip),%rsi        # 61669b <_ZStL8__ioinit>
  406035:	48 83 c4 08          	add    $0x8,%rsp
  406039:	e9 82 f7 ff ff       	jmpq   4057c0 <__cxa_atexit@plt>
  40603e:	66 90                	xchg   %ax,%ax

0000000000406040 <_GLOBAL__sub_I__ZN14ConsumerUnsafe18qt_static_metacallEP7QObjectN11QMetaObject4CallEiPPv>:
  406040:	48 8d 3d 55 06 21 00 	lea    0x210655(%rip),%rdi        # 61669c <_ZStL8__ioinit>
  406047:	48 83 ec 08          	sub    $0x8,%rsp
  40604b:	e8 10 f9 ff ff       	callq  405960 <_ZNSt8ios_base4InitC1Ev@plt>
  406050:	48 8b 3d 91 ff 20 00 	mov    0x20ff91(%rip),%rdi        # 615fe8 <_DYNAMIC+0x258>
  406057:	48 8d 15 c2 05 21 00 	lea    0x2105c2(%rip),%rdx        # 616620 <__dso_handle>
  40605e:	48 8d 35 37 06 21 00 	lea    0x210637(%rip),%rsi        # 61669c <_ZStL8__ioinit>
  406065:	48 83 c4 08          	add    $0x8,%rsp
  406069:	e9 52 f7 ff ff       	jmpq   4057c0 <__cxa_atexit@plt>
  40606e:	66 90                	xchg   %ax,%ax

0000000000406070 <_GLOBAL__sub_I__ZN8Pipeline18qt_static_metacallEP7QObjectN11QMetaObject4CallEiPPv>:
  406070:	48 8d 3d 26 06 21 00 	lea    0x210626(%rip),%rdi        # 61669d <_ZStL8__ioinit>
  406077:	48 83 ec 08          	sub    $0x8,%rsp
  40607b:	e8 e0 f8 ff ff       	callq  405960 <_ZNSt8ios_base4InitC1Ev@plt>
  406080:	48 8b 3d 61 ff 20 00 	mov    0x20ff61(%rip),%rdi        # 615fe8 <_DYNAMIC+0x258>
  406087:	48 8d 15 92 05 21 00 	lea    0x210592(%rip),%rdx        # 616620 <__dso_handle>
  40608e:	48 8d 35 08 06 21 00 	lea    0x210608(%rip),%rsi        # 61669d <_ZStL8__ioinit>
  406095:	48 83 c4 08          	add    $0x8,%rsp
  406099:	e9 22 f7 ff ff       	jmpq   4057c0 <__cxa_atexit@plt>
  40609e:	66 90                	xchg   %ax,%ax

00000000004060a0 <_GLOBAL__sub_I__ZN7Plotter18qt_static_metacallEP7QObjectN11QMetaObject4CallEiPPv>:
  4060a0:	48 8d 3d f7 05 21 00 	lea    0x2105f7(%rip),%rdi        # 61669e <_ZStL8__ioinit>
  4060a7:	48 83 ec 08          	sub    $0x8,%rsp
  4060ab:	e8 b0 f8 ff ff       	callq  405960 <_ZNSt8ios_base4InitC1Ev@plt>
  4060b0:	48 8b 3d 31 ff 20 00 	mov    0x20ff31(%rip),%rdi        # 615fe8 <_DYNAMIC+0x258>
  4060b7:	48 8d 15 62 05 21 00 	lea    0x210562(%rip),%rdx        # 616620 <__dso_handle>
  4060be:	48 8d 35 d9 05 21 00 	lea    0x2105d9(%rip),%rsi        # 61669e <_ZStL8__ioinit>
  4060c5:	48 83 c4 08          	add    $0x8,%rsp
  4060c9:	e9 f2 f6 ff ff       	jmpq   4057c0 <__cxa_atexit@plt>

00000000004060ce <_start>:
  4060ce:	31 ed                	xor    %ebp,%ebp
  4060d0:	49 89 d1             	mov    %rdx,%r9
  4060d3:	5e                   	pop    %rsi
  4060d4:	48 89 e2             	mov    %rsp,%rdx
  4060d7:	48 83 e4 f0          	and    $0xfffffffffffffff0,%rsp
  4060db:	50                   	push   %rax
  4060dc:	54                   	push   %rsp
  4060dd:	49 c7 c0 30 ea 40 00 	mov    $0x40ea30,%r8
  4060e4:	48 c7 c1 c0 e9 40 00 	mov    $0x40e9c0,%rcx
  4060eb:	48 c7 c7 30 5c 40 00 	mov    $0x405c30,%rdi
  4060f2:	e8 c9 f7 ff ff       	callq  4058c0 <__libc_start_main@plt>
  4060f7:	f4                   	hlt    
  4060f8:	0f 1f 84 00 00 00 00 	nopl   0x0(%rax,%rax,1)
  4060ff:	00 

0000000000406100 <deregister_tm_clones>:
  406100:	b8 37 66 61 00       	mov    $0x616637,%eax
  406105:	55                   	push   %rbp
  406106:	48 2d 30 66 61 00    	sub    $0x616630,%rax
  40610c:	48 83 f8 0e          	cmp    $0xe,%rax
  406110:	48 89 e5             	mov    %rsp,%rbp
  406113:	77 02                	ja     406117 <deregister_tm_clones+0x17>
  406115:	5d                   	pop    %rbp
  406116:	c3                   	retq   
  406117:	b8 00 00 00 00       	mov    $0x0,%eax
  40611c:	48 85 c0             	test   %rax,%rax
  40611f:	74 f4                	je     406115 <deregister_tm_clones+0x15>
  406121:	5d                   	pop    %rbp
  406122:	bf 30 66 61 00       	mov    $0x616630,%edi
  406127:	ff e0                	jmpq   *%rax
  406129:	0f 1f 80 00 00 00 00 	nopl   0x0(%rax)

0000000000406130 <register_tm_clones>:
  406130:	b8 30 66 61 00       	mov    $0x616630,%eax
  406135:	55                   	push   %rbp
  406136:	48 2d 30 66 61 00    	sub    $0x616630,%rax
  40613c:	48 c1 f8 03          	sar    $0x3,%rax
  406140:	48 89 e5             	mov    %rsp,%rbp
  406143:	48 89 c2             	mov    %rax,%rdx
  406146:	48 c1 ea 3f          	shr    $0x3f,%rdx
  40614a:	48 01 d0             	add    %rdx,%rax
  40614d:	48 d1 f8             	sar    %rax
  406150:	75 02                	jne    406154 <register_tm_clones+0x24>
  406152:	5d                   	pop    %rbp
  406153:	c3                   	retq   
  406154:	ba 00 00 00 00       	mov    $0x0,%edx
  406159:	48 85 d2             	test   %rdx,%rdx
  40615c:	74 f4                	je     406152 <register_tm_clones+0x22>
  40615e:	5d                   	pop    %rbp
  40615f:	48 89 c6             	mov    %rax,%rsi
  406162:	bf 30 66 61 00       	mov    $0x616630,%edi
  406167:	ff e2                	jmpq   *%rdx
  406169:	0f 1f 80 00 00 00 00 	nopl   0x0(%rax)

0000000000406170 <__do_global_dtors_aux>:
  406170:	80 3d b9 04 21 00 00 	cmpb   $0x0,0x2104b9(%rip)        # 616630 <__TMC_END__>
  406177:	75 11                	jne    40618a <__do_global_dtors_aux+0x1a>
  406179:	55                   	push   %rbp
  40617a:	48 89 e5             	mov    %rsp,%rbp
  40617d:	e8 7e ff ff ff       	callq  406100 <deregister_tm_clones>
  406182:	5d                   	pop    %rbp
  406183:	c6 05 a6 04 21 00 01 	movb   $0x1,0x2104a6(%rip)        # 616630 <__TMC_END__>
  40618a:	f3 c3                	repz retq 
  40618c:	0f 1f 40 00          	nopl   0x0(%rax)

0000000000406190 <frame_dummy>:
  406190:	48 83 3d 60 f1 20 00 	cmpq   $0x0,0x20f160(%rip)        # 6152f8 <__JCR_END__>
  406197:	00 
  406198:	74 1e                	je     4061b8 <frame_dummy+0x28>
  40619a:	b8 00 00 00 00       	mov    $0x0,%eax
  40619f:	48 85 c0             	test   %rax,%rax
  4061a2:	74 14                	je     4061b8 <frame_dummy+0x28>
  4061a4:	55                   	push   %rbp
  4061a5:	bf f8 52 61 00       	mov    $0x6152f8,%edi
  4061aa:	48 89 e5             	mov    %rsp,%rbp
  4061ad:	ff d0                	callq  *%rax
  4061af:	5d                   	pop    %rbp
  4061b0:	e9 7b ff ff ff       	jmpq   406130 <register_tm_clones>
  4061b5:	0f 1f 00             	nopl   (%rax)
  4061b8:	e9 73 ff ff ff       	jmpq   406130 <register_tm_clones>
  4061bd:	0f 1f 00             	nopl   (%rax)

00000000004061c0 <_ZN10MainWindowD1Ev>:
  4061c0:	55                   	push   %rbp
  4061c1:	53                   	push   %rbx
  4061c2:	48 89 fb             	mov    %rdi,%rbx
  4061c5:	48 83 ec 08          	sub    $0x8,%rsp
  4061c9:	48 8d 05 30 f3 20 00 	lea    0x20f330(%rip),%rax        # 615500 <_ZTV10MainWindow>
  4061d0:	48 8d 50 10          	lea    0x10(%rax),%rdx
  4061d4:	48 05 c8 01 00 00    	add    $0x1c8,%rax
  4061da:	48 89 47 10          	mov    %rax,0x10(%rdi)
  4061de:	48 89 17             	mov    %rdx,(%rdi)
  4061e1:	48 8b 7f 30          	mov    0x30(%rdi),%rdi
  4061e5:	e8 36 f2 ff ff       	callq  405420 <_ZdlPv@plt>
  4061ea:	48 8b 2d 4f 04 21 00 	mov    0x21044f(%rip),%rbp        # 616640 <tempColumns>
  4061f1:	48 85 ed             	test   %rbp,%rbp
  4061f4:	74 10                	je     406206 <_ZN10MainWindowD1Ev+0x46>
  4061f6:	48 89 ef             	mov    %rbp,%rdi
  4061f9:	e8 72 66 00 00       	callq  40c870 <_ZN23CircularArray2DSpectrumIfED1Ev>
  4061fe:	48 89 ef             	mov    %rbp,%rdi
  406201:	e8 1a f2 ff ff       	callq  405420 <_ZdlPv@plt>
  406206:	48 8b 2d 63 04 21 00 	mov    0x210463(%rip),%rbp        # 616670 <dataBlock>
  40620d:	48 85 ed             	test   %rbp,%rbp
  406210:	74 10                	je     406222 <_ZN10MainWindowD1Ev+0x62>
  406212:	48 89 ef             	mov    %rbp,%rdi
  406215:	e8 56 1f 00 00       	callq  408170 <_ZN21CircularArray2DWorkerIfED1Ev>
  40621a:	48 89 ef             	mov    %rbp,%rdi
  40621d:	e8 fe f1 ff ff       	callq  405420 <_ZdlPv@plt>
  406222:	48 83 c4 08          	add    $0x8,%rsp
  406226:	48 89 df             	mov    %rbx,%rdi
  406229:	5b                   	pop    %rbx
  40622a:	5d                   	pop    %rbp
  40622b:	e9 70 ee ff ff       	jmpq   4050a0 <_ZN11QMainWindowD2Ev@plt>
  406230:	48 89 c5             	mov    %rax,%rbp
  406233:	48 89 df             	mov    %rbx,%rdi
  406236:	e8 65 ee ff ff       	callq  4050a0 <_ZN11QMainWindowD2Ev@plt>
  40623b:	48 89 ef             	mov    %rbp,%rdi
  40623e:	e8 dd f2 ff ff       	callq  405520 <_Unwind_Resume@plt>
  406243:	66 66 66 66 2e 0f 1f 	data32 data32 data32 nopw %cs:0x0(%rax,%rax,1)
  40624a:	84 00 00 00 00 00 

0000000000406250 <_ZThn16_N10MainWindowD1Ev>:
  406250:	48 83 ef 10          	sub    $0x10,%rdi
  406254:	e9 67 ff ff ff       	jmpq   4061c0 <_ZN10MainWindowD1Ev>
  406259:	90                   	nop
  40625a:	66 0f 1f 44 00 00    	nopw   0x0(%rax,%rax,1)

0000000000406260 <_ZN10MainWindowD0Ev>:
  406260:	53                   	push   %rbx
  406261:	48 89 fb             	mov    %rdi,%rbx
  406264:	e8 57 ff ff ff       	callq  4061c0 <_ZN10MainWindowD1Ev>
  406269:	48 89 df             	mov    %rbx,%rdi
  40626c:	5b                   	pop    %rbx
  40626d:	e9 ae f1 ff ff       	jmpq   405420 <_ZdlPv@plt>
  406272:	66 66 66 66 66 2e 0f 	data32 data32 data32 data32 nopw %cs:0x0(%rax,%rax,1)
  406279:	1f 84 00 00 00 00 00 

0000000000406280 <_ZThn16_N10MainWindowD0Ev>:
  406280:	48 83 ef 10          	sub    $0x10,%rdi
  406284:	eb da                	jmp    406260 <_ZN10MainWindowD0Ev>
  406286:	66 2e 0f 1f 84 00 00 	nopw   %cs:0x0(%rax,%rax,1)
  40628d:	00 00 00 

0000000000406290 <_ZN10MainWindowC1EP7QWidget>:
  406290:	41 55                	push   %r13
  406292:	31 d2                	xor    %edx,%edx
  406294:	49 89 fd             	mov    %rdi,%r13
  406297:	41 54                	push   %r12
  406299:	55                   	push   %rbp
  40629a:	53                   	push   %rbx
  40629b:	48 81 ec 08 04 00 00 	sub    $0x408,%rsp
  4062a2:	e8 89 f8 ff ff       	callq  405b30 <_ZN11QMainWindowC2EP7QWidget6QFlagsIN2Qt10WindowTypeEE@plt>
  4062a7:	48 8d 05 52 f2 20 00 	lea    0x20f252(%rip),%rax        # 615500 <_ZTV10MainWindow>
  4062ae:	bf 50 00 00 00       	mov    $0x50,%edi
  4062b3:	48 8d 50 10          	lea    0x10(%rax),%rdx
  4062b7:	48 05 c8 01 00 00    	add    $0x1c8,%rax
  4062bd:	49 89 45 10          	mov    %rax,0x10(%r13)
  4062c1:	49 89 55 00          	mov    %rdx,0x0(%r13)
  4062c5:	e8 96 ed ff ff       	callq  405060 <_Znwm@plt>
  4062ca:	49 89 45 30          	mov    %rax,0x30(%r13)
  4062ce:	4c 89 ee             	mov    %r13,%rsi
  4062d1:	48 89 c7             	mov    %rax,%rdi
  4062d4:	e8 67 02 00 00       	callq  406540 <_ZN13Ui_MainWindow7setupUiEP11QMainWindow>
  4062d9:	49 8b 45 30          	mov    0x30(%r13),%rax
  4062dd:	ba 40 4b 4c 00       	mov    $0x4c4b40,%edx
  4062e2:	31 f6                	xor    %esi,%esi
  4062e4:	48 8b 78 18          	mov    0x18(%rax),%rdi
  4062e8:	e8 f3 f5 ff ff       	callq  4058e0 <_ZN12QProgressBar8setRangeEii@plt>
  4062ed:	49 8b 45 30          	mov    0x30(%r13),%rax
  4062f1:	ba 40 4b 4c 00       	mov    $0x4c4b40,%edx
  4062f6:	31 f6                	xor    %esi,%esi
  4062f8:	48 8b 78 28          	mov    0x28(%rax),%rdi
  4062fc:	e8 df f5 ff ff       	callq  4058e0 <_ZN12QProgressBar8setRangeEii@plt>
  406301:	49 8b 45 30          	mov    0x30(%r13),%rax
  406305:	ba 40 4b 4c 00       	mov    $0x4c4b40,%edx
  40630a:	31 f6                	xor    %esi,%esi
  40630c:	48 8b 78 38          	mov    0x38(%rax),%rdi
  406310:	e8 cb f5 ff ff       	callq  4058e0 <_ZN12QProgressBar8setRangeEii@plt>
  406315:	bf 40 00 00 00       	mov    $0x40,%edi
  40631a:	e8 41 ed ff ff       	callq  405060 <_Znwm@plt>
  40631f:	ba 40 4b 4c 00       	mov    $0x4c4b40,%edx
  406324:	be 00 01 00 00       	mov    $0x100,%esi
  406329:	48 89 c7             	mov    %rax,%rdi
  40632c:	48 89 c5             	mov    %rax,%rbp
  40632f:	e8 cc 6f 00 00       	callq  40d300 <_ZN31CircularArray2DSpectrumThreadedIfEC1Eii>
  406334:	48 8d 9c 24 00 04 00 	lea    0x400(%rsp),%rbx
  40633b:	00 
  40633c:	48 89 2d 15 03 21 00 	mov    %rbp,0x210315(%rip)        # 616658 <rawSourceDataBlock>
  406343:	48 89 ef             	mov    %rbp,%rdi
  406346:	49 89 e4             	mov    %rsp,%r12
  406349:	31 ed                	xor    %ebp,%ebp
  40634b:	0f 1f 44 00 00       	nopl   0x0(%rax,%rax,1)
  406350:	f3 0f 2a c5          	cvtsi2ss %ebp,%xmm0
  406354:	4c 89 e0             	mov    %r12,%rax
  406357:	f3 0f 5e 05 c1 87 00 	divss  0x87c1(%rip),%xmm0        # 40eb20 <_IO_stdin_used+0xe0>
  40635e:	00 
  40635f:	90                   	nop
  406360:	f3 0f 11 00          	movss  %xmm0,(%rax)
  406364:	48 83 c0 04          	add    $0x4,%rax
  406368:	48 39 d8             	cmp    %rbx,%rax
  40636b:	75 f3                	jne    406360 <_ZN10MainWindowC1EP7QWidget+0xd0>
  40636d:	4c 89 e6             	mov    %r12,%rsi
  406370:	e8 6b 70 00 00       	callq  40d3e0 <_ZN31CircularArray2DSpectrumThreadedIfE11writeSampleEPf>
  406375:	83 c5 01             	add    $0x1,%ebp
  406378:	81 fd 40 4b 4c 00    	cmp    $0x4c4b40,%ebp
  40637e:	74 09                	je     406389 <_ZN10MainWindowC1EP7QWidget+0xf9>
  406380:	48 8b 3d d1 02 21 00 	mov    0x2102d1(%rip),%rdi        # 616658 <rawSourceDataBlock>
  406387:	eb c7                	jmp    406350 <_ZN10MainWindowC1EP7QWidget+0xc0>
  406389:	bf 40 00 00 00       	mov    $0x40,%edi
  40638e:	e8 cd ec ff ff       	callq  405060 <_Znwm@plt>
  406393:	ba 40 4b 4c 00       	mov    $0x4c4b40,%edx
  406398:	be 00 01 00 00       	mov    $0x100,%esi
  40639d:	48 89 c7             	mov    %rax,%rdi
  4063a0:	48 89 c5             	mov    %rax,%rbp
  4063a3:	e8 58 6f 00 00       	callq  40d300 <_ZN31CircularArray2DSpectrumThreadedIfEC1Eii>
  4063a8:	bf 48 00 00 00       	mov    $0x48,%edi
  4063ad:	48 89 2d 9c 02 21 00 	mov    %rbp,0x21029c(%rip)        # 616650 <pipelineSourceDataBlock>
  4063b4:	e8 a7 ec ff ff       	callq  405060 <_Znwm@plt>
  4063b9:	48 8b 0d 90 02 21 00 	mov    0x210290(%rip),%rcx        # 616650 <pipelineSourceDataBlock>
  4063c0:	48 8b 15 91 02 21 00 	mov    0x210291(%rip),%rdx        # 616658 <rawSourceDataBlock>
  4063c7:	41 b9 02 00 00 00    	mov    $0x2,%r9d
  4063cd:	41 b8 f4 01 00 00    	mov    $0x1f4,%r8d
  4063d3:	4c 89 ee             	mov    %r13,%rsi
  4063d6:	48 89 c7             	mov    %rax,%rdi
  4063d9:	48 89 c5             	mov    %rax,%rbp
  4063dc:	e8 cf 73 00 00       	callq  40d7b0 <_ZN8PipelineC1EP7QObjectP31CircularArray2DSpectrumThreadedIfES4_ii>
  4063e1:	49 89 6d 48          	mov    %rbp,0x48(%r13)
  4063e5:	bf 40 00 00 00       	mov    $0x40,%edi
  4063ea:	e8 71 ec ff ff       	callq  405060 <_Znwm@plt>
  4063ef:	48 89 c5             	mov    %rax,%rbp
  4063f2:	49 8b 45 30          	mov    0x30(%r13),%rax
  4063f6:	48 8b 15 53 02 21 00 	mov    0x210253(%rip),%rdx        # 616650 <pipelineSourceDataBlock>
  4063fd:	41 b8 02 00 00 00    	mov    $0x2,%r8d
  406403:	b9 f4 01 00 00       	mov    $0x1f4,%ecx
  406408:	4c 89 ee             	mov    %r13,%rsi
  40640b:	48 89 ef             	mov    %rbp,%rdi
  40640e:	4c 8b 48 48          	mov    0x48(%rax),%r9
  406412:	e8 69 77 00 00       	callq  40db80 <_ZN7PlotterC1EP7QObjectP31CircularArray2DSpectrumThreadedIfEiiP15SpectrogramPlot>
  406417:	4c 8d 05 d8 86 00 00 	lea    0x86d8(%rip),%r8        # 40eaf6 <_IO_stdin_used+0xb6>
  40641e:	48 8d 15 ea 86 00 00 	lea    0x86ea(%rip),%rdx        # 40eb0f <_IO_stdin_used+0xcf>
  406425:	49 89 6d 50          	mov    %rbp,0x50(%r13)
  406429:	45 31 c9             	xor    %r9d,%r9d
  40642c:	4c 89 e9             	mov    %r13,%rcx
  40642f:	48 89 ee             	mov    %rbp,%rsi
  406432:	4c 89 e7             	mov    %r12,%rdi
  406435:	e8 26 f1 ff ff       	callq  405560 <_ZN7QObject7connectEPKS_PKcS1_S3_N2Qt14ConnectionTypeE@plt>
  40643a:	4c 89 e7             	mov    %r12,%rdi
  40643d:	e8 4e ec ff ff       	callq  405090 <_ZN11QMetaObject10ConnectionD1Ev@plt>
  406442:	48 81 c4 08 04 00 00 	add    $0x408,%rsp
  406449:	5b                   	pop    %rbx
  40644a:	5d                   	pop    %rbp
  40644b:	41 5c                	pop    %r12
  40644d:	41 5d                	pop    %r13
  40644f:	c3                   	retq   
  406450:	48 89 ef             	mov    %rbp,%rdi
  406453:	48 89 c3             	mov    %rax,%rbx
  406456:	e8 c5 ef ff ff       	callq  405420 <_ZdlPv@plt>
  40645b:	4c 89 ef             	mov    %r13,%rdi
  40645e:	e8 3d ec ff ff       	callq  4050a0 <_ZN11QMainWindowD2Ev@plt>
  406463:	48 89 df             	mov    %rbx,%rdi
  406466:	e8 b5 f0 ff ff       	callq  405520 <_Unwind_Resume@plt>
  40646b:	48 89 c3             	mov    %rax,%rbx
  40646e:	eb eb                	jmp    40645b <_ZN10MainWindowC1EP7QWidget+0x1cb>
  406470:	eb de                	jmp    406450 <_ZN10MainWindowC1EP7QWidget+0x1c0>
  406472:	eb dc                	jmp    406450 <_ZN10MainWindowC1EP7QWidget+0x1c0>
  406474:	eb da                	jmp    406450 <_ZN10MainWindowC1EP7QWidget+0x1c0>
  406476:	66 2e 0f 1f 84 00 00 	nopw   %cs:0x0(%rax,%rax,1)
  40647d:	00 00 00 

0000000000406480 <_ZN10MainWindow21spectrogramPlotUpdateEv>:
  406480:	48 8b 47 30          	mov    0x30(%rdi),%rax
  406484:	48 8b 78 48          	mov    0x48(%rax),%rdi
  406488:	48 8b 07             	mov    (%rdi),%rax
  40648b:	48 8b 80 d8 01 00 00 	mov    0x1d8(%rax),%rax
  406492:	ff e0                	jmpq   *%rax
  406494:	66 66 66 2e 0f 1f 84 	data32 data32 nopw %cs:0x0(%rax,%rax,1)
  40649b:	00 00 00 00 00 

00000000004064a0 <_ZN10MainWindow20onBufferValueChangedEi>:
  4064a0:	48 8b 47 30          	mov    0x30(%rdi),%rax
  4064a4:	48 8b 78 38          	mov    0x38(%rax),%rdi
  4064a8:	e9 43 f3 ff ff       	jmpq   4057f0 <_ZN12QProgressBar8setValueEi@plt>
  4064ad:	90                   	nop
  4064ae:	66 90                	xchg   %ax,%ax

00000000004064b0 <_ZN10MainWindow22onProducerValueChangedEi>:
  4064b0:	48 8b 47 30          	mov    0x30(%rdi),%rax
  4064b4:	48 8b 78 18          	mov    0x18(%rax),%rdi
  4064b8:	e9 33 f3 ff ff       	jmpq   4057f0 <_ZN12QProgressBar8setValueEi@plt>
  4064bd:	90                   	nop
  4064be:	66 90                	xchg   %ax,%ax

00000000004064c0 <_ZN10MainWindow22onConsumerValueChangedEi>:
  4064c0:	48 8b 47 30          	mov    0x30(%rdi),%rax
  4064c4:	48 8b 78 28          	mov    0x28(%rax),%rdi
  4064c8:	e9 23 f3 ff ff       	jmpq   4057f0 <_ZN12QProgressBar8setValueEi@plt>
  4064cd:	90                   	nop
  4064ce:	66 90                	xchg   %ax,%ax

00000000004064d0 <_ZN10MainWindow26on_startPushButton_clickedEv>:
  4064d0:	53                   	push   %rbx
  4064d1:	48 8b 47 30          	mov    0x30(%rdi),%rax
  4064d5:	48 89 fb             	mov    %rdi,%rbx
  4064d8:	31 f6                	xor    %esi,%esi
  4064da:	48 8b 78 40          	mov    0x40(%rax),%rdi
  4064de:	e8 3d f6 ff ff       	callq  405b20 <_ZN7QWidget10setEnabledEb@plt>
  4064e3:	48 8b 7b 50          	mov    0x50(%rbx),%rdi
  4064e7:	be 07 00 00 00       	mov    $0x7,%esi
  4064ec:	e8 5f f5 ff ff       	callq  405a50 <_ZN7QThread5startENS_8PriorityE@plt>
  4064f1:	48 8b 7b 48          	mov    0x48(%rbx),%rdi
  4064f5:	be 07 00 00 00       	mov    $0x7,%esi
  4064fa:	5b                   	pop    %rbx
  4064fb:	e9 50 f5 ff ff       	jmpq   405a50 <_ZN7QThread5startENS_8PriorityE@plt>

0000000000406500 <_ZN7QStringD1Ev>:
  406500:	48 8b 07             	mov    (%rdi),%rax
  406503:	8b 10                	mov    (%rax),%edx
  406505:	85 d2                	test   %edx,%edx
  406507:	75 17                	jne    406520 <_ZN7QStringD1Ev+0x20>
  406509:	ba 08 00 00 00       	mov    $0x8,%edx
  40650e:	be 02 00 00 00       	mov    $0x2,%esi
  406513:	48 89 c7             	mov    %rax,%rdi
  406516:	e9 35 f4 ff ff       	jmpq   405950 <_ZN10QArrayData10deallocateEPS_mm@plt>
  40651b:	0f 1f 44 00 00       	nopl   0x0(%rax,%rax,1)
  406520:	83 fa ff             	cmp    $0xffffffff,%edx
  406523:	74 0b                	je     406530 <_ZN7QStringD1Ev+0x30>
  406525:	f0 83 28 01          	lock subl $0x1,(%rax)
  406529:	0f 95 c2             	setne  %dl
  40652c:	84 d2                	test   %dl,%dl
  40652e:	74 02                	je     406532 <_ZN7QStringD1Ev+0x32>
  406530:	f3 c3                	repz retq 
  406532:	48 8b 07             	mov    (%rdi),%rax
  406535:	eb d2                	jmp    406509 <_ZN7QStringD1Ev+0x9>
  406537:	66 0f 1f 84 00 00 00 	nopw   0x0(%rax,%rax,1)
  40653e:	00 00 

0000000000406540 <_ZN13Ui_MainWindow7setupUiEP11QMainWindow>:
  406540:	41 55                	push   %r13
  406542:	41 54                	push   %r12
  406544:	49 89 f4             	mov    %rsi,%r12
  406547:	55                   	push   %rbp
  406548:	53                   	push   %rbx
  406549:	48 89 fb             	mov    %rdi,%rbx
  40654c:	48 83 ec 18          	sub    $0x18,%rsp
  406550:	48 89 e7             	mov    %rsp,%rdi
  406553:	48 89 e5             	mov    %rsp,%rbp
  406556:	e8 95 eb ff ff       	callq  4050f0 <_ZNK7QObject10objectNameEv@plt>
  40655b:	48 8b 3c 24          	mov    (%rsp),%rdi
  40655f:	8b 07                	mov    (%rdi),%eax
  406561:	44 8b 6f 04          	mov    0x4(%rdi),%r13d
  406565:	85 c0                	test   %eax,%eax
  406567:	0f 85 43 06 00 00    	jne    406bb0 <_ZN13Ui_MainWindow7setupUiEP11QMainWindow+0x670>
  40656d:	ba 08 00 00 00       	mov    $0x8,%edx
  406572:	be 02 00 00 00       	mov    $0x2,%esi
  406577:	e8 d4 f3 ff ff       	callq  405950 <_ZN10QArrayData10deallocateEPS_mm@plt>
  40657c:	45 85 ed             	test   %r13d,%r13d
  40657f:	75 3c                	jne    4065bd <_ZN13Ui_MainWindow7setupUiEP11QMainWindow+0x7d>
  406581:	48 8d 35 bc 84 00 00 	lea    0x84bc(%rip),%rsi        # 40ea44 <_IO_stdin_used+0x4>
  406588:	48 89 ef             	mov    %rbp,%rdi
  40658b:	ba 0a 00 00 00       	mov    $0xa,%edx
  406590:	e8 4b eb ff ff       	callq  4050e0 <_ZN7QString15fromUtf8_helperEPKci@plt>
  406595:	48 89 ee             	mov    %rbp,%rsi
  406598:	4c 89 e7             	mov    %r12,%rdi
  40659b:	e8 a0 f5 ff ff       	callq  405b40 <_ZN7QObject13setObjectNameERK7QString@plt>
  4065a0:	48 8b 3c 24          	mov    (%rsp),%rdi
  4065a4:	8b 07                	mov    (%rdi),%eax
  4065a6:	85 c0                	test   %eax,%eax
  4065a8:	0f 85 72 08 00 00    	jne    406e20 <_ZN13Ui_MainWindow7setupUiEP11QMainWindow+0x8e0>
  4065ae:	ba 08 00 00 00       	mov    $0x8,%edx
  4065b3:	be 02 00 00 00       	mov    $0x2,%esi
  4065b8:	e8 93 f3 ff ff       	callq  405950 <_ZN10QArrayData10deallocateEPS_mm@plt>
  4065bd:	48 89 ee             	mov    %rbp,%rsi
  4065c0:	4c 89 e7             	mov    %r12,%rdi
  4065c3:	c7 04 24 aa 02 00 00 	movl   $0x2aa,(%rsp)
  4065ca:	c7 44 24 04 fe 01 00 	movl   $0x1fe,0x4(%rsp)
  4065d1:	00 
  4065d2:	e8 39 ea ff ff       	callq  405010 <_ZN7QWidget6resizeERK5QSize@plt>
  4065d7:	bf 30 00 00 00       	mov    $0x30,%edi
  4065dc:	e8 7f ea ff ff       	callq  405060 <_Znwm@plt>
  4065e1:	31 d2                	xor    %edx,%edx
  4065e3:	4c 89 e6             	mov    %r12,%rsi
  4065e6:	48 89 c7             	mov    %rax,%rdi
  4065e9:	49 89 c5             	mov    %rax,%r13
  4065ec:	e8 7f f2 ff ff       	callq  405870 <_ZN7QWidgetC1EPS_6QFlagsIN2Qt10WindowTypeEE@plt>
  4065f1:	48 8d 35 57 84 00 00 	lea    0x8457(%rip),%rsi        # 40ea4f <_IO_stdin_used+0xf>
  4065f8:	48 89 ef             	mov    %rbp,%rdi
  4065fb:	4c 89 2b             	mov    %r13,(%rbx)
  4065fe:	ba 0d 00 00 00       	mov    $0xd,%edx
  406603:	e8 d8 ea ff ff       	callq  4050e0 <_ZN7QString15fromUtf8_helperEPKci@plt>
  406608:	48 8b 3b             	mov    (%rbx),%rdi
  40660b:	48 89 ee             	mov    %rbp,%rsi
  40660e:	e8 2d f5 ff ff       	callq  405b40 <_ZN7QObject13setObjectNameERK7QString@plt>
  406613:	48 8b 3c 24          	mov    (%rsp),%rdi
  406617:	8b 07                	mov    (%rdi),%eax
  406619:	85 c0                	test   %eax,%eax
  40661b:	0f 85 d7 07 00 00    	jne    406df8 <_ZN13Ui_MainWindow7setupUiEP11QMainWindow+0x8b8>
  406621:	ba 08 00 00 00       	mov    $0x8,%edx
  406626:	be 02 00 00 00       	mov    $0x2,%esi
  40662b:	e8 20 f3 ff ff       	callq  405950 <_ZN10QArrayData10deallocateEPS_mm@plt>
  406630:	bf 20 00 00 00       	mov    $0x20,%edi
  406635:	e8 26 ea ff ff       	callq  405060 <_Znwm@plt>
  40663a:	48 8b 33             	mov    (%rbx),%rsi
  40663d:	48 89 c7             	mov    %rax,%rdi
  406640:	49 89 c5             	mov    %rax,%r13
  406643:	e8 58 f0 ff ff       	callq  4056a0 <_ZN11QVBoxLayoutC1EP7QWidget@plt>
  406648:	be 06 00 00 00       	mov    $0x6,%esi
  40664d:	4c 89 ef             	mov    %r13,%rdi
  406650:	4c 89 6b 08          	mov    %r13,0x8(%rbx)
  406654:	e8 b7 f3 ff ff       	callq  405a10 <_ZN10QBoxLayout10setSpacingEi@plt>
  406659:	48 8b 7b 08          	mov    0x8(%rbx),%rdi
  40665d:	41 b8 0b 00 00 00    	mov    $0xb,%r8d
  406663:	b9 0b 00 00 00       	mov    $0xb,%ecx
  406668:	ba 0b 00 00 00       	mov    $0xb,%edx
  40666d:	be 0b 00 00 00       	mov    $0xb,%esi
  406672:	e8 d9 eb ff ff       	callq  405250 <_ZN7QLayout18setContentsMarginsEiiii@plt>
  406677:	48 8d 35 df 83 00 00 	lea    0x83df(%rip),%rsi        # 40ea5d <_IO_stdin_used+0x1d>
  40667e:	48 89 ef             	mov    %rbp,%rdi
  406681:	ba 0e 00 00 00       	mov    $0xe,%edx
  406686:	e8 55 ea ff ff       	callq  4050e0 <_ZN7QString15fromUtf8_helperEPKci@plt>
  40668b:	48 8b 7b 08          	mov    0x8(%rbx),%rdi
  40668f:	48 89 ee             	mov    %rbp,%rsi
  406692:	e8 a9 f4 ff ff       	callq  405b40 <_ZN7QObject13setObjectNameERK7QString@plt>
  406697:	48 8b 3c 24          	mov    (%rsp),%rdi
  40669b:	8b 07                	mov    (%rdi),%eax
  40669d:	85 c0                	test   %eax,%eax
  40669f:	0f 85 2b 07 00 00    	jne    406dd0 <_ZN13Ui_MainWindow7setupUiEP11QMainWindow+0x890>
  4066a5:	ba 08 00 00 00       	mov    $0x8,%edx
  4066aa:	be 02 00 00 00       	mov    $0x2,%esi
  4066af:	e8 9c f2 ff ff       	callq  405950 <_ZN10QArrayData10deallocateEPS_mm@plt>
  4066b4:	bf 30 00 00 00       	mov    $0x30,%edi
  4066b9:	e8 a2 e9 ff ff       	callq  405060 <_Znwm@plt>
  4066be:	48 8b 33             	mov    (%rbx),%rsi
  4066c1:	31 d2                	xor    %edx,%edx
  4066c3:	48 89 c7             	mov    %rax,%rdi
  4066c6:	49 89 c5             	mov    %rax,%r13
  4066c9:	e8 12 f0 ff ff       	callq  4056e0 <_ZN6QLabelC1EP7QWidget6QFlagsIN2Qt10WindowTypeEE@plt>
  4066ce:	48 8d 35 97 83 00 00 	lea    0x8397(%rip),%rsi        # 40ea6c <_IO_stdin_used+0x2c>
  4066d5:	48 89 ef             	mov    %rbp,%rdi
  4066d8:	4c 89 6b 10          	mov    %r13,0x10(%rbx)
  4066dc:	ba 05 00 00 00       	mov    $0x5,%edx
  4066e1:	e8 fa e9 ff ff       	callq  4050e0 <_ZN7QString15fromUtf8_helperEPKci@plt>
  4066e6:	48 8b 7b 10          	mov    0x10(%rbx),%rdi
  4066ea:	48 89 ee             	mov    %rbp,%rsi
  4066ed:	e8 4e f4 ff ff       	callq  405b40 <_ZN7QObject13setObjectNameERK7QString@plt>
  4066f2:	48 8b 3c 24          	mov    (%rsp),%rdi
  4066f6:	8b 07                	mov    (%rdi),%eax
  4066f8:	85 c0                	test   %eax,%eax
  4066fa:	0f 85 a8 06 00 00    	jne    406da8 <_ZN13Ui_MainWindow7setupUiEP11QMainWindow+0x868>
  406700:	ba 08 00 00 00       	mov    $0x8,%edx
  406705:	be 02 00 00 00       	mov    $0x2,%esi
  40670a:	e8 41 f2 ff ff       	callq  405950 <_ZN10QArrayData10deallocateEPS_mm@plt>
  40670f:	48 8b 73 10          	mov    0x10(%rbx),%rsi
  406713:	48 8b 7b 08          	mov    0x8(%rbx),%rdi
  406717:	31 c9                	xor    %ecx,%ecx
  406719:	31 d2                	xor    %edx,%edx
  40671b:	e8 d0 f3 ff ff       	callq  405af0 <_ZN10QBoxLayout9addWidgetEP7QWidgeti6QFlagsIN2Qt13AlignmentFlagEE@plt>
  406720:	bf 30 00 00 00       	mov    $0x30,%edi
  406725:	e8 36 e9 ff ff       	callq  405060 <_Znwm@plt>
  40672a:	48 8b 33             	mov    (%rbx),%rsi
  40672d:	48 89 c7             	mov    %rax,%rdi
  406730:	49 89 c5             	mov    %rax,%r13
  406733:	e8 e8 e8 ff ff       	callq  405020 <_ZN12QProgressBarC1EP7QWidget@plt>
  406738:	48 8d 35 33 83 00 00 	lea    0x8333(%rip),%rsi        # 40ea72 <_IO_stdin_used+0x32>
  40673f:	48 89 ef             	mov    %rbp,%rdi
  406742:	4c 89 6b 18          	mov    %r13,0x18(%rbx)
  406746:	ba 13 00 00 00       	mov    $0x13,%edx
  40674b:	e8 90 e9 ff ff       	callq  4050e0 <_ZN7QString15fromUtf8_helperEPKci@plt>
  406750:	48 8b 7b 18          	mov    0x18(%rbx),%rdi
  406754:	48 89 ee             	mov    %rbp,%rsi
  406757:	e8 e4 f3 ff ff       	callq  405b40 <_ZN7QObject13setObjectNameERK7QString@plt>
  40675c:	48 8b 3c 24          	mov    (%rsp),%rdi
  406760:	8b 07                	mov    (%rdi),%eax
  406762:	85 c0                	test   %eax,%eax
  406764:	0f 85 16 06 00 00    	jne    406d80 <_ZN13Ui_MainWindow7setupUiEP11QMainWindow+0x840>
  40676a:	ba 08 00 00 00       	mov    $0x8,%edx
  40676f:	be 02 00 00 00       	mov    $0x2,%esi
  406774:	e8 d7 f1 ff ff       	callq  405950 <_ZN10QArrayData10deallocateEPS_mm@plt>
  406779:	48 8b 7b 18          	mov    0x18(%rbx),%rdi
  40677d:	be 18 00 00 00       	mov    $0x18,%esi
  406782:	e8 69 f0 ff ff       	callq  4057f0 <_ZN12QProgressBar8setValueEi@plt>
  406787:	48 8b 73 18          	mov    0x18(%rbx),%rsi
  40678b:	48 8b 7b 08          	mov    0x8(%rbx),%rdi
  40678f:	31 d2                	xor    %edx,%edx
  406791:	31 c9                	xor    %ecx,%ecx
  406793:	e8 58 f3 ff ff       	callq  405af0 <_ZN10QBoxLayout9addWidgetEP7QWidgeti6QFlagsIN2Qt13AlignmentFlagEE@plt>
  406798:	bf 30 00 00 00       	mov    $0x30,%edi
  40679d:	e8 be e8 ff ff       	callq  405060 <_Znwm@plt>
  4067a2:	48 8b 33             	mov    (%rbx),%rsi
  4067a5:	31 d2                	xor    %edx,%edx
  4067a7:	48 89 c7             	mov    %rax,%rdi
  4067aa:	49 89 c5             	mov    %rax,%r13
  4067ad:	e8 2e ef ff ff       	callq  4056e0 <_ZN6QLabelC1EP7QWidget6QFlagsIN2Qt10WindowTypeEE@plt>
  4067b2:	48 8d 35 cd 82 00 00 	lea    0x82cd(%rip),%rsi        # 40ea86 <_IO_stdin_used+0x46>
  4067b9:	48 89 ef             	mov    %rbp,%rdi
  4067bc:	4c 89 6b 20          	mov    %r13,0x20(%rbx)
  4067c0:	ba 07 00 00 00       	mov    $0x7,%edx
  4067c5:	e8 16 e9 ff ff       	callq  4050e0 <_ZN7QString15fromUtf8_helperEPKci@plt>
  4067ca:	48 8b 7b 20          	mov    0x20(%rbx),%rdi
  4067ce:	48 89 ee             	mov    %rbp,%rsi
  4067d1:	e8 6a f3 ff ff       	callq  405b40 <_ZN7QObject13setObjectNameERK7QString@plt>
  4067d6:	48 8b 3c 24          	mov    (%rsp),%rdi
  4067da:	8b 07                	mov    (%rdi),%eax
  4067dc:	85 c0                	test   %eax,%eax
  4067de:	0f 85 74 05 00 00    	jne    406d58 <_ZN13Ui_MainWindow7setupUiEP11QMainWindow+0x818>
  4067e4:	ba 08 00 00 00       	mov    $0x8,%edx
  4067e9:	be 02 00 00 00       	mov    $0x2,%esi
  4067ee:	e8 5d f1 ff ff       	callq  405950 <_ZN10QArrayData10deallocateEPS_mm@plt>
  4067f3:	48 8b 73 20          	mov    0x20(%rbx),%rsi
  4067f7:	48 8b 7b 08          	mov    0x8(%rbx),%rdi
  4067fb:	31 c9                	xor    %ecx,%ecx
  4067fd:	31 d2                	xor    %edx,%edx
  4067ff:	e8 ec f2 ff ff       	callq  405af0 <_ZN10QBoxLayout9addWidgetEP7QWidgeti6QFlagsIN2Qt13AlignmentFlagEE@plt>
  406804:	bf 30 00 00 00       	mov    $0x30,%edi
  406809:	e8 52 e8 ff ff       	callq  405060 <_Znwm@plt>
  40680e:	48 8b 33             	mov    (%rbx),%rsi
  406811:	48 89 c7             	mov    %rax,%rdi
  406814:	49 89 c5             	mov    %rax,%r13
  406817:	e8 04 e8 ff ff       	callq  405020 <_ZN12QProgressBarC1EP7QWidget@plt>
  40681c:	48 8d 35 6b 82 00 00 	lea    0x826b(%rip),%rsi        # 40ea8e <_IO_stdin_used+0x4e>
  406823:	48 89 ef             	mov    %rbp,%rdi
  406826:	4c 89 6b 28          	mov    %r13,0x28(%rbx)
  40682a:	ba 13 00 00 00       	mov    $0x13,%edx
  40682f:	e8 ac e8 ff ff       	callq  4050e0 <_ZN7QString15fromUtf8_helperEPKci@plt>
  406834:	48 8b 7b 28          	mov    0x28(%rbx),%rdi
  406838:	48 89 ee             	mov    %rbp,%rsi
  40683b:	e8 00 f3 ff ff       	callq  405b40 <_ZN7QObject13setObjectNameERK7QString@plt>
  406840:	48 8b 3c 24          	mov    (%rsp),%rdi
  406844:	8b 07                	mov    (%rdi),%eax
  406846:	85 c0                	test   %eax,%eax
  406848:	0f 85 e2 04 00 00    	jne    406d30 <_ZN13Ui_MainWindow7setupUiEP11QMainWindow+0x7f0>
  40684e:	ba 08 00 00 00       	mov    $0x8,%edx
  406853:	be 02 00 00 00       	mov    $0x2,%esi
  406858:	e8 f3 f0 ff ff       	callq  405950 <_ZN10QArrayData10deallocateEPS_mm@plt>
  40685d:	48 8b 7b 28          	mov    0x28(%rbx),%rdi
  406861:	be 18 00 00 00       	mov    $0x18,%esi
  406866:	e8 85 ef ff ff       	callq  4057f0 <_ZN12QProgressBar8setValueEi@plt>
  40686b:	48 8b 73 28          	mov    0x28(%rbx),%rsi
  40686f:	48 8b 7b 08          	mov    0x8(%rbx),%rdi
  406873:	31 d2                	xor    %edx,%edx
  406875:	31 c9                	xor    %ecx,%ecx
  406877:	e8 74 f2 ff ff       	callq  405af0 <_ZN10QBoxLayout9addWidgetEP7QWidgeti6QFlagsIN2Qt13AlignmentFlagEE@plt>
  40687c:	bf 30 00 00 00       	mov    $0x30,%edi
  406881:	e8 da e7 ff ff       	callq  405060 <_Znwm@plt>
  406886:	48 8b 33             	mov    (%rbx),%rsi
  406889:	31 d2                	xor    %edx,%edx
  40688b:	48 89 c7             	mov    %rax,%rdi
  40688e:	49 89 c5             	mov    %rax,%r13
  406891:	e8 4a ee ff ff       	callq  4056e0 <_ZN6QLabelC1EP7QWidget6QFlagsIN2Qt10WindowTypeEE@plt>
  406896:	48 8d 35 05 82 00 00 	lea    0x8205(%rip),%rsi        # 40eaa2 <_IO_stdin_used+0x62>
  40689d:	48 89 ef             	mov    %rbp,%rdi
  4068a0:	4c 89 6b 30          	mov    %r13,0x30(%rbx)
  4068a4:	ba 07 00 00 00       	mov    $0x7,%edx
  4068a9:	e8 32 e8 ff ff       	callq  4050e0 <_ZN7QString15fromUtf8_helperEPKci@plt>
  4068ae:	48 8b 7b 30          	mov    0x30(%rbx),%rdi
  4068b2:	48 89 ee             	mov    %rbp,%rsi
  4068b5:	e8 86 f2 ff ff       	callq  405b40 <_ZN7QObject13setObjectNameERK7QString@plt>
  4068ba:	48 8b 3c 24          	mov    (%rsp),%rdi
  4068be:	8b 07                	mov    (%rdi),%eax
  4068c0:	85 c0                	test   %eax,%eax
  4068c2:	0f 85 40 04 00 00    	jne    406d08 <_ZN13Ui_MainWindow7setupUiEP11QMainWindow+0x7c8>
  4068c8:	ba 08 00 00 00       	mov    $0x8,%edx
  4068cd:	be 02 00 00 00       	mov    $0x2,%esi
  4068d2:	e8 79 f0 ff ff       	callq  405950 <_ZN10QArrayData10deallocateEPS_mm@plt>
  4068d7:	48 8b 73 30          	mov    0x30(%rbx),%rsi
  4068db:	48 8b 7b 08          	mov    0x8(%rbx),%rdi
  4068df:	31 c9                	xor    %ecx,%ecx
  4068e1:	31 d2                	xor    %edx,%edx
  4068e3:	e8 08 f2 ff ff       	callq  405af0 <_ZN10QBoxLayout9addWidgetEP7QWidgeti6QFlagsIN2Qt13AlignmentFlagEE@plt>
  4068e8:	bf 30 00 00 00       	mov    $0x30,%edi
  4068ed:	e8 6e e7 ff ff       	callq  405060 <_Znwm@plt>
  4068f2:	48 8b 33             	mov    (%rbx),%rsi
  4068f5:	48 89 c7             	mov    %rax,%rdi
  4068f8:	49 89 c5             	mov    %rax,%r13
  4068fb:	e8 20 e7 ff ff       	callq  405020 <_ZN12QProgressBarC1EP7QWidget@plt>
  406900:	48 8d 35 a3 81 00 00 	lea    0x81a3(%rip),%rsi        # 40eaaa <_IO_stdin_used+0x6a>
  406907:	48 89 ef             	mov    %rbp,%rdi
  40690a:	4c 89 6b 38          	mov    %r13,0x38(%rbx)
  40690e:	ba 11 00 00 00       	mov    $0x11,%edx
  406913:	e8 c8 e7 ff ff       	callq  4050e0 <_ZN7QString15fromUtf8_helperEPKci@plt>
  406918:	48 8b 7b 38          	mov    0x38(%rbx),%rdi
  40691c:	48 89 ee             	mov    %rbp,%rsi
  40691f:	e8 1c f2 ff ff       	callq  405b40 <_ZN7QObject13setObjectNameERK7QString@plt>
  406924:	48 8b 3c 24          	mov    (%rsp),%rdi
  406928:	8b 07                	mov    (%rdi),%eax
  40692a:	85 c0                	test   %eax,%eax
  40692c:	0f 85 ae 03 00 00    	jne    406ce0 <_ZN13Ui_MainWindow7setupUiEP11QMainWindow+0x7a0>
  406932:	ba 08 00 00 00       	mov    $0x8,%edx
  406937:	be 02 00 00 00       	mov    $0x2,%esi
  40693c:	e8 0f f0 ff ff       	callq  405950 <_ZN10QArrayData10deallocateEPS_mm@plt>
  406941:	48 8b 7b 38          	mov    0x38(%rbx),%rdi
  406945:	be 18 00 00 00       	mov    $0x18,%esi
  40694a:	e8 a1 ee ff ff       	callq  4057f0 <_ZN12QProgressBar8setValueEi@plt>
  40694f:	48 8b 73 38          	mov    0x38(%rbx),%rsi
  406953:	48 8b 7b 08          	mov    0x8(%rbx),%rdi
  406957:	31 c9                	xor    %ecx,%ecx
  406959:	31 d2                	xor    %edx,%edx
  40695b:	e8 90 f1 ff ff       	callq  405af0 <_ZN10QBoxLayout9addWidgetEP7QWidgeti6QFlagsIN2Qt13AlignmentFlagEE@plt>
  406960:	bf 30 00 00 00       	mov    $0x30,%edi
  406965:	e8 f6 e6 ff ff       	callq  405060 <_Znwm@plt>
  40696a:	48 8b 33             	mov    (%rbx),%rsi
  40696d:	48 89 c7             	mov    %rax,%rdi
  406970:	49 89 c5             	mov    %rax,%r13
  406973:	e8 98 f1 ff ff       	callq  405b10 <_ZN11QPushButtonC1EP7QWidget@plt>
  406978:	48 8d 35 3d 81 00 00 	lea    0x813d(%rip),%rsi        # 40eabc <_IO_stdin_used+0x7c>
  40697f:	48 89 ef             	mov    %rbp,%rdi
  406982:	4c 89 6b 40          	mov    %r13,0x40(%rbx)
  406986:	ba 0f 00 00 00       	mov    $0xf,%edx
  40698b:	e8 50 e7 ff ff       	callq  4050e0 <_ZN7QString15fromUtf8_helperEPKci@plt>
  406990:	48 8b 7b 40          	mov    0x40(%rbx),%rdi
  406994:	48 89 ee             	mov    %rbp,%rsi
  406997:	e8 a4 f1 ff ff       	callq  405b40 <_ZN7QObject13setObjectNameERK7QString@plt>
  40699c:	48 8b 3c 24          	mov    (%rsp),%rdi
  4069a0:	8b 07                	mov    (%rdi),%eax
  4069a2:	85 c0                	test   %eax,%eax
  4069a4:	0f 85 0e 03 00 00    	jne    406cb8 <_ZN13Ui_MainWindow7setupUiEP11QMainWindow+0x778>
  4069aa:	ba 08 00 00 00       	mov    $0x8,%edx
  4069af:	be 02 00 00 00       	mov    $0x2,%esi
  4069b4:	e8 97 ef ff ff       	callq  405950 <_ZN10QArrayData10deallocateEPS_mm@plt>
  4069b9:	48 8b 73 40          	mov    0x40(%rbx),%rsi
  4069bd:	48 8b 7b 08          	mov    0x8(%rbx),%rdi
  4069c1:	31 c9                	xor    %ecx,%ecx
  4069c3:	31 d2                	xor    %edx,%edx
  4069c5:	e8 26 f1 ff ff       	callq  405af0 <_ZN10QBoxLayout9addWidgetEP7QWidgeti6QFlagsIN2Qt13AlignmentFlagEE@plt>
  4069ca:	bf 78 00 00 00       	mov    $0x78,%edi
  4069cf:	e8 8c e6 ff ff       	callq  405060 <_Znwm@plt>
  4069d4:	48 8b 33             	mov    (%rbx),%rsi
  4069d7:	48 89 c7             	mov    %rax,%rdi
  4069da:	49 89 c5             	mov    %rax,%r13
  4069dd:	e8 8e 27 00 00       	callq  409170 <_ZN15SpectrogramPlotC1EP7QWidget>
  4069e2:	48 8d 35 e3 80 00 00 	lea    0x80e3(%rip),%rsi        # 40eacc <_IO_stdin_used+0x8c>
  4069e9:	48 89 ef             	mov    %rbp,%rdi
  4069ec:	4c 89 6b 48          	mov    %r13,0x48(%rbx)
  4069f0:	ba 0a 00 00 00       	mov    $0xa,%edx
  4069f5:	e8 e6 e6 ff ff       	callq  4050e0 <_ZN7QString15fromUtf8_helperEPKci@plt>
  4069fa:	48 8b 7b 48          	mov    0x48(%rbx),%rdi
  4069fe:	48 89 ee             	mov    %rbp,%rsi
  406a01:	e8 3a f1 ff ff       	callq  405b40 <_ZN7QObject13setObjectNameERK7QString@plt>
  406a06:	48 8b 3c 24          	mov    (%rsp),%rdi
  406a0a:	8b 07                	mov    (%rdi),%eax
  406a0c:	85 c0                	test   %eax,%eax
  406a0e:	0f 85 7c 02 00 00    	jne    406c90 <_ZN13Ui_MainWindow7setupUiEP11QMainWindow+0x750>
  406a14:	ba 08 00 00 00       	mov    $0x8,%edx
  406a19:	be 02 00 00 00       	mov    $0x2,%esi
  406a1e:	e8 2d ef ff ff       	callq  405950 <_ZN10QArrayData10deallocateEPS_mm@plt>
  406a23:	48 8b 73 48          	mov    0x48(%rbx),%rsi
  406a27:	48 8b 7b 08          	mov    0x8(%rbx),%rdi
  406a2b:	31 c9                	xor    %ecx,%ecx
  406a2d:	31 d2                	xor    %edx,%edx
  406a2f:	e8 bc f0 ff ff       	callq  405af0 <_ZN10QBoxLayout9addWidgetEP7QWidgeti6QFlagsIN2Qt13AlignmentFlagEE@plt>
  406a34:	48 8b 33             	mov    (%rbx),%rsi
  406a37:	4c 89 e7             	mov    %r12,%rdi
  406a3a:	e8 81 eb ff ff       	callq  4055c0 <_ZN11QMainWindow16setCentralWidgetEP7QWidget@plt>
  406a3f:	48 8d 15 fe 7f 00 00 	lea    0x7ffe(%rip),%rdx        # 40ea44 <_IO_stdin_used+0x4>
  406a46:	48 89 ef             	mov    %rbp,%rdi
  406a49:	41 b8 ff ff ff ff    	mov    $0xffffffff,%r8d
  406a4f:	31 c9                	xor    %ecx,%ecx
  406a51:	48 89 d6             	mov    %rdx,%rsi
  406a54:	e8 27 ee ff ff       	callq  405880 <_ZN16QCoreApplication9translateEPKcS1_S1_i@plt>
  406a59:	48 89 ee             	mov    %rbp,%rsi
  406a5c:	4c 89 e7             	mov    %r12,%rdi
  406a5f:	e8 2c ed ff ff       	callq  405790 <_ZN7QWidget14setWindowTitleERK7QString@plt>
  406a64:	48 8b 3c 24          	mov    (%rsp),%rdi
  406a68:	8b 07                	mov    (%rdi),%eax
  406a6a:	85 c0                	test   %eax,%eax
  406a6c:	0f 85 f6 01 00 00    	jne    406c68 <_ZN13Ui_MainWindow7setupUiEP11QMainWindow+0x728>
  406a72:	ba 08 00 00 00       	mov    $0x8,%edx
  406a77:	be 02 00 00 00       	mov    $0x2,%esi
  406a7c:	e8 cf ee ff ff       	callq  405950 <_ZN10QArrayData10deallocateEPS_mm@plt>
  406a81:	48 8d 35 bc 7f 00 00 	lea    0x7fbc(%rip),%rsi        # 40ea44 <_IO_stdin_used+0x4>
  406a88:	48 8d 15 48 80 00 00 	lea    0x8048(%rip),%rdx        # 40ead7 <_IO_stdin_used+0x97>
  406a8f:	48 89 ef             	mov    %rbp,%rdi
  406a92:	41 b8 ff ff ff ff    	mov    $0xffffffff,%r8d
  406a98:	31 c9                	xor    %ecx,%ecx
  406a9a:	e8 e1 ed ff ff       	callq  405880 <_ZN16QCoreApplication9translateEPKcS1_S1_i@plt>
  406a9f:	48 8b 7b 10          	mov    0x10(%rbx),%rdi
  406aa3:	48 89 ee             	mov    %rbp,%rsi
  406aa6:	e8 05 ea ff ff       	callq  4054b0 <_ZN6QLabel7setTextERK7QString@plt>
  406aab:	48 8b 3c 24          	mov    (%rsp),%rdi
  406aaf:	8b 07                	mov    (%rdi),%eax
  406ab1:	85 c0                	test   %eax,%eax
  406ab3:	0f 85 87 01 00 00    	jne    406c40 <_ZN13Ui_MainWindow7setupUiEP11QMainWindow+0x700>
  406ab9:	ba 08 00 00 00       	mov    $0x8,%edx
  406abe:	be 02 00 00 00       	mov    $0x2,%esi
  406ac3:	e8 88 ee ff ff       	callq  405950 <_ZN10QArrayData10deallocateEPS_mm@plt>
  406ac8:	48 8d 35 75 7f 00 00 	lea    0x7f75(%rip),%rsi        # 40ea44 <_IO_stdin_used+0x4>
  406acf:	48 8d 15 0a 80 00 00 	lea    0x800a(%rip),%rdx        # 40eae0 <_IO_stdin_used+0xa0>
  406ad6:	48 89 ef             	mov    %rbp,%rdi
  406ad9:	41 b8 ff ff ff ff    	mov    $0xffffffff,%r8d
  406adf:	31 c9                	xor    %ecx,%ecx
  406ae1:	e8 9a ed ff ff       	callq  405880 <_ZN16QCoreApplication9translateEPKcS1_S1_i@plt>
  406ae6:	48 8b 7b 20          	mov    0x20(%rbx),%rdi
  406aea:	48 89 ee             	mov    %rbp,%rsi
  406aed:	e8 be e9 ff ff       	callq  4054b0 <_ZN6QLabel7setTextERK7QString@plt>
  406af2:	48 8b 3c 24          	mov    (%rsp),%rdi
  406af6:	8b 07                	mov    (%rdi),%eax
  406af8:	85 c0                	test   %eax,%eax
  406afa:	0f 85 18 01 00 00    	jne    406c18 <_ZN13Ui_MainWindow7setupUiEP11QMainWindow+0x6d8>
  406b00:	ba 08 00 00 00       	mov    $0x8,%edx
  406b05:	be 02 00 00 00       	mov    $0x2,%esi
  406b0a:	e8 41 ee ff ff       	callq  405950 <_ZN10QArrayData10deallocateEPS_mm@plt>
  406b0f:	48 8d 35 2e 7f 00 00 	lea    0x7f2e(%rip),%rsi        # 40ea44 <_IO_stdin_used+0x4>
  406b16:	48 8d 15 cc 7f 00 00 	lea    0x7fcc(%rip),%rdx        # 40eae9 <_IO_stdin_used+0xa9>
  406b1d:	48 89 ef             	mov    %rbp,%rdi
  406b20:	41 b8 ff ff ff ff    	mov    $0xffffffff,%r8d
  406b26:	31 c9                	xor    %ecx,%ecx
  406b28:	e8 53 ed ff ff       	callq  405880 <_ZN16QCoreApplication9translateEPKcS1_S1_i@plt>
  406b2d:	48 8b 7b 30          	mov    0x30(%rbx),%rdi
  406b31:	48 89 ee             	mov    %rbp,%rsi
  406b34:	e8 77 e9 ff ff       	callq  4054b0 <_ZN6QLabel7setTextERK7QString@plt>
  406b39:	48 8b 3c 24          	mov    (%rsp),%rdi
  406b3d:	8b 07                	mov    (%rdi),%eax
  406b3f:	85 c0                	test   %eax,%eax
  406b41:	0f 85 a9 00 00 00    	jne    406bf0 <_ZN13Ui_MainWindow7setupUiEP11QMainWindow+0x6b0>
  406b47:	ba 08 00 00 00       	mov    $0x8,%edx
  406b4c:	be 02 00 00 00       	mov    $0x2,%esi
  406b51:	e8 fa ed ff ff       	callq  405950 <_ZN10QArrayData10deallocateEPS_mm@plt>
  406b56:	48 8d 35 e7 7e 00 00 	lea    0x7ee7(%rip),%rsi        # 40ea44 <_IO_stdin_used+0x4>
  406b5d:	48 8d 15 8c 7f 00 00 	lea    0x7f8c(%rip),%rdx        # 40eaf0 <_IO_stdin_used+0xb0>
  406b64:	48 89 ef             	mov    %rbp,%rdi
  406b67:	41 b8 ff ff ff ff    	mov    $0xffffffff,%r8d
  406b6d:	31 c9                	xor    %ecx,%ecx
  406b6f:	e8 0c ed ff ff       	callq  405880 <_ZN16QCoreApplication9translateEPKcS1_S1_i@plt>
  406b74:	48 8b 7b 40          	mov    0x40(%rbx),%rdi
  406b78:	48 89 ee             	mov    %rbp,%rsi
  406b7b:	e8 70 ed ff ff       	callq  4058f0 <_ZN15QAbstractButton7setTextERK7QString@plt>
  406b80:	48 8b 3c 24          	mov    (%rsp),%rdi
  406b84:	8b 07                	mov    (%rdi),%eax
  406b86:	85 c0                	test   %eax,%eax
  406b88:	75 4e                	jne    406bd8 <_ZN13Ui_MainWindow7setupUiEP11QMainWindow+0x698>
  406b8a:	ba 08 00 00 00       	mov    $0x8,%edx
  406b8f:	be 02 00 00 00       	mov    $0x2,%esi
  406b94:	e8 b7 ed ff ff       	callq  405950 <_ZN10QArrayData10deallocateEPS_mm@plt>
  406b99:	4c 89 e7             	mov    %r12,%rdi
  406b9c:	e8 bf ee ff ff       	callq  405a60 <_ZN11QMetaObject18connectSlotsByNameEP7QObject@plt>
  406ba1:	48 83 c4 18          	add    $0x18,%rsp
  406ba5:	5b                   	pop    %rbx
  406ba6:	5d                   	pop    %rbp
  406ba7:	41 5c                	pop    %r12
  406ba9:	41 5d                	pop    %r13
  406bab:	c3                   	retq   
  406bac:	0f 1f 40 00          	nopl   0x0(%rax)
  406bb0:	83 f8 ff             	cmp    $0xffffffff,%eax
  406bb3:	0f 84 c3 f9 ff ff    	je     40657c <_ZN13Ui_MainWindow7setupUiEP11QMainWindow+0x3c>
  406bb9:	f0 83 2f 01          	lock subl $0x1,(%rdi)
  406bbd:	0f 95 c0             	setne  %al
  406bc0:	84 c0                	test   %al,%al
  406bc2:	0f 85 b4 f9 ff ff    	jne    40657c <_ZN13Ui_MainWindow7setupUiEP11QMainWindow+0x3c>
  406bc8:	48 8b 3c 24          	mov    (%rsp),%rdi
  406bcc:	e9 9c f9 ff ff       	jmpq   40656d <_ZN13Ui_MainWindow7setupUiEP11QMainWindow+0x2d>
  406bd1:	0f 1f 80 00 00 00 00 	nopl   0x0(%rax)
  406bd8:	83 f8 ff             	cmp    $0xffffffff,%eax
  406bdb:	74 bc                	je     406b99 <_ZN13Ui_MainWindow7setupUiEP11QMainWindow+0x659>
  406bdd:	f0 83 2f 01          	lock subl $0x1,(%rdi)
  406be1:	0f 95 c0             	setne  %al
  406be4:	84 c0                	test   %al,%al
  406be6:	75 b1                	jne    406b99 <_ZN13Ui_MainWindow7setupUiEP11QMainWindow+0x659>
  406be8:	48 8b 3c 24          	mov    (%rsp),%rdi
  406bec:	eb 9c                	jmp    406b8a <_ZN13Ui_MainWindow7setupUiEP11QMainWindow+0x64a>
  406bee:	66 90                	xchg   %ax,%ax
  406bf0:	83 f8 ff             	cmp    $0xffffffff,%eax
  406bf3:	0f 84 5d ff ff ff    	je     406b56 <_ZN13Ui_MainWindow7setupUiEP11QMainWindow+0x616>
  406bf9:	f0 83 2f 01          	lock subl $0x1,(%rdi)
  406bfd:	0f 95 c0             	setne  %al
  406c00:	84 c0                	test   %al,%al
  406c02:	0f 85 4e ff ff ff    	jne    406b56 <_ZN13Ui_MainWindow7setupUiEP11QMainWindow+0x616>
  406c08:	48 8b 3c 24          	mov    (%rsp),%rdi
  406c0c:	e9 36 ff ff ff       	jmpq   406b47 <_ZN13Ui_MainWindow7setupUiEP11QMainWindow+0x607>
  406c11:	0f 1f 80 00 00 00 00 	nopl   0x0(%rax)
  406c18:	83 f8 ff             	cmp    $0xffffffff,%eax
  406c1b:	0f 84 ee fe ff ff    	je     406b0f <_ZN13Ui_MainWindow7setupUiEP11QMainWindow+0x5cf>
  406c21:	f0 83 2f 01          	lock subl $0x1,(%rdi)
  406c25:	0f 95 c0             	setne  %al
  406c28:	84 c0                	test   %al,%al
  406c2a:	0f 85 df fe ff ff    	jne    406b0f <_ZN13Ui_MainWindow7setupUiEP11QMainWindow+0x5cf>
  406c30:	48 8b 3c 24          	mov    (%rsp),%rdi
  406c34:	e9 c7 fe ff ff       	jmpq   406b00 <_ZN13Ui_MainWindow7setupUiEP11QMainWindow+0x5c0>
  406c39:	0f 1f 80 00 00 00 00 	nopl   0x0(%rax)
  406c40:	83 f8 ff             	cmp    $0xffffffff,%eax
  406c43:	0f 84 7f fe ff ff    	je     406ac8 <_ZN13Ui_MainWindow7setupUiEP11QMainWindow+0x588>
  406c49:	f0 83 2f 01          	lock subl $0x1,(%rdi)
  406c4d:	0f 95 c0             	setne  %al
  406c50:	84 c0                	test   %al,%al
  406c52:	0f 85 70 fe ff ff    	jne    406ac8 <_ZN13Ui_MainWindow7setupUiEP11QMainWindow+0x588>
  406c58:	48 8b 3c 24          	mov    (%rsp),%rdi
  406c5c:	e9 58 fe ff ff       	jmpq   406ab9 <_ZN13Ui_MainWindow7setupUiEP11QMainWindow+0x579>
  406c61:	0f 1f 80 00 00 00 00 	nopl   0x0(%rax)
  406c68:	83 f8 ff             	cmp    $0xffffffff,%eax
  406c6b:	0f 84 10 fe ff ff    	je     406a81 <_ZN13Ui_MainWindow7setupUiEP11QMainWindow+0x541>
  406c71:	f0 83 2f 01          	lock subl $0x1,(%rdi)
  406c75:	0f 95 c0             	setne  %al
  406c78:	84 c0                	test   %al,%al
  406c7a:	0f 85 01 fe ff ff    	jne    406a81 <_ZN13Ui_MainWindow7setupUiEP11QMainWindow+0x541>
  406c80:	48 8b 3c 24          	mov    (%rsp),%rdi
  406c84:	e9 e9 fd ff ff       	jmpq   406a72 <_ZN13Ui_MainWindow7setupUiEP11QMainWindow+0x532>
  406c89:	0f 1f 80 00 00 00 00 	nopl   0x0(%rax)
  406c90:	83 f8 ff             	cmp    $0xffffffff,%eax
  406c93:	0f 84 8a fd ff ff    	je     406a23 <_ZN13Ui_MainWindow7setupUiEP11QMainWindow+0x4e3>
  406c99:	f0 83 2f 01          	lock subl $0x1,(%rdi)
  406c9d:	0f 95 c0             	setne  %al
  406ca0:	84 c0                	test   %al,%al
  406ca2:	0f 85 7b fd ff ff    	jne    406a23 <_ZN13Ui_MainWindow7setupUiEP11QMainWindow+0x4e3>
  406ca8:	48 8b 3c 24          	mov    (%rsp),%rdi
  406cac:	e9 63 fd ff ff       	jmpq   406a14 <_ZN13Ui_MainWindow7setupUiEP11QMainWindow+0x4d4>
  406cb1:	0f 1f 80 00 00 00 00 	nopl   0x0(%rax)
  406cb8:	83 f8 ff             	cmp    $0xffffffff,%eax
  406cbb:	0f 84 f8 fc ff ff    	je     4069b9 <_ZN13Ui_MainWindow7setupUiEP11QMainWindow+0x479>
  406cc1:	f0 83 2f 01          	lock subl $0x1,(%rdi)
  406cc5:	0f 95 c0             	setne  %al
  406cc8:	84 c0                	test   %al,%al
  406cca:	0f 85 e9 fc ff ff    	jne    4069b9 <_ZN13Ui_MainWindow7setupUiEP11QMainWindow+0x479>
  406cd0:	48 8b 3c 24          	mov    (%rsp),%rdi
  406cd4:	e9 d1 fc ff ff       	jmpq   4069aa <_ZN13Ui_MainWindow7setupUiEP11QMainWindow+0x46a>
  406cd9:	0f 1f 80 00 00 00 00 	nopl   0x0(%rax)
  406ce0:	83 f8 ff             	cmp    $0xffffffff,%eax
  406ce3:	0f 84 58 fc ff ff    	je     406941 <_ZN13Ui_MainWindow7setupUiEP11QMainWindow+0x401>
  406ce9:	f0 83 2f 01          	lock subl $0x1,(%rdi)
  406ced:	0f 95 c0             	setne  %al
  406cf0:	84 c0                	test   %al,%al
  406cf2:	0f 85 49 fc ff ff    	jne    406941 <_ZN13Ui_MainWindow7setupUiEP11QMainWindow+0x401>
  406cf8:	48 8b 3c 24          	mov    (%rsp),%rdi
  406cfc:	e9 31 fc ff ff       	jmpq   406932 <_ZN13Ui_MainWindow7setupUiEP11QMainWindow+0x3f2>
  406d01:	0f 1f 80 00 00 00 00 	nopl   0x0(%rax)
  406d08:	83 f8 ff             	cmp    $0xffffffff,%eax
  406d0b:	0f 84 c6 fb ff ff    	je     4068d7 <_ZN13Ui_MainWindow7setupUiEP11QMainWindow+0x397>
  406d11:	f0 83 2f 01          	lock subl $0x1,(%rdi)
  406d15:	0f 95 c0             	setne  %al
  406d18:	84 c0                	test   %al,%al
  406d1a:	0f 85 b7 fb ff ff    	jne    4068d7 <_ZN13Ui_MainWindow7setupUiEP11QMainWindow+0x397>
  406d20:	48 8b 3c 24          	mov    (%rsp),%rdi
  406d24:	e9 9f fb ff ff       	jmpq   4068c8 <_ZN13Ui_MainWindow7setupUiEP11QMainWindow+0x388>
  406d29:	0f 1f 80 00 00 00 00 	nopl   0x0(%rax)
  406d30:	83 f8 ff             	cmp    $0xffffffff,%eax
  406d33:	0f 84 24 fb ff ff    	je     40685d <_ZN13Ui_MainWindow7setupUiEP11QMainWindow+0x31d>
  406d39:	f0 83 2f 01          	lock subl $0x1,(%rdi)
  406d3d:	0f 95 c0             	setne  %al
  406d40:	84 c0                	test   %al,%al
  406d42:	0f 85 15 fb ff ff    	jne    40685d <_ZN13Ui_MainWindow7setupUiEP11QMainWindow+0x31d>
  406d48:	48 8b 3c 24          	mov    (%rsp),%rdi
  406d4c:	e9 fd fa ff ff       	jmpq   40684e <_ZN13Ui_MainWindow7setupUiEP11QMainWindow+0x30e>
  406d51:	0f 1f 80 00 00 00 00 	nopl   0x0(%rax)
  406d58:	83 f8 ff             	cmp    $0xffffffff,%eax
  406d5b:	0f 84 92 fa ff ff    	je     4067f3 <_ZN13Ui_MainWindow7setupUiEP11QMainWindow+0x2b3>
  406d61:	f0 83 2f 01          	lock subl $0x1,(%rdi)
  406d65:	0f 95 c0             	setne  %al
  406d68:	84 c0                	test   %al,%al
  406d6a:	0f 85 83 fa ff ff    	jne    4067f3 <_ZN13Ui_MainWindow7setupUiEP11QMainWindow+0x2b3>
  406d70:	48 8b 3c 24          	mov    (%rsp),%rdi
  406d74:	e9 6b fa ff ff       	jmpq   4067e4 <_ZN13Ui_MainWindow7setupUiEP11QMainWindow+0x2a4>
  406d79:	0f 1f 80 00 00 00 00 	nopl   0x0(%rax)
  406d80:	83 f8 ff             	cmp    $0xffffffff,%eax
  406d83:	0f 84 f0 f9 ff ff    	je     406779 <_ZN13Ui_MainWindow7setupUiEP11QMainWindow+0x239>
  406d89:	f0 83 2f 01          	lock subl $0x1,(%rdi)
  406d8d:	0f 95 c0             	setne  %al
  406d90:	84 c0                	test   %al,%al
  406d92:	0f 85 e1 f9 ff ff    	jne    406779 <_ZN13Ui_MainWindow7setupUiEP11QMainWindow+0x239>
  406d98:	48 8b 3c 24          	mov    (%rsp),%rdi
  406d9c:	e9 c9 f9 ff ff       	jmpq   40676a <_ZN13Ui_MainWindow7setupUiEP11QMainWindow+0x22a>
  406da1:	0f 1f 80 00 00 00 00 	nopl   0x0(%rax)
  406da8:	83 f8 ff             	cmp    $0xffffffff,%eax
  406dab:	0f 84 5e f9 ff ff    	je     40670f <_ZN13Ui_MainWindow7setupUiEP11QMainWindow+0x1cf>
  406db1:	f0 83 2f 01          	lock subl $0x1,(%rdi)
  406db5:	0f 95 c0             	setne  %al
  406db8:	84 c0                	test   %al,%al
  406dba:	0f 85 4f f9 ff ff    	jne    40670f <_ZN13Ui_MainWindow7setupUiEP11QMainWindow+0x1cf>
  406dc0:	48 8b 3c 24          	mov    (%rsp),%rdi
  406dc4:	e9 37 f9 ff ff       	jmpq   406700 <_ZN13Ui_MainWindow7setupUiEP11QMainWindow+0x1c0>
  406dc9:	0f 1f 80 00 00 00 00 	nopl   0x0(%rax)
  406dd0:	83 f8 ff             	cmp    $0xffffffff,%eax
  406dd3:	0f 84 db f8 ff ff    	je     4066b4 <_ZN13Ui_MainWindow7setupUiEP11QMainWindow+0x174>
  406dd9:	f0 83 2f 01          	lock subl $0x1,(%rdi)
  406ddd:	0f 95 c0             	setne  %al
  406de0:	84 c0                	test   %al,%al
  406de2:	0f 85 cc f8 ff ff    	jne    4066b4 <_ZN13Ui_MainWindow7setupUiEP11QMainWindow+0x174>
  406de8:	48 8b 3c 24          	mov    (%rsp),%rdi
  406dec:	e9 b4 f8 ff ff       	jmpq   4066a5 <_ZN13Ui_MainWindow7setupUiEP11QMainWindow+0x165>
  406df1:	0f 1f 80 00 00 00 00 	nopl   0x0(%rax)
  406df8:	83 f8 ff             	cmp    $0xffffffff,%eax
  406dfb:	0f 84 2f f8 ff ff    	je     406630 <_ZN13Ui_MainWindow7setupUiEP11QMainWindow+0xf0>
  406e01:	f0 83 2f 01          	lock subl $0x1,(%rdi)
  406e05:	0f 95 c0             	setne  %al
  406e08:	84 c0                	test   %al,%al
  406e0a:	0f 85 20 f8 ff ff    	jne    406630 <_ZN13Ui_MainWindow7setupUiEP11QMainWindow+0xf0>
  406e10:	48 8b 3c 24          	mov    (%rsp),%rdi
  406e14:	e9 08 f8 ff ff       	jmpq   406621 <_ZN13Ui_MainWindow7setupUiEP11QMainWindow+0xe1>
  406e19:	0f 1f 80 00 00 00 00 	nopl   0x0(%rax)
  406e20:	83 f8 ff             	cmp    $0xffffffff,%eax
  406e23:	0f 84 94 f7 ff ff    	je     4065bd <_ZN13Ui_MainWindow7setupUiEP11QMainWindow+0x7d>
  406e29:	f0 83 2f 01          	lock subl $0x1,(%rdi)
  406e2d:	0f 95 c0             	setne  %al
  406e30:	84 c0                	test   %al,%al
  406e32:	0f 85 85 f7 ff ff    	jne    4065bd <_ZN13Ui_MainWindow7setupUiEP11QMainWindow+0x7d>
  406e38:	48 8b 3c 24          	mov    (%rsp),%rdi
  406e3c:	e9 6d f7 ff ff       	jmpq   4065ae <_ZN13Ui_MainWindow7setupUiEP11QMainWindow+0x6e>
  406e41:	48 89 c3             	mov    %rax,%rbx
  406e44:	4c 89 ef             	mov    %r13,%rdi
  406e47:	e8 d4 e5 ff ff       	callq  405420 <_ZdlPv@plt>
  406e4c:	48 89 df             	mov    %rbx,%rdi
  406e4f:	e8 cc e6 ff ff       	callq  405520 <_Unwind_Resume@plt>
  406e54:	48 89 c3             	mov    %rax,%rbx
  406e57:	48 89 ef             	mov    %rbp,%rdi
  406e5a:	e8 a1 f6 ff ff       	callq  406500 <_ZN7QStringD1Ev>
  406e5f:	48 89 df             	mov    %rbx,%rdi
  406e62:	e8 b9 e6 ff ff       	callq  405520 <_Unwind_Resume@plt>
  406e67:	48 89 c3             	mov    %rax,%rbx
  406e6a:	48 89 ef             	mov    %rbp,%rdi
  406e6d:	e8 8e f6 ff ff       	callq  406500 <_ZN7QStringD1Ev>
  406e72:	48 89 df             	mov    %rbx,%rdi
  406e75:	e8 a6 e6 ff ff       	callq  405520 <_Unwind_Resume@plt>
  406e7a:	48 89 c3             	mov    %rax,%rbx
  406e7d:	48 89 ef             	mov    %rbp,%rdi
  406e80:	e8 7b f6 ff ff       	callq  406500 <_ZN7QStringD1Ev>
  406e85:	48 89 df             	mov    %rbx,%rdi
  406e88:	e8 93 e6 ff ff       	callq  405520 <_Unwind_Resume@plt>
  406e8d:	eb b2                	jmp    406e41 <_ZN13Ui_MainWindow7setupUiEP11QMainWindow+0x901>
  406e8f:	48 89 c3             	mov    %rax,%rbx
  406e92:	48 89 ef             	mov    %rbp,%rdi
  406e95:	e8 66 f6 ff ff       	callq  406500 <_ZN7QStringD1Ev>
  406e9a:	48 89 df             	mov    %rbx,%rdi
  406e9d:	e8 7e e6 ff ff       	callq  405520 <_Unwind_Resume@plt>
  406ea2:	eb 9d                	jmp    406e41 <_ZN13Ui_MainWindow7setupUiEP11QMainWindow+0x901>
  406ea4:	48 89 c3             	mov    %rax,%rbx
  406ea7:	48 89 ef             	mov    %rbp,%rdi
  406eaa:	e8 51 f6 ff ff       	callq  406500 <_ZN7QStringD1Ev>
  406eaf:	48 89 df             	mov    %rbx,%rdi
  406eb2:	e8 69 e6 ff ff       	callq  405520 <_Unwind_Resume@plt>
  406eb7:	eb 88                	jmp    406e41 <_ZN13Ui_MainWindow7setupUiEP11QMainWindow+0x901>
  406eb9:	48 89 c3             	mov    %rax,%rbx
  406ebc:	48 89 ef             	mov    %rbp,%rdi
  406ebf:	e8 3c f6 ff ff       	callq  406500 <_ZN7QStringD1Ev>
  406ec4:	48 89 df             	mov    %rbx,%rdi
  406ec7:	e8 54 e6 ff ff       	callq  405520 <_Unwind_Resume@plt>
  406ecc:	48 89 c3             	mov    %rax,%rbx
  406ecf:	48 89 ef             	mov    %rbp,%rdi
  406ed2:	e8 29 f6 ff ff       	callq  406500 <_ZN7QStringD1Ev>
  406ed7:	48 89 df             	mov    %rbx,%rdi
  406eda:	e8 41 e6 ff ff       	callq  405520 <_Unwind_Resume@plt>
  406edf:	48 89 c3             	mov    %rax,%rbx
  406ee2:	48 89 ef             	mov    %rbp,%rdi
  406ee5:	e8 16 f6 ff ff       	callq  406500 <_ZN7QStringD1Ev>
  406eea:	48 89 df             	mov    %rbx,%rdi
  406eed:	e8 2e e6 ff ff       	callq  405520 <_Unwind_Resume@plt>
  406ef2:	48 89 c3             	mov    %rax,%rbx
  406ef5:	48 89 ef             	mov    %rbp,%rdi
  406ef8:	e8 03 f6 ff ff       	callq  406500 <_ZN7QStringD1Ev>
  406efd:	48 89 df             	mov    %rbx,%rdi
  406f00:	e8 1b e6 ff ff       	callq  405520 <_Unwind_Resume@plt>
  406f05:	48 89 c3             	mov    %rax,%rbx
  406f08:	48 89 ef             	mov    %rbp,%rdi
  406f0b:	e8 f0 f5 ff ff       	callq  406500 <_ZN7QStringD1Ev>
  406f10:	48 89 df             	mov    %rbx,%rdi
  406f13:	e8 08 e6 ff ff       	callq  405520 <_Unwind_Resume@plt>
  406f18:	e9 24 ff ff ff       	jmpq   406e41 <_ZN13Ui_MainWindow7setupUiEP11QMainWindow+0x901>
  406f1d:	48 89 c3             	mov    %rax,%rbx
  406f20:	48 89 ef             	mov    %rbp,%rdi
  406f23:	e8 d8 f5 ff ff       	callq  406500 <_ZN7QStringD1Ev>
  406f28:	48 89 df             	mov    %rbx,%rdi
  406f2b:	e8 f0 e5 ff ff       	callq  405520 <_Unwind_Resume@plt>
  406f30:	e9 0c ff ff ff       	jmpq   406e41 <_ZN13Ui_MainWindow7setupUiEP11QMainWindow+0x901>
  406f35:	48 89 c3             	mov    %rax,%rbx
  406f38:	48 89 ef             	mov    %rbp,%rdi
  406f3b:	e8 c0 f5 ff ff       	callq  406500 <_ZN7QStringD1Ev>
  406f40:	48 89 df             	mov    %rbx,%rdi
  406f43:	e8 d8 e5 ff ff       	callq  405520 <_Unwind_Resume@plt>
  406f48:	e9 f4 fe ff ff       	jmpq   406e41 <_ZN13Ui_MainWindow7setupUiEP11QMainWindow+0x901>
  406f4d:	48 89 c3             	mov    %rax,%rbx
  406f50:	48 89 ef             	mov    %rbp,%rdi
  406f53:	e8 a8 f5 ff ff       	callq  406500 <_ZN7QStringD1Ev>
  406f58:	48 89 df             	mov    %rbx,%rdi
  406f5b:	e8 c0 e5 ff ff       	callq  405520 <_Unwind_Resume@plt>
  406f60:	e9 dc fe ff ff       	jmpq   406e41 <_ZN13Ui_MainWindow7setupUiEP11QMainWindow+0x901>
  406f65:	48 89 c3             	mov    %rax,%rbx
  406f68:	48 89 ef             	mov    %rbp,%rdi
  406f6b:	e8 90 f5 ff ff       	callq  406500 <_ZN7QStringD1Ev>
  406f70:	48 89 df             	mov    %rbx,%rdi
  406f73:	e8 a8 e5 ff ff       	callq  405520 <_Unwind_Resume@plt>
  406f78:	e9 c4 fe ff ff       	jmpq   406e41 <_ZN13Ui_MainWindow7setupUiEP11QMainWindow+0x901>
  406f7d:	48 89 c3             	mov    %rax,%rbx
  406f80:	48 89 ef             	mov    %rbp,%rdi
  406f83:	e8 78 f5 ff ff       	callq  406500 <_ZN7QStringD1Ev>
  406f88:	48 89 df             	mov    %rbx,%rdi
  406f8b:	e8 90 e5 ff ff       	callq  405520 <_Unwind_Resume@plt>
  406f90:	e9 ac fe ff ff       	jmpq   406e41 <_ZN13Ui_MainWindow7setupUiEP11QMainWindow+0x901>
  406f95:	48 89 c3             	mov    %rax,%rbx
  406f98:	48 89 ef             	mov    %rbp,%rdi
  406f9b:	e8 60 f5 ff ff       	callq  406500 <_ZN7QStringD1Ev>
  406fa0:	48 89 df             	mov    %rbx,%rdi
  406fa3:	e8 78 e5 ff ff       	callq  405520 <_Unwind_Resume@plt>
  406fa8:	0f 1f 84 00 00 00 00 	nopl   0x0(%rax,%rax,1)
  406faf:	00 

0000000000406fb0 <_ZN13Array2DWorkerIiEC1Ev>:
  406fb0:	48 c7 47 08 00 00 00 	movq   $0x0,0x8(%rdi)
  406fb7:	00 
  406fb8:	c7 47 04 00 00 00 00 	movl   $0x0,0x4(%rdi)
  406fbf:	c7 07 00 00 00 00    	movl   $0x0,(%rdi)
  406fc5:	48 c7 47 10 00 00 00 	movq   $0x0,0x10(%rdi)
  406fcc:	00 
  406fcd:	48 c7 47 18 00 00 00 	movq   $0x0,0x18(%rdi)
  406fd4:	00 
  406fd5:	c3                   	retq   
  406fd6:	66 2e 0f 1f 84 00 00 	nopw   %cs:0x0(%rax,%rax,1)
  406fdd:	00 00 00 

0000000000406fe0 <_ZN13Array2DWorkerIiEC1Eii>:
  406fe0:	41 56                	push   %r14
  406fe2:	4c 63 f2             	movslq %edx,%r14
  406fe5:	41 55                	push   %r13
  406fe7:	4c 63 ee             	movslq %esi,%r13
  406fea:	44 89 e8             	mov    %r13d,%eax
  406fed:	41 54                	push   %r12
  406fef:	49 bc 00 00 00 00 00 	movabs $0x1fc0000000000000,%r12
  406ff6:	00 c0 1f 
  406ff9:	41 0f af c6          	imul   %r14d,%eax
  406ffd:	55                   	push   %rbp
  406ffe:	48 c7 c5 ff ff ff ff 	mov    $0xffffffffffffffff,%rbp
  407005:	48 98                	cltq   
  407007:	53                   	push   %rbx
  407008:	48 89 fb             	mov    %rdi,%rbx
  40700b:	44 89 6f 04          	mov    %r13d,0x4(%rdi)
  40700f:	44 89 37             	mov    %r14d,(%rdi)
  407012:	48 8d 3c 85 00 00 00 	lea    0x0(,%rax,4),%rdi
  407019:	00 
  40701a:	4c 39 e0             	cmp    %r12,%rax
  40701d:	48 0f 47 fd          	cmova  %rbp,%rdi
  407021:	e8 3a e3 ff ff       	callq  405360 <_Znam@plt>
  407026:	4a 8d 3c b5 00 00 00 	lea    0x0(,%r14,4),%rdi
  40702d:	00 
  40702e:	4d 39 e6             	cmp    %r12,%r14
  407031:	48 89 43 08          	mov    %rax,0x8(%rbx)
  407035:	48 0f 47 fd          	cmova  %rbp,%rdi
  407039:	e8 22 e3 ff ff       	callq  405360 <_Znam@plt>
  40703e:	4a 8d 3c ad 00 00 00 	lea    0x0(,%r13,4),%rdi
  407045:	00 
  407046:	4d 39 e5             	cmp    %r12,%r13
  407049:	48 89 43 10          	mov    %rax,0x10(%rbx)
  40704d:	48 0f 47 fd          	cmova  %rbp,%rdi
  407051:	e8 0a e3 ff ff       	callq  405360 <_Znam@plt>
  407056:	48 89 43 18          	mov    %rax,0x18(%rbx)
  40705a:	5b                   	pop    %rbx
  40705b:	5d                   	pop    %rbp
  40705c:	41 5c                	pop    %r12
  40705e:	41 5d                	pop    %r13
  407060:	41 5e                	pop    %r14
  407062:	c3                   	retq   
  407063:	66 2e 0f 1f 84 00 00 	nopw   %cs:0x0(%rax,%rax,1)
  40706a:	00 00 00 
  40706d:	0f 1f 00             	nopl   (%rax)

0000000000407070 <_ZN13Array2DWorkerIiED1Ev>:
  407070:	53                   	push   %rbx
  407071:	48 89 fb             	mov    %rdi,%rbx
  407074:	48 8b 7f 08          	mov    0x8(%rdi),%rdi
  407078:	48 85 ff             	test   %rdi,%rdi
  40707b:	74 05                	je     407082 <_ZN13Array2DWorkerIiED1Ev+0x12>
  40707d:	e8 de e1 ff ff       	callq  405260 <_ZdaPv@plt>
  407082:	48 8b 7b 10          	mov    0x10(%rbx),%rdi
  407086:	48 85 ff             	test   %rdi,%rdi
  407089:	74 05                	je     407090 <_ZN13Array2DWorkerIiED1Ev+0x20>
  40708b:	e8 d0 e1 ff ff       	callq  405260 <_ZdaPv@plt>
  407090:	48 8b 7b 18          	mov    0x18(%rbx),%rdi
  407094:	48 85 ff             	test   %rdi,%rdi
  407097:	74 05                	je     40709e <_ZN13Array2DWorkerIiED1Ev+0x2e>
  407099:	e8 c2 e1 ff ff       	callq  405260 <_ZdaPv@plt>
  40709e:	c7 43 04 00 00 00 00 	movl   $0x0,0x4(%rbx)
  4070a5:	c7 03 00 00 00 00    	movl   $0x0,(%rbx)
  4070ab:	5b                   	pop    %rbx
  4070ac:	c3                   	retq   
  4070ad:	0f 1f 00             	nopl   (%rax)

00000000004070b0 <_ZN13Array2DWorkerIiE11getRowCountEv>:
  4070b0:	8b 47 04             	mov    0x4(%rdi),%eax
  4070b3:	c3                   	retq   
  4070b4:	66 2e 0f 1f 84 00 00 	nopw   %cs:0x0(%rax,%rax,1)
  4070bb:	00 00 00 
  4070be:	66 90                	xchg   %ax,%ax

00000000004070c0 <_ZN13Array2DWorkerIiE14getColumnCountEv>:
  4070c0:	8b 07                	mov    (%rdi),%eax
  4070c2:	c3                   	retq   
  4070c3:	66 2e 0f 1f 84 00 00 	nopw   %cs:0x0(%rax,%rax,1)
  4070ca:	00 00 00 
  4070cd:	0f 1f 00             	nopl   (%rax)

00000000004070d0 <_ZN13Array2DWorkerIiE10getRawDataEv>:
  4070d0:	48 8b 47 08          	mov    0x8(%rdi),%rax
  4070d4:	c3                   	retq   
  4070d5:	66 2e 0f 1f 84 00 00 	nopw   %cs:0x0(%rax,%rax,1)
  4070dc:	00 00 00 
  4070df:	90                   	nop

00000000004070e0 <_ZNK13Array2DWorkerIiE11getLocationEii>:
  4070e0:	0f af 37             	imul   (%rdi),%esi
  4070e3:	8d 04 16             	lea    (%rsi,%rdx,1),%eax
  4070e6:	c3                   	retq   
  4070e7:	66 0f 1f 84 00 00 00 	nopw   0x0(%rax,%rax,1)
  4070ee:	00 00 

00000000004070f0 <_ZN13Array2DWorkerIiE2atEii>:
  4070f0:	53                   	push   %rbx
  4070f1:	48 8b 5f 08          	mov    0x8(%rdi),%rbx
  4070f5:	e8 e6 ff ff ff       	callq  4070e0 <_ZNK13Array2DWorkerIiE11getLocationEii>
  4070fa:	48 98                	cltq   
  4070fc:	8b 04 83             	mov    (%rbx,%rax,4),%eax
  4070ff:	5b                   	pop    %rbx
  407100:	c3                   	retq   
  407101:	66 2e 0f 1f 84 00 00 	nopw   %cs:0x0(%rax,%rax,1)
  407108:	00 00 00 
  40710b:	0f 1f 44 00 00       	nopl   0x0(%rax,%rax,1)

0000000000407110 <_ZN13Array2DWorkerIiE6getRowEi>:
  407110:	41 55                	push   %r13
  407112:	41 89 f5             	mov    %esi,%r13d
  407115:	41 54                	push   %r12
  407117:	55                   	push   %rbp
  407118:	48 89 fd             	mov    %rdi,%rbp
  40711b:	53                   	push   %rbx
  40711c:	31 db                	xor    %ebx,%ebx
  40711e:	48 83 ec 08          	sub    $0x8,%rsp
  407122:	8b 07                	mov    (%rdi),%eax
  407124:	85 c0                	test   %eax,%eax
  407126:	7e 2d                	jle    407155 <_ZN13Array2DWorkerIiE6getRowEi+0x45>
  407128:	0f 1f 84 00 00 00 00 	nopl   0x0(%rax,%rax,1)
  40712f:	00 
  407130:	48 8b 45 10          	mov    0x10(%rbp),%rax
  407134:	89 da                	mov    %ebx,%edx
  407136:	44 89 ee             	mov    %r13d,%esi
  407139:	48 89 ef             	mov    %rbp,%rdi
  40713c:	4c 8d 24 98          	lea    (%rax,%rbx,4),%r12
  407140:	e8 ab ff ff ff       	callq  4070f0 <_ZN13Array2DWorkerIiE2atEii>
  407145:	41 89 04 24          	mov    %eax,(%r12)
  407149:	8d 43 01             	lea    0x1(%rbx),%eax
  40714c:	48 83 c3 01          	add    $0x1,%rbx
  407150:	39 45 00             	cmp    %eax,0x0(%rbp)
  407153:	7f db                	jg     407130 <_ZN13Array2DWorkerIiE6getRowEi+0x20>
  407155:	48 8b 45 10          	mov    0x10(%rbp),%rax
  407159:	48 83 c4 08          	add    $0x8,%rsp
  40715d:	5b                   	pop    %rbx
  40715e:	5d                   	pop    %rbp
  40715f:	41 5c                	pop    %r12
  407161:	41 5d                	pop    %r13
  407163:	c3                   	retq   
  407164:	66 2e 0f 1f 84 00 00 	nopw   %cs:0x0(%rax,%rax,1)
  40716b:	00 00 00 
  40716e:	66 90                	xchg   %ax,%ax

0000000000407170 <_ZN13Array2DWorkerIiE9getColumnEi>:
  407170:	41 55                	push   %r13
  407172:	41 89 f5             	mov    %esi,%r13d
  407175:	41 54                	push   %r12
  407177:	55                   	push   %rbp
  407178:	48 89 fd             	mov    %rdi,%rbp
  40717b:	53                   	push   %rbx
  40717c:	31 db                	xor    %ebx,%ebx
  40717e:	48 83 ec 08          	sub    $0x8,%rsp
  407182:	8b 47 04             	mov    0x4(%rdi),%eax
  407185:	85 c0                	test   %eax,%eax
  407187:	7e 2c                	jle    4071b5 <_ZN13Array2DWorkerIiE9getColumnEi+0x45>
  407189:	0f 1f 80 00 00 00 00 	nopl   0x0(%rax)
  407190:	48 8b 45 18          	mov    0x18(%rbp),%rax
  407194:	89 de                	mov    %ebx,%esi
  407196:	44 89 ea             	mov    %r13d,%edx
  407199:	48 89 ef             	mov    %rbp,%rdi
  40719c:	4c 8d 24 98          	lea    (%rax,%rbx,4),%r12
  4071a0:	e8 4b ff ff ff       	callq  4070f0 <_ZN13Array2DWorkerIiE2atEii>
  4071a5:	41 89 04 24          	mov    %eax,(%r12)
  4071a9:	8d 43 01             	lea    0x1(%rbx),%eax
  4071ac:	48 83 c3 01          	add    $0x1,%rbx
  4071b0:	39 45 04             	cmp    %eax,0x4(%rbp)
  4071b3:	7f db                	jg     407190 <_ZN13Array2DWorkerIiE9getColumnEi+0x20>
  4071b5:	48 8b 45 18          	mov    0x18(%rbp),%rax
  4071b9:	48 83 c4 08          	add    $0x8,%rsp
  4071bd:	5b                   	pop    %rbx
  4071be:	5d                   	pop    %rbp
  4071bf:	41 5c                	pop    %r12
  4071c1:	41 5d                	pop    %r13
  4071c3:	c3                   	retq   
  4071c4:	66 2e 0f 1f 84 00 00 	nopw   %cs:0x0(%rax,%rax,1)
  4071cb:	00 00 00 
  4071ce:	66 90                	xchg   %ax,%ax

00000000004071d0 <_ZNK13Array2DWorkerIiE2atEii>:
  4071d0:	53                   	push   %rbx
  4071d1:	48 8b 5f 08          	mov    0x8(%rdi),%rbx
  4071d5:	e8 06 ff ff ff       	callq  4070e0 <_ZNK13Array2DWorkerIiE11getLocationEii>
  4071da:	48 98                	cltq   
  4071dc:	8b 04 83             	mov    (%rbx,%rax,4),%eax
  4071df:	5b                   	pop    %rbx
  4071e0:	c3                   	retq   
  4071e1:	66 2e 0f 1f 84 00 00 	nopw   %cs:0x0(%rax,%rax,1)
  4071e8:	00 00 00 
  4071eb:	0f 1f 44 00 00       	nopl   0x0(%rax,%rax,1)

00000000004071f0 <_ZN13Array2DWorkerIiE3setEiii>:
  4071f0:	55                   	push   %rbp
  4071f1:	89 cd                	mov    %ecx,%ebp
  4071f3:	53                   	push   %rbx
  4071f4:	48 83 ec 08          	sub    $0x8,%rsp
  4071f8:	48 8b 5f 08          	mov    0x8(%rdi),%rbx
  4071fc:	e8 df fe ff ff       	callq  4070e0 <_ZNK13Array2DWorkerIiE11getLocationEii>
  407201:	48 98                	cltq   
  407203:	89 2c 83             	mov    %ebp,(%rbx,%rax,4)
  407206:	48 83 c4 08          	add    $0x8,%rsp
  40720a:	5b                   	pop    %rbx
  40720b:	5d                   	pop    %rbp
  40720c:	c3                   	retq   
  40720d:	0f 1f 00             	nopl   (%rax)

0000000000407210 <_ZN13Array2DWorkerIiE6setRowEiPi>:
  407210:	41 55                	push   %r13
  407212:	41 89 f5             	mov    %esi,%r13d
  407215:	41 54                	push   %r12
  407217:	49 89 fc             	mov    %rdi,%r12
  40721a:	55                   	push   %rbp
  40721b:	48 89 d5             	mov    %rdx,%rbp
  40721e:	53                   	push   %rbx
  40721f:	31 db                	xor    %ebx,%ebx
  407221:	48 83 ec 08          	sub    $0x8,%rsp
  407225:	8b 07                	mov    (%rdi),%eax
  407227:	85 c0                	test   %eax,%eax
  407229:	7e 22                	jle    40724d <_ZN13Array2DWorkerIiE6setRowEiPi+0x3d>
  40722b:	0f 1f 44 00 00       	nopl   0x0(%rax,%rax,1)
  407230:	8b 4d 00             	mov    0x0(%rbp),%ecx
  407233:	89 da                	mov    %ebx,%edx
  407235:	44 89 ee             	mov    %r13d,%esi
  407238:	4c 89 e7             	mov    %r12,%rdi
  40723b:	83 c3 01             	add    $0x1,%ebx
  40723e:	48 83 c5 04          	add    $0x4,%rbp
  407242:	e8 a9 ff ff ff       	callq  4071f0 <_ZN13Array2DWorkerIiE3setEiii>
  407247:	41 39 1c 24          	cmp    %ebx,(%r12)
  40724b:	7f e3                	jg     407230 <_ZN13Array2DWorkerIiE6setRowEiPi+0x20>
  40724d:	48 83 c4 08          	add    $0x8,%rsp
  407251:	5b                   	pop    %rbx
  407252:	5d                   	pop    %rbp
  407253:	41 5c                	pop    %r12
  407255:	41 5d                	pop    %r13
  407257:	c3                   	retq   
  407258:	0f 1f 84 00 00 00 00 	nopl   0x0(%rax,%rax,1)
  40725f:	00 

0000000000407260 <_ZN13Array2DWorkerIiE13getRowSectionEii>:
  407260:	41 56                	push   %r14
  407262:	41 89 d6             	mov    %edx,%r14d
  407265:	41 55                	push   %r13
  407267:	49 89 f5             	mov    %rsi,%r13
  40726a:	41 54                	push   %r12
  40726c:	41 89 cc             	mov    %ecx,%r12d
  40726f:	55                   	push   %rbp
  407270:	48 89 fd             	mov    %rdi,%rbp
  407273:	53                   	push   %rbx
  407274:	8b 16                	mov    (%rsi),%edx
  407276:	89 ce                	mov    %ecx,%esi
  407278:	31 db                	xor    %ebx,%ebx
  40727a:	e8 61 fd ff ff       	callq  406fe0 <_ZN13Array2DWorkerIiEC1Eii>
  40727f:	45 85 e4             	test   %r12d,%r12d
  407282:	7e 25                	jle    4072a9 <_ZN13Array2DWorkerIiE13getRowSectionEii+0x49>
  407284:	0f 1f 40 00          	nopl   0x0(%rax)
  407288:	42 8d 34 33          	lea    (%rbx,%r14,1),%esi
  40728c:	4c 89 ef             	mov    %r13,%rdi
  40728f:	e8 7c fe ff ff       	callq  407110 <_ZN13Array2DWorkerIiE6getRowEi>
  407294:	48 89 c2             	mov    %rax,%rdx
  407297:	89 de                	mov    %ebx,%esi
  407299:	48 89 ef             	mov    %rbp,%rdi
  40729c:	e8 6f ff ff ff       	callq  407210 <_ZN13Array2DWorkerIiE6setRowEiPi>
  4072a1:	83 c3 01             	add    $0x1,%ebx
  4072a4:	44 39 e3             	cmp    %r12d,%ebx
  4072a7:	75 df                	jne    407288 <_ZN13Array2DWorkerIiE13getRowSectionEii+0x28>
  4072a9:	5b                   	pop    %rbx
  4072aa:	48 89 e8             	mov    %rbp,%rax
  4072ad:	5d                   	pop    %rbp
  4072ae:	41 5c                	pop    %r12
  4072b0:	41 5d                	pop    %r13
  4072b2:	41 5e                	pop    %r14
  4072b4:	c3                   	retq   
  4072b5:	48 89 c3             	mov    %rax,%rbx
  4072b8:	48 89 ef             	mov    %rbp,%rdi
  4072bb:	e8 b0 fd ff ff       	callq  407070 <_ZN13Array2DWorkerIiED1Ev>
  4072c0:	48 89 df             	mov    %rbx,%rdi
  4072c3:	e8 58 e2 ff ff       	callq  405520 <_Unwind_Resume@plt>
  4072c8:	0f 1f 84 00 00 00 00 	nopl   0x0(%rax,%rax,1)
  4072cf:	00 

00000000004072d0 <_ZN13Array2DWorkerIiE9setColumnEiPi>:
  4072d0:	41 55                	push   %r13
  4072d2:	41 89 f5             	mov    %esi,%r13d
  4072d5:	41 54                	push   %r12
  4072d7:	49 89 fc             	mov    %rdi,%r12
  4072da:	55                   	push   %rbp
  4072db:	48 89 d5             	mov    %rdx,%rbp
  4072de:	53                   	push   %rbx
  4072df:	31 db                	xor    %ebx,%ebx
  4072e1:	48 83 ec 08          	sub    $0x8,%rsp
  4072e5:	8b 47 04             	mov    0x4(%rdi),%eax
  4072e8:	85 c0                	test   %eax,%eax
  4072ea:	7e 22                	jle    40730e <_ZN13Array2DWorkerIiE9setColumnEiPi+0x3e>
  4072ec:	0f 1f 40 00          	nopl   0x0(%rax)
  4072f0:	8b 4d 00             	mov    0x0(%rbp),%ecx
  4072f3:	89 de                	mov    %ebx,%esi
  4072f5:	44 89 ea             	mov    %r13d,%edx
  4072f8:	4c 89 e7             	mov    %r12,%rdi
  4072fb:	83 c3 01             	add    $0x1,%ebx
  4072fe:	48 83 c5 04          	add    $0x4,%rbp
  407302:	e8 e9 fe ff ff       	callq  4071f0 <_ZN13Array2DWorkerIiE3setEiii>
  407307:	41 39 5c 24 04       	cmp    %ebx,0x4(%r12)
  40730c:	7f e2                	jg     4072f0 <_ZN13Array2DWorkerIiE9setColumnEiPi+0x20>
  40730e:	48 83 c4 08          	add    $0x8,%rsp
  407312:	5b                   	pop    %rbx
  407313:	5d                   	pop    %rbp
  407314:	41 5c                	pop    %r12
  407316:	41 5d                	pop    %r13
  407318:	c3                   	retq   
  407319:	0f 1f 80 00 00 00 00 	nopl   0x0(%rax)

0000000000407320 <_ZN13Array2DWorkerIiE16getColumnSectionEii>:
  407320:	41 56                	push   %r14
  407322:	41 89 d6             	mov    %edx,%r14d
  407325:	89 ca                	mov    %ecx,%edx
  407327:	41 55                	push   %r13
  407329:	49 89 f5             	mov    %rsi,%r13
  40732c:	41 54                	push   %r12
  40732e:	41 89 cc             	mov    %ecx,%r12d
  407331:	55                   	push   %rbp
  407332:	48 89 fd             	mov    %rdi,%rbp
  407335:	53                   	push   %rbx
  407336:	8b 76 04             	mov    0x4(%rsi),%esi
  407339:	31 db                	xor    %ebx,%ebx
  40733b:	e8 a0 fc ff ff       	callq  406fe0 <_ZN13Array2DWorkerIiEC1Eii>
  407340:	45 85 e4             	test   %r12d,%r12d
  407343:	7e 24                	jle    407369 <_ZN13Array2DWorkerIiE16getColumnSectionEii+0x49>
  407345:	0f 1f 00             	nopl   (%rax)
  407348:	42 8d 34 33          	lea    (%rbx,%r14,1),%esi
  40734c:	4c 89 ef             	mov    %r13,%rdi
  40734f:	e8 1c fe ff ff       	callq  407170 <_ZN13Array2DWorkerIiE9getColumnEi>
  407354:	48 89 c2             	mov    %rax,%rdx
  407357:	89 de                	mov    %ebx,%esi
  407359:	48 89 ef             	mov    %rbp,%rdi
  40735c:	e8 6f ff ff ff       	callq  4072d0 <_ZN13Array2DWorkerIiE9setColumnEiPi>
  407361:	83 c3 01             	add    $0x1,%ebx
  407364:	44 39 e3             	cmp    %r12d,%ebx
  407367:	75 df                	jne    407348 <_ZN13Array2DWorkerIiE16getColumnSectionEii+0x28>
  407369:	5b                   	pop    %rbx
  40736a:	48 89 e8             	mov    %rbp,%rax
  40736d:	5d                   	pop    %rbp
  40736e:	41 5c                	pop    %r12
  407370:	41 5d                	pop    %r13
  407372:	41 5e                	pop    %r14
  407374:	c3                   	retq   
  407375:	48 89 c3             	mov    %rax,%rbx
  407378:	48 89 ef             	mov    %rbp,%rdi
  40737b:	e8 f0 fc ff ff       	callq  407070 <_ZN13Array2DWorkerIiED1Ev>
  407380:	48 89 df             	mov    %rbx,%rdi
  407383:	e8 98 e1 ff ff       	callq  405520 <_Unwind_Resume@plt>
  407388:	0f 1f 84 00 00 00 00 	nopl   0x0(%rax,%rax,1)
  40738f:	00 

0000000000407390 <_ZN13Array2DWorkerIiE9transposeEv>:
  407390:	41 55                	push   %r13
  407392:	49 89 fd             	mov    %rdi,%r13
  407395:	41 54                	push   %r12
  407397:	49 89 f4             	mov    %rsi,%r12
  40739a:	55                   	push   %rbp
  40739b:	53                   	push   %rbx
  40739c:	48 83 ec 08          	sub    $0x8,%rsp
  4073a0:	8b 56 04             	mov    0x4(%rsi),%edx
  4073a3:	8b 36                	mov    (%rsi),%esi
  4073a5:	e8 36 fc ff ff       	callq  406fe0 <_ZN13Array2DWorkerIiEC1Eii>
  4073aa:	41 8b 54 24 04       	mov    0x4(%r12),%edx
  4073af:	85 d2                	test   %edx,%edx
  4073b1:	7e 42                	jle    4073f5 <_ZN13Array2DWorkerIiE9transposeEv+0x65>
  4073b3:	31 ed                	xor    %ebp,%ebp
  4073b5:	0f 1f 00             	nopl   (%rax)
  4073b8:	41 8b 04 24          	mov    (%r12),%eax
  4073bc:	85 c0                	test   %eax,%eax
  4073be:	7e 2b                	jle    4073eb <_ZN13Array2DWorkerIiE9transposeEv+0x5b>
  4073c0:	31 db                	xor    %ebx,%ebx
  4073c2:	66 0f 1f 44 00 00    	nopw   0x0(%rax,%rax,1)
  4073c8:	89 da                	mov    %ebx,%edx
  4073ca:	89 ee                	mov    %ebp,%esi
  4073cc:	4c 89 e7             	mov    %r12,%rdi
  4073cf:	e8 1c fd ff ff       	callq  4070f0 <_ZN13Array2DWorkerIiE2atEii>
  4073d4:	89 c1                	mov    %eax,%ecx
  4073d6:	89 ea                	mov    %ebp,%edx
  4073d8:	89 de                	mov    %ebx,%esi
  4073da:	4c 89 ef             	mov    %r13,%rdi
  4073dd:	e8 0e fe ff ff       	callq  4071f0 <_ZN13Array2DWorkerIiE3setEiii>
  4073e2:	83 c3 01             	add    $0x1,%ebx
  4073e5:	41 39 1c 24          	cmp    %ebx,(%r12)
  4073e9:	7f dd                	jg     4073c8 <_ZN13Array2DWorkerIiE9transposeEv+0x38>
  4073eb:	83 c5 01             	add    $0x1,%ebp
  4073ee:	41 39 6c 24 04       	cmp    %ebp,0x4(%r12)
  4073f3:	7f c3                	jg     4073b8 <_ZN13Array2DWorkerIiE9transposeEv+0x28>
  4073f5:	48 83 c4 08          	add    $0x8,%rsp
  4073f9:	4c 89 e8             	mov    %r13,%rax
  4073fc:	5b                   	pop    %rbx
  4073fd:	5d                   	pop    %rbp
  4073fe:	41 5c                	pop    %r12
  407400:	41 5d                	pop    %r13
  407402:	c3                   	retq   
  407403:	48 89 c3             	mov    %rax,%rbx
  407406:	4c 89 ef             	mov    %r13,%rdi
  407409:	e8 62 fc ff ff       	callq  407070 <_ZN13Array2DWorkerIiED1Ev>
  40740e:	48 89 df             	mov    %rbx,%rdi
  407411:	e8 0a e1 ff ff       	callq  405520 <_Unwind_Resume@plt>
  407416:	66 2e 0f 1f 84 00 00 	nopw   %cs:0x0(%rax,%rax,1)
  40741d:	00 00 00 

0000000000407420 <_ZN13Array2DWorkerIfEC1Ev>:
  407420:	48 c7 47 08 00 00 00 	movq   $0x0,0x8(%rdi)
  407427:	00 
  407428:	c7 47 04 00 00 00 00 	movl   $0x0,0x4(%rdi)
  40742f:	c7 07 00 00 00 00    	movl   $0x0,(%rdi)
  407435:	48 c7 47 10 00 00 00 	movq   $0x0,0x10(%rdi)
  40743c:	00 
  40743d:	48 c7 47 18 00 00 00 	movq   $0x0,0x18(%rdi)
  407444:	00 
  407445:	c3                   	retq   
  407446:	66 2e 0f 1f 84 00 00 	nopw   %cs:0x0(%rax,%rax,1)
  40744d:	00 00 00 

0000000000407450 <_ZN13Array2DWorkerIfEC1Eii>:
  407450:	41 56                	push   %r14
  407452:	4c 63 f2             	movslq %edx,%r14
  407455:	41 55                	push   %r13
  407457:	4c 63 ee             	movslq %esi,%r13
  40745a:	44 89 e8             	mov    %r13d,%eax
  40745d:	41 54                	push   %r12
  40745f:	49 bc 00 00 00 00 00 	movabs $0x1fc0000000000000,%r12
  407466:	00 c0 1f 
  407469:	41 0f af c6          	imul   %r14d,%eax
  40746d:	55                   	push   %rbp
  40746e:	48 c7 c5 ff ff ff ff 	mov    $0xffffffffffffffff,%rbp
  407475:	48 98                	cltq   
  407477:	53                   	push   %rbx
  407478:	48 89 fb             	mov    %rdi,%rbx
  40747b:	44 89 6f 04          	mov    %r13d,0x4(%rdi)
  40747f:	44 89 37             	mov    %r14d,(%rdi)
  407482:	48 8d 3c 85 00 00 00 	lea    0x0(,%rax,4),%rdi
  407489:	00 
  40748a:	4c 39 e0             	cmp    %r12,%rax
  40748d:	48 0f 47 fd          	cmova  %rbp,%rdi
  407491:	e8 ca de ff ff       	callq  405360 <_Znam@plt>
  407496:	4a 8d 3c b5 00 00 00 	lea    0x0(,%r14,4),%rdi
  40749d:	00 
  40749e:	4d 39 e6             	cmp    %r12,%r14
  4074a1:	48 89 43 08          	mov    %rax,0x8(%rbx)
  4074a5:	48 0f 47 fd          	cmova  %rbp,%rdi
  4074a9:	e8 b2 de ff ff       	callq  405360 <_Znam@plt>
  4074ae:	4a 8d 3c ad 00 00 00 	lea    0x0(,%r13,4),%rdi
  4074b5:	00 
  4074b6:	4d 39 e5             	cmp    %r12,%r13
  4074b9:	48 89 43 10          	mov    %rax,0x10(%rbx)
  4074bd:	48 0f 47 fd          	cmova  %rbp,%rdi
  4074c1:	e8 9a de ff ff       	callq  405360 <_Znam@plt>
  4074c6:	48 89 43 18          	mov    %rax,0x18(%rbx)
  4074ca:	5b                   	pop    %rbx
  4074cb:	5d                   	pop    %rbp
  4074cc:	41 5c                	pop    %r12
  4074ce:	41 5d                	pop    %r13
  4074d0:	41 5e                	pop    %r14
  4074d2:	c3                   	retq   
  4074d3:	66 2e 0f 1f 84 00 00 	nopw   %cs:0x0(%rax,%rax,1)
  4074da:	00 00 00 
  4074dd:	0f 1f 00             	nopl   (%rax)

00000000004074e0 <_ZN13Array2DWorkerIfED1Ev>:
  4074e0:	53                   	push   %rbx
  4074e1:	48 89 fb             	mov    %rdi,%rbx
  4074e4:	48 8b 7f 08          	mov    0x8(%rdi),%rdi
  4074e8:	48 85 ff             	test   %rdi,%rdi
  4074eb:	74 05                	je     4074f2 <_ZN13Array2DWorkerIfED1Ev+0x12>
  4074ed:	e8 6e dd ff ff       	callq  405260 <_ZdaPv@plt>
  4074f2:	48 8b 7b 10          	mov    0x10(%rbx),%rdi
  4074f6:	48 85 ff             	test   %rdi,%rdi
  4074f9:	74 05                	je     407500 <_ZN13Array2DWorkerIfED1Ev+0x20>
  4074fb:	e8 60 dd ff ff       	callq  405260 <_ZdaPv@plt>
  407500:	48 8b 7b 18          	mov    0x18(%rbx),%rdi
  407504:	48 85 ff             	test   %rdi,%rdi
  407507:	74 05                	je     40750e <_ZN13Array2DWorkerIfED1Ev+0x2e>
  407509:	e8 52 dd ff ff       	callq  405260 <_ZdaPv@plt>
  40750e:	c7 43 04 00 00 00 00 	movl   $0x0,0x4(%rbx)
  407515:	c7 03 00 00 00 00    	movl   $0x0,(%rbx)
  40751b:	5b                   	pop    %rbx
  40751c:	c3                   	retq   
  40751d:	0f 1f 00             	nopl   (%rax)

0000000000407520 <_ZN13Array2DWorkerIfE11getRowCountEv>:
  407520:	8b 47 04             	mov    0x4(%rdi),%eax
  407523:	c3                   	retq   
  407524:	66 2e 0f 1f 84 00 00 	nopw   %cs:0x0(%rax,%rax,1)
  40752b:	00 00 00 
  40752e:	66 90                	xchg   %ax,%ax

0000000000407530 <_ZN13Array2DWorkerIfE14getColumnCountEv>:
  407530:	8b 07                	mov    (%rdi),%eax
  407532:	c3                   	retq   
  407533:	66 2e 0f 1f 84 00 00 	nopw   %cs:0x0(%rax,%rax,1)
  40753a:	00 00 00 
  40753d:	0f 1f 00             	nopl   (%rax)

0000000000407540 <_ZN13Array2DWorkerIfE10getRawDataEv>:
  407540:	48 8b 47 08          	mov    0x8(%rdi),%rax
  407544:	c3                   	retq   
  407545:	66 2e 0f 1f 84 00 00 	nopw   %cs:0x0(%rax,%rax,1)
  40754c:	00 00 00 
  40754f:	90                   	nop

0000000000407550 <_ZNK13Array2DWorkerIfE11getLocationEii>:
  407550:	0f af 37             	imul   (%rdi),%esi
  407553:	8d 04 16             	lea    (%rsi,%rdx,1),%eax
  407556:	c3                   	retq   
  407557:	66 0f 1f 84 00 00 00 	nopw   0x0(%rax,%rax,1)
  40755e:	00 00 

0000000000407560 <_ZN13Array2DWorkerIfE2atEii>:
  407560:	53                   	push   %rbx
  407561:	48 8b 5f 08          	mov    0x8(%rdi),%rbx
  407565:	e8 e6 ff ff ff       	callq  407550 <_ZNK13Array2DWorkerIfE11getLocationEii>
  40756a:	48 98                	cltq   
  40756c:	f3 0f 10 04 83       	movss  (%rbx,%rax,4),%xmm0
  407571:	5b                   	pop    %rbx
  407572:	c3                   	retq   
  407573:	66 2e 0f 1f 84 00 00 	nopw   %cs:0x0(%rax,%rax,1)
  40757a:	00 00 00 
  40757d:	0f 1f 00             	nopl   (%rax)

0000000000407580 <_ZN13Array2DWorkerIfE6getRowEi>:
  407580:	41 55                	push   %r13
  407582:	41 89 f5             	mov    %esi,%r13d
  407585:	41 54                	push   %r12
  407587:	55                   	push   %rbp
  407588:	48 89 fd             	mov    %rdi,%rbp
  40758b:	53                   	push   %rbx
  40758c:	31 db                	xor    %ebx,%ebx
  40758e:	48 83 ec 08          	sub    $0x8,%rsp
  407592:	8b 07                	mov    (%rdi),%eax
  407594:	85 c0                	test   %eax,%eax
  407596:	7e 2f                	jle    4075c7 <_ZN13Array2DWorkerIfE6getRowEi+0x47>
  407598:	0f 1f 84 00 00 00 00 	nopl   0x0(%rax,%rax,1)
  40759f:	00 
  4075a0:	48 8b 45 10          	mov    0x10(%rbp),%rax
  4075a4:	89 da                	mov    %ebx,%edx
  4075a6:	44 89 ee             	mov    %r13d,%esi
  4075a9:	48 89 ef             	mov    %rbp,%rdi
  4075ac:	4c 8d 24 98          	lea    (%rax,%rbx,4),%r12
  4075b0:	e8 ab ff ff ff       	callq  407560 <_ZN13Array2DWorkerIfE2atEii>
  4075b5:	8d 43 01             	lea    0x1(%rbx),%eax
  4075b8:	48 83 c3 01          	add    $0x1,%rbx
  4075bc:	39 45 00             	cmp    %eax,0x0(%rbp)
  4075bf:	f3 41 0f 11 04 24    	movss  %xmm0,(%r12)
  4075c5:	7f d9                	jg     4075a0 <_ZN13Array2DWorkerIfE6getRowEi+0x20>
  4075c7:	48 8b 45 10          	mov    0x10(%rbp),%rax
  4075cb:	48 83 c4 08          	add    $0x8,%rsp
  4075cf:	5b                   	pop    %rbx
  4075d0:	5d                   	pop    %rbp
  4075d1:	41 5c                	pop    %r12
  4075d3:	41 5d                	pop    %r13
  4075d5:	c3                   	retq   
  4075d6:	66 2e 0f 1f 84 00 00 	nopw   %cs:0x0(%rax,%rax,1)
  4075dd:	00 00 00 

00000000004075e0 <_ZN13Array2DWorkerIfE9getColumnEi>:
  4075e0:	41 55                	push   %r13
  4075e2:	41 89 f5             	mov    %esi,%r13d
  4075e5:	41 54                	push   %r12
  4075e7:	55                   	push   %rbp
  4075e8:	48 89 fd             	mov    %rdi,%rbp
  4075eb:	53                   	push   %rbx
  4075ec:	31 db                	xor    %ebx,%ebx
  4075ee:	48 83 ec 08          	sub    $0x8,%rsp
  4075f2:	8b 47 04             	mov    0x4(%rdi),%eax
  4075f5:	85 c0                	test   %eax,%eax
  4075f7:	7e 2e                	jle    407627 <_ZN13Array2DWorkerIfE9getColumnEi+0x47>
  4075f9:	0f 1f 80 00 00 00 00 	nopl   0x0(%rax)
  407600:	48 8b 45 18          	mov    0x18(%rbp),%rax
  407604:	89 de                	mov    %ebx,%esi
  407606:	44 89 ea             	mov    %r13d,%edx
  407609:	48 89 ef             	mov    %rbp,%rdi
  40760c:	4c 8d 24 98          	lea    (%rax,%rbx,4),%r12
  407610:	e8 4b ff ff ff       	callq  407560 <_ZN13Array2DWorkerIfE2atEii>
  407615:	8d 43 01             	lea    0x1(%rbx),%eax
  407618:	48 83 c3 01          	add    $0x1,%rbx
  40761c:	39 45 04             	cmp    %eax,0x4(%rbp)
  40761f:	f3 41 0f 11 04 24    	movss  %xmm0,(%r12)
  407625:	7f d9                	jg     407600 <_ZN13Array2DWorkerIfE9getColumnEi+0x20>
  407627:	48 8b 45 18          	mov    0x18(%rbp),%rax
  40762b:	48 83 c4 08          	add    $0x8,%rsp
  40762f:	5b                   	pop    %rbx
  407630:	5d                   	pop    %rbp
  407631:	41 5c                	pop    %r12
  407633:	41 5d                	pop    %r13
  407635:	c3                   	retq   
  407636:	66 2e 0f 1f 84 00 00 	nopw   %cs:0x0(%rax,%rax,1)
  40763d:	00 00 00 

0000000000407640 <_ZNK13Array2DWorkerIfE2atEii>:
  407640:	53                   	push   %rbx
  407641:	48 8b 5f 08          	mov    0x8(%rdi),%rbx
  407645:	e8 06 ff ff ff       	callq  407550 <_ZNK13Array2DWorkerIfE11getLocationEii>
  40764a:	48 98                	cltq   
  40764c:	f3 0f 10 04 83       	movss  (%rbx,%rax,4),%xmm0
  407651:	5b                   	pop    %rbx
  407652:	c3                   	retq   
  407653:	66 2e 0f 1f 84 00 00 	nopw   %cs:0x0(%rax,%rax,1)
  40765a:	00 00 00 
  40765d:	0f 1f 00             	nopl   (%rax)

0000000000407660 <_ZN13Array2DWorkerIfE3setEiif>:
  407660:	53                   	push   %rbx
  407661:	48 83 ec 10          	sub    $0x10,%rsp
  407665:	48 8b 5f 08          	mov    0x8(%rdi),%rbx
  407669:	f3 0f 11 44 24 0c    	movss  %xmm0,0xc(%rsp)
  40766f:	e8 dc fe ff ff       	callq  407550 <_ZNK13Array2DWorkerIfE11getLocationEii>
  407674:	f3 0f 10 44 24 0c    	movss  0xc(%rsp),%xmm0
  40767a:	48 98                	cltq   
  40767c:	f3 0f 11 04 83       	movss  %xmm0,(%rbx,%rax,4)
  407681:	48 83 c4 10          	add    $0x10,%rsp
  407685:	5b                   	pop    %rbx
  407686:	c3                   	retq   
  407687:	66 0f 1f 84 00 00 00 	nopw   0x0(%rax,%rax,1)
  40768e:	00 00 

0000000000407690 <_ZN13Array2DWorkerIfE6setRowEiPf>:
  407690:	41 55                	push   %r13
  407692:	41 89 f5             	mov    %esi,%r13d
  407695:	41 54                	push   %r12
  407697:	49 89 fc             	mov    %rdi,%r12
  40769a:	55                   	push   %rbp
  40769b:	48 89 d5             	mov    %rdx,%rbp
  40769e:	53                   	push   %rbx
  40769f:	31 db                	xor    %ebx,%ebx
  4076a1:	48 83 ec 08          	sub    $0x8,%rsp
  4076a5:	8b 07                	mov    (%rdi),%eax
  4076a7:	85 c0                	test   %eax,%eax
  4076a9:	7e 24                	jle    4076cf <_ZN13Array2DWorkerIfE6setRowEiPf+0x3f>
  4076ab:	0f 1f 44 00 00       	nopl   0x0(%rax,%rax,1)
  4076b0:	f3 0f 10 45 00       	movss  0x0(%rbp),%xmm0
  4076b5:	89 da                	mov    %ebx,%edx
  4076b7:	44 89 ee             	mov    %r13d,%esi
  4076ba:	4c 89 e7             	mov    %r12,%rdi
  4076bd:	83 c3 01             	add    $0x1,%ebx
  4076c0:	e8 9b ff ff ff       	callq  407660 <_ZN13Array2DWorkerIfE3setEiif>
  4076c5:	48 83 c5 04          	add    $0x4,%rbp
  4076c9:	41 39 1c 24          	cmp    %ebx,(%r12)
  4076cd:	7f e1                	jg     4076b0 <_ZN13Array2DWorkerIfE6setRowEiPf+0x20>
  4076cf:	48 83 c4 08          	add    $0x8,%rsp
  4076d3:	5b                   	pop    %rbx
  4076d4:	5d                   	pop    %rbp
  4076d5:	41 5c                	pop    %r12
  4076d7:	41 5d                	pop    %r13
  4076d9:	c3                   	retq   
  4076da:	66 0f 1f 44 00 00    	nopw   0x0(%rax,%rax,1)

00000000004076e0 <_ZN13Array2DWorkerIfE13getRowSectionEii>:
  4076e0:	41 56                	push   %r14
  4076e2:	41 89 d6             	mov    %edx,%r14d
  4076e5:	41 55                	push   %r13
  4076e7:	49 89 f5             	mov    %rsi,%r13
  4076ea:	41 54                	push   %r12
  4076ec:	41 89 cc             	mov    %ecx,%r12d
  4076ef:	55                   	push   %rbp
  4076f0:	48 89 fd             	mov    %rdi,%rbp
  4076f3:	53                   	push   %rbx
  4076f4:	8b 16                	mov    (%rsi),%edx
  4076f6:	89 ce                	mov    %ecx,%esi
  4076f8:	31 db                	xor    %ebx,%ebx
  4076fa:	e8 51 fd ff ff       	callq  407450 <_ZN13Array2DWorkerIfEC1Eii>
  4076ff:	45 85 e4             	test   %r12d,%r12d
  407702:	7e 25                	jle    407729 <_ZN13Array2DWorkerIfE13getRowSectionEii+0x49>
  407704:	0f 1f 40 00          	nopl   0x0(%rax)
  407708:	42 8d 34 33          	lea    (%rbx,%r14,1),%esi
  40770c:	4c 89 ef             	mov    %r13,%rdi
  40770f:	e8 6c fe ff ff       	callq  407580 <_ZN13Array2DWorkerIfE6getRowEi>
  407714:	48 89 c2             	mov    %rax,%rdx
  407717:	89 de                	mov    %ebx,%esi
  407719:	48 89 ef             	mov    %rbp,%rdi
  40771c:	e8 6f ff ff ff       	callq  407690 <_ZN13Array2DWorkerIfE6setRowEiPf>
  407721:	83 c3 01             	add    $0x1,%ebx
  407724:	44 39 e3             	cmp    %r12d,%ebx
  407727:	75 df                	jne    407708 <_ZN13Array2DWorkerIfE13getRowSectionEii+0x28>
  407729:	5b                   	pop    %rbx
  40772a:	48 89 e8             	mov    %rbp,%rax
  40772d:	5d                   	pop    %rbp
  40772e:	41 5c                	pop    %r12
  407730:	41 5d                	pop    %r13
  407732:	41 5e                	pop    %r14
  407734:	c3                   	retq   
  407735:	48 89 c3             	mov    %rax,%rbx
  407738:	48 89 ef             	mov    %rbp,%rdi
  40773b:	e8 a0 fd ff ff       	callq  4074e0 <_ZN13Array2DWorkerIfED1Ev>
  407740:	48 89 df             	mov    %rbx,%rdi
  407743:	e8 d8 dd ff ff       	callq  405520 <_Unwind_Resume@plt>
  407748:	0f 1f 84 00 00 00 00 	nopl   0x0(%rax,%rax,1)
  40774f:	00 

0000000000407750 <_ZN13Array2DWorkerIfE9setColumnEiPf>:
  407750:	41 55                	push   %r13
  407752:	41 89 f5             	mov    %esi,%r13d
  407755:	41 54                	push   %r12
  407757:	49 89 fc             	mov    %rdi,%r12
  40775a:	55                   	push   %rbp
  40775b:	48 89 d5             	mov    %rdx,%rbp
  40775e:	53                   	push   %rbx
  40775f:	31 db                	xor    %ebx,%ebx
  407761:	48 83 ec 08          	sub    $0x8,%rsp
  407765:	8b 47 04             	mov    0x4(%rdi),%eax
  407768:	85 c0                	test   %eax,%eax
  40776a:	7e 24                	jle    407790 <_ZN13Array2DWorkerIfE9setColumnEiPf+0x40>
  40776c:	0f 1f 40 00          	nopl   0x0(%rax)
  407770:	f3 0f 10 45 00       	movss  0x0(%rbp),%xmm0
  407775:	89 de                	mov    %ebx,%esi
  407777:	44 89 ea             	mov    %r13d,%edx
  40777a:	4c 89 e7             	mov    %r12,%rdi
  40777d:	83 c3 01             	add    $0x1,%ebx
  407780:	e8 db fe ff ff       	callq  407660 <_ZN13Array2DWorkerIfE3setEiif>
  407785:	48 83 c5 04          	add    $0x4,%rbp
  407789:	41 39 5c 24 04       	cmp    %ebx,0x4(%r12)
  40778e:	7f e0                	jg     407770 <_ZN13Array2DWorkerIfE9setColumnEiPf+0x20>
  407790:	48 83 c4 08          	add    $0x8,%rsp
  407794:	5b                   	pop    %rbx
  407795:	5d                   	pop    %rbp
  407796:	41 5c                	pop    %r12
  407798:	41 5d                	pop    %r13
  40779a:	c3                   	retq   
  40779b:	0f 1f 44 00 00       	nopl   0x0(%rax,%rax,1)

00000000004077a0 <_ZN13Array2DWorkerIfE16getColumnSectionEii>:
  4077a0:	41 56                	push   %r14
  4077a2:	41 89 d6             	mov    %edx,%r14d
  4077a5:	89 ca                	mov    %ecx,%edx
  4077a7:	41 55                	push   %r13
  4077a9:	49 89 f5             	mov    %rsi,%r13
  4077ac:	41 54                	push   %r12
  4077ae:	41 89 cc             	mov    %ecx,%r12d
  4077b1:	55                   	push   %rbp
  4077b2:	48 89 fd             	mov    %rdi,%rbp
  4077b5:	53                   	push   %rbx
  4077b6:	8b 76 04             	mov    0x4(%rsi),%esi
  4077b9:	31 db                	xor    %ebx,%ebx
  4077bb:	e8 90 fc ff ff       	callq  407450 <_ZN13Array2DWorkerIfEC1Eii>
  4077c0:	45 85 e4             	test   %r12d,%r12d
  4077c3:	7e 24                	jle    4077e9 <_ZN13Array2DWorkerIfE16getColumnSectionEii+0x49>
  4077c5:	0f 1f 00             	nopl   (%rax)
  4077c8:	42 8d 34 33          	lea    (%rbx,%r14,1),%esi
  4077cc:	4c 89 ef             	mov    %r13,%rdi
  4077cf:	e8 0c fe ff ff       	callq  4075e0 <_ZN13Array2DWorkerIfE9getColumnEi>
  4077d4:	48 89 c2             	mov    %rax,%rdx
  4077d7:	89 de                	mov    %ebx,%esi
  4077d9:	48 89 ef             	mov    %rbp,%rdi
  4077dc:	e8 6f ff ff ff       	callq  407750 <_ZN13Array2DWorkerIfE9setColumnEiPf>
  4077e1:	83 c3 01             	add    $0x1,%ebx
  4077e4:	44 39 e3             	cmp    %r12d,%ebx
  4077e7:	75 df                	jne    4077c8 <_ZN13Array2DWorkerIfE16getColumnSectionEii+0x28>
  4077e9:	5b                   	pop    %rbx
  4077ea:	48 89 e8             	mov    %rbp,%rax
  4077ed:	5d                   	pop    %rbp
  4077ee:	41 5c                	pop    %r12
  4077f0:	41 5d                	pop    %r13
  4077f2:	41 5e                	pop    %r14
  4077f4:	c3                   	retq   
  4077f5:	48 89 c3             	mov    %rax,%rbx
  4077f8:	48 89 ef             	mov    %rbp,%rdi
  4077fb:	e8 e0 fc ff ff       	callq  4074e0 <_ZN13Array2DWorkerIfED1Ev>
  407800:	48 89 df             	mov    %rbx,%rdi
  407803:	e8 18 dd ff ff       	callq  405520 <_Unwind_Resume@plt>
  407808:	0f 1f 84 00 00 00 00 	nopl   0x0(%rax,%rax,1)
  40780f:	00 

0000000000407810 <_ZN13Array2DWorkerIfE9transposeEv>:
  407810:	41 55                	push   %r13
  407812:	49 89 fd             	mov    %rdi,%r13
  407815:	41 54                	push   %r12
  407817:	49 89 f4             	mov    %rsi,%r12
  40781a:	55                   	push   %rbp
  40781b:	53                   	push   %rbx
  40781c:	48 83 ec 08          	sub    $0x8,%rsp
  407820:	8b 56 04             	mov    0x4(%rsi),%edx
  407823:	8b 36                	mov    (%rsi),%esi
  407825:	e8 26 fc ff ff       	callq  407450 <_ZN13Array2DWorkerIfEC1Eii>
  40782a:	41 8b 54 24 04       	mov    0x4(%r12),%edx
  40782f:	85 d2                	test   %edx,%edx
  407831:	7e 40                	jle    407873 <_ZN13Array2DWorkerIfE9transposeEv+0x63>
  407833:	31 ed                	xor    %ebp,%ebp
  407835:	0f 1f 00             	nopl   (%rax)
  407838:	41 8b 04 24          	mov    (%r12),%eax
  40783c:	85 c0                	test   %eax,%eax
  40783e:	7e 29                	jle    407869 <_ZN13Array2DWorkerIfE9transposeEv+0x59>
  407840:	31 db                	xor    %ebx,%ebx
  407842:	66 0f 1f 44 00 00    	nopw   0x0(%rax,%rax,1)
  407848:	89 da                	mov    %ebx,%edx
  40784a:	89 ee                	mov    %ebp,%esi
  40784c:	4c 89 e7             	mov    %r12,%rdi
  40784f:	e8 0c fd ff ff       	callq  407560 <_ZN13Array2DWorkerIfE2atEii>
  407854:	89 ea                	mov    %ebp,%edx
  407856:	89 de                	mov    %ebx,%esi
  407858:	4c 89 ef             	mov    %r13,%rdi
  40785b:	e8 00 fe ff ff       	callq  407660 <_ZN13Array2DWorkerIfE3setEiif>
  407860:	83 c3 01             	add    $0x1,%ebx
  407863:	41 39 1c 24          	cmp    %ebx,(%r12)
  407867:	7f df                	jg     407848 <_ZN13Array2DWorkerIfE9transposeEv+0x38>
  407869:	83 c5 01             	add    $0x1,%ebp
  40786c:	41 39 6c 24 04       	cmp    %ebp,0x4(%r12)
  407871:	7f c5                	jg     407838 <_ZN13Array2DWorkerIfE9transposeEv+0x28>
  407873:	48 83 c4 08          	add    $0x8,%rsp
  407877:	4c 89 e8             	mov    %r13,%rax
  40787a:	5b                   	pop    %rbx
  40787b:	5d                   	pop    %rbp
  40787c:	41 5c                	pop    %r12
  40787e:	41 5d                	pop    %r13
  407880:	c3                   	retq   
  407881:	48 89 c3             	mov    %rax,%rbx
  407884:	4c 89 ef             	mov    %r13,%rdi
  407887:	e8 54 fc ff ff       	callq  4074e0 <_ZN13Array2DWorkerIfED1Ev>
  40788c:	48 89 df             	mov    %rbx,%rdi
  40788f:	e8 8c dc ff ff       	callq  405520 <_Unwind_Resume@plt>
  407894:	66 2e 0f 1f 84 00 00 	nopw   %cs:0x0(%rax,%rax,1)
  40789b:	00 00 00 
  40789e:	66 90                	xchg   %ax,%ax

00000000004078a0 <_ZN13Array2DWorkerIdEC1Ev>:
  4078a0:	48 c7 47 08 00 00 00 	movq   $0x0,0x8(%rdi)
  4078a7:	00 
  4078a8:	c7 47 04 00 00 00 00 	movl   $0x0,0x4(%rdi)
  4078af:	c7 07 00 00 00 00    	movl   $0x0,(%rdi)
  4078b5:	48 c7 47 10 00 00 00 	movq   $0x0,0x10(%rdi)
  4078bc:	00 
  4078bd:	48 c7 47 18 00 00 00 	movq   $0x0,0x18(%rdi)
  4078c4:	00 
  4078c5:	c3                   	retq   
  4078c6:	66 2e 0f 1f 84 00 00 	nopw   %cs:0x0(%rax,%rax,1)
  4078cd:	00 00 00 

00000000004078d0 <_ZN13Array2DWorkerIdEC1Eii>:
  4078d0:	41 56                	push   %r14
  4078d2:	4c 63 f2             	movslq %edx,%r14
  4078d5:	41 55                	push   %r13
  4078d7:	4c 63 ee             	movslq %esi,%r13
  4078da:	44 89 e8             	mov    %r13d,%eax
  4078dd:	41 54                	push   %r12
  4078df:	49 bc 00 00 00 00 00 	movabs $0xfe0000000000000,%r12
  4078e6:	00 e0 0f 
  4078e9:	41 0f af c6          	imul   %r14d,%eax
  4078ed:	55                   	push   %rbp
  4078ee:	48 c7 c5 ff ff ff ff 	mov    $0xffffffffffffffff,%rbp
  4078f5:	48 98                	cltq   
  4078f7:	53                   	push   %rbx
  4078f8:	48 89 fb             	mov    %rdi,%rbx
  4078fb:	44 89 6f 04          	mov    %r13d,0x4(%rdi)
  4078ff:	44 89 37             	mov    %r14d,(%rdi)
  407902:	48 8d 3c c5 00 00 00 	lea    0x0(,%rax,8),%rdi
  407909:	00 
  40790a:	4c 39 e0             	cmp    %r12,%rax
  40790d:	48 0f 47 fd          	cmova  %rbp,%rdi
  407911:	e8 4a da ff ff       	callq  405360 <_Znam@plt>
  407916:	4a 8d 3c f5 00 00 00 	lea    0x0(,%r14,8),%rdi
  40791d:	00 
  40791e:	4d 39 e6             	cmp    %r12,%r14
  407921:	48 89 43 08          	mov    %rax,0x8(%rbx)
  407925:	48 0f 47 fd          	cmova  %rbp,%rdi
  407929:	e8 32 da ff ff       	callq  405360 <_Znam@plt>
  40792e:	4a 8d 3c ed 00 00 00 	lea    0x0(,%r13,8),%rdi
  407935:	00 
  407936:	4d 39 e5             	cmp    %r12,%r13
  407939:	48 89 43 10          	mov    %rax,0x10(%rbx)
  40793d:	48 0f 47 fd          	cmova  %rbp,%rdi
  407941:	e8 1a da ff ff       	callq  405360 <_Znam@plt>
  407946:	48 89 43 18          	mov    %rax,0x18(%rbx)
  40794a:	5b                   	pop    %rbx
  40794b:	5d                   	pop    %rbp
  40794c:	41 5c                	pop    %r12
  40794e:	41 5d                	pop    %r13
  407950:	41 5e                	pop    %r14
  407952:	c3                   	retq   
  407953:	66 2e 0f 1f 84 00 00 	nopw   %cs:0x0(%rax,%rax,1)
  40795a:	00 00 00 
  40795d:	0f 1f 00             	nopl   (%rax)

0000000000407960 <_ZN13Array2DWorkerIdED1Ev>:
  407960:	53                   	push   %rbx
  407961:	48 89 fb             	mov    %rdi,%rbx
  407964:	48 8b 7f 08          	mov    0x8(%rdi),%rdi
  407968:	48 85 ff             	test   %rdi,%rdi
  40796b:	74 05                	je     407972 <_ZN13Array2DWorkerIdED1Ev+0x12>
  40796d:	e8 ee d8 ff ff       	callq  405260 <_ZdaPv@plt>
  407972:	48 8b 7b 10          	mov    0x10(%rbx),%rdi
  407976:	48 85 ff             	test   %rdi,%rdi
  407979:	74 05                	je     407980 <_ZN13Array2DWorkerIdED1Ev+0x20>
  40797b:	e8 e0 d8 ff ff       	callq  405260 <_ZdaPv@plt>
  407980:	48 8b 7b 18          	mov    0x18(%rbx),%rdi
  407984:	48 85 ff             	test   %rdi,%rdi
  407987:	74 05                	je     40798e <_ZN13Array2DWorkerIdED1Ev+0x2e>
  407989:	e8 d2 d8 ff ff       	callq  405260 <_ZdaPv@plt>
  40798e:	c7 43 04 00 00 00 00 	movl   $0x0,0x4(%rbx)
  407995:	c7 03 00 00 00 00    	movl   $0x0,(%rbx)
  40799b:	5b                   	pop    %rbx
  40799c:	c3                   	retq   
  40799d:	0f 1f 00             	nopl   (%rax)

00000000004079a0 <_ZN13Array2DWorkerIdE11getRowCountEv>:
  4079a0:	8b 47 04             	mov    0x4(%rdi),%eax
  4079a3:	c3                   	retq   
  4079a4:	66 2e 0f 1f 84 00 00 	nopw   %cs:0x0(%rax,%rax,1)
  4079ab:	00 00 00 
  4079ae:	66 90                	xchg   %ax,%ax

00000000004079b0 <_ZN13Array2DWorkerIdE14getColumnCountEv>:
  4079b0:	8b 07                	mov    (%rdi),%eax
  4079b2:	c3                   	retq   
  4079b3:	66 2e 0f 1f 84 00 00 	nopw   %cs:0x0(%rax,%rax,1)
  4079ba:	00 00 00 
  4079bd:	0f 1f 00             	nopl   (%rax)

00000000004079c0 <_ZN13Array2DWorkerIdE10getRawDataEv>:
  4079c0:	48 8b 47 08          	mov    0x8(%rdi),%rax
  4079c4:	c3                   	retq   
  4079c5:	66 2e 0f 1f 84 00 00 	nopw   %cs:0x0(%rax,%rax,1)
  4079cc:	00 00 00 
  4079cf:	90                   	nop

00000000004079d0 <_ZNK13Array2DWorkerIdE11getLocationEii>:
  4079d0:	0f af 37             	imul   (%rdi),%esi
  4079d3:	8d 04 16             	lea    (%rsi,%rdx,1),%eax
  4079d6:	c3                   	retq   
  4079d7:	66 0f 1f 84 00 00 00 	nopw   0x0(%rax,%rax,1)
  4079de:	00 00 

00000000004079e0 <_ZN13Array2DWorkerIdE2atEii>:
  4079e0:	53                   	push   %rbx
  4079e1:	48 8b 5f 08          	mov    0x8(%rdi),%rbx
  4079e5:	e8 e6 ff ff ff       	callq  4079d0 <_ZNK13Array2DWorkerIdE11getLocationEii>
  4079ea:	48 98                	cltq   
  4079ec:	f2 0f 10 04 c3       	movsd  (%rbx,%rax,8),%xmm0
  4079f1:	5b                   	pop    %rbx
  4079f2:	c3                   	retq   
  4079f3:	66 2e 0f 1f 84 00 00 	nopw   %cs:0x0(%rax,%rax,1)
  4079fa:	00 00 00 
  4079fd:	0f 1f 00             	nopl   (%rax)

0000000000407a00 <_ZN13Array2DWorkerIdE6getRowEi>:
  407a00:	41 55                	push   %r13
  407a02:	41 89 f5             	mov    %esi,%r13d
  407a05:	41 54                	push   %r12
  407a07:	55                   	push   %rbp
  407a08:	48 89 fd             	mov    %rdi,%rbp
  407a0b:	53                   	push   %rbx
  407a0c:	31 db                	xor    %ebx,%ebx
  407a0e:	48 83 ec 08          	sub    $0x8,%rsp
  407a12:	8b 07                	mov    (%rdi),%eax
  407a14:	85 c0                	test   %eax,%eax
  407a16:	7e 2f                	jle    407a47 <_ZN13Array2DWorkerIdE6getRowEi+0x47>
  407a18:	0f 1f 84 00 00 00 00 	nopl   0x0(%rax,%rax,1)
  407a1f:	00 
  407a20:	48 8b 45 10          	mov    0x10(%rbp),%rax
  407a24:	89 da                	mov    %ebx,%edx
  407a26:	44 89 ee             	mov    %r13d,%esi
  407a29:	48 89 ef             	mov    %rbp,%rdi
  407a2c:	4c 8d 24 d8          	lea    (%rax,%rbx,8),%r12
  407a30:	e8 ab ff ff ff       	callq  4079e0 <_ZN13Array2DWorkerIdE2atEii>
  407a35:	8d 43 01             	lea    0x1(%rbx),%eax
  407a38:	48 83 c3 01          	add    $0x1,%rbx
  407a3c:	39 45 00             	cmp    %eax,0x0(%rbp)
  407a3f:	f2 41 0f 11 04 24    	movsd  %xmm0,(%r12)
  407a45:	7f d9                	jg     407a20 <_ZN13Array2DWorkerIdE6getRowEi+0x20>
  407a47:	48 8b 45 10          	mov    0x10(%rbp),%rax
  407a4b:	48 83 c4 08          	add    $0x8,%rsp
  407a4f:	5b                   	pop    %rbx
  407a50:	5d                   	pop    %rbp
  407a51:	41 5c                	pop    %r12
  407a53:	41 5d                	pop    %r13
  407a55:	c3                   	retq   
  407a56:	66 2e 0f 1f 84 00 00 	nopw   %cs:0x0(%rax,%rax,1)
  407a5d:	00 00 00 

0000000000407a60 <_ZN13Array2DWorkerIdE9getColumnEi>:
  407a60:	41 55                	push   %r13
  407a62:	41 89 f5             	mov    %esi,%r13d
  407a65:	41 54                	push   %r12
  407a67:	55                   	push   %rbp
  407a68:	48 89 fd             	mov    %rdi,%rbp
  407a6b:	53                   	push   %rbx
  407a6c:	31 db                	xor    %ebx,%ebx
  407a6e:	48 83 ec 08          	sub    $0x8,%rsp
  407a72:	8b 47 04             	mov    0x4(%rdi),%eax
  407a75:	85 c0                	test   %eax,%eax
  407a77:	7e 2e                	jle    407aa7 <_ZN13Array2DWorkerIdE9getColumnEi+0x47>
  407a79:	0f 1f 80 00 00 00 00 	nopl   0x0(%rax)
  407a80:	48 8b 45 18          	mov    0x18(%rbp),%rax
  407a84:	89 de                	mov    %ebx,%esi
  407a86:	44 89 ea             	mov    %r13d,%edx
  407a89:	48 89 ef             	mov    %rbp,%rdi
  407a8c:	4c 8d 24 d8          	lea    (%rax,%rbx,8),%r12
  407a90:	e8 4b ff ff ff       	callq  4079e0 <_ZN13Array2DWorkerIdE2atEii>
  407a95:	8d 43 01             	lea    0x1(%rbx),%eax
  407a98:	48 83 c3 01          	add    $0x1,%rbx
  407a9c:	39 45 04             	cmp    %eax,0x4(%rbp)
  407a9f:	f2 41 0f 11 04 24    	movsd  %xmm0,(%r12)
  407aa5:	7f d9                	jg     407a80 <_ZN13Array2DWorkerIdE9getColumnEi+0x20>
  407aa7:	48 8b 45 18          	mov    0x18(%rbp),%rax
  407aab:	48 83 c4 08          	add    $0x8,%rsp
  407aaf:	5b                   	pop    %rbx
  407ab0:	5d                   	pop    %rbp
  407ab1:	41 5c                	pop    %r12
  407ab3:	41 5d                	pop    %r13
  407ab5:	c3                   	retq   
  407ab6:	66 2e 0f 1f 84 00 00 	nopw   %cs:0x0(%rax,%rax,1)
  407abd:	00 00 00 

0000000000407ac0 <_ZNK13Array2DWorkerIdE2atEii>:
  407ac0:	53                   	push   %rbx
  407ac1:	48 8b 5f 08          	mov    0x8(%rdi),%rbx
  407ac5:	e8 06 ff ff ff       	callq  4079d0 <_ZNK13Array2DWorkerIdE11getLocationEii>
  407aca:	48 98                	cltq   
  407acc:	f2 0f 10 04 c3       	movsd  (%rbx,%rax,8),%xmm0
  407ad1:	5b                   	pop    %rbx
  407ad2:	c3                   	retq   
  407ad3:	66 2e 0f 1f 84 00 00 	nopw   %cs:0x0(%rax,%rax,1)
  407ada:	00 00 00 
  407add:	0f 1f 00             	nopl   (%rax)

0000000000407ae0 <_ZN13Array2DWorkerIdE3setEiid>:
  407ae0:	53                   	push   %rbx
  407ae1:	48 83 ec 10          	sub    $0x10,%rsp
  407ae5:	48 8b 5f 08          	mov    0x8(%rdi),%rbx
  407ae9:	f2 0f 11 44 24 08    	movsd  %xmm0,0x8(%rsp)
  407aef:	e8 dc fe ff ff       	callq  4079d0 <_ZNK13Array2DWorkerIdE11getLocationEii>
  407af4:	f2 0f 10 44 24 08    	movsd  0x8(%rsp),%xmm0
  407afa:	48 98                	cltq   
  407afc:	f2 0f 11 04 c3       	movsd  %xmm0,(%rbx,%rax,8)
  407b01:	48 83 c4 10          	add    $0x10,%rsp
  407b05:	5b                   	pop    %rbx
  407b06:	c3                   	retq   
  407b07:	66 0f 1f 84 00 00 00 	nopw   0x0(%rax,%rax,1)
  407b0e:	00 00 

0000000000407b10 <_ZN13Array2DWorkerIdE6setRowEiPd>:
  407b10:	41 55                	push   %r13
  407b12:	41 89 f5             	mov    %esi,%r13d
  407b15:	41 54                	push   %r12
  407b17:	49 89 fc             	mov    %rdi,%r12
  407b1a:	55                   	push   %rbp
  407b1b:	48 89 d5             	mov    %rdx,%rbp
  407b1e:	53                   	push   %rbx
  407b1f:	31 db                	xor    %ebx,%ebx
  407b21:	48 83 ec 08          	sub    $0x8,%rsp
  407b25:	8b 07                	mov    (%rdi),%eax
  407b27:	85 c0                	test   %eax,%eax
  407b29:	7e 24                	jle    407b4f <_ZN13Array2DWorkerIdE6setRowEiPd+0x3f>
  407b2b:	0f 1f 44 00 00       	nopl   0x0(%rax,%rax,1)
  407b30:	f2 0f 10 45 00       	movsd  0x0(%rbp),%xmm0
  407b35:	89 da                	mov    %ebx,%edx
  407b37:	44 89 ee             	mov    %r13d,%esi
  407b3a:	4c 89 e7             	mov    %r12,%rdi
  407b3d:	83 c3 01             	add    $0x1,%ebx
  407b40:	e8 9b ff ff ff       	callq  407ae0 <_ZN13Array2DWorkerIdE3setEiid>
  407b45:	48 83 c5 08          	add    $0x8,%rbp
  407b49:	41 39 1c 24          	cmp    %ebx,(%r12)
  407b4d:	7f e1                	jg     407b30 <_ZN13Array2DWorkerIdE6setRowEiPd+0x20>
  407b4f:	48 83 c4 08          	add    $0x8,%rsp
  407b53:	5b                   	pop    %rbx
  407b54:	5d                   	pop    %rbp
  407b55:	41 5c                	pop    %r12
  407b57:	41 5d                	pop    %r13
  407b59:	c3                   	retq   
  407b5a:	66 0f 1f 44 00 00    	nopw   0x0(%rax,%rax,1)

0000000000407b60 <_ZN13Array2DWorkerIdE13getRowSectionEii>:
  407b60:	41 56                	push   %r14
  407b62:	41 89 d6             	mov    %edx,%r14d
  407b65:	41 55                	push   %r13
  407b67:	49 89 f5             	mov    %rsi,%r13
  407b6a:	41 54                	push   %r12
  407b6c:	41 89 cc             	mov    %ecx,%r12d
  407b6f:	55                   	push   %rbp
  407b70:	48 89 fd             	mov    %rdi,%rbp
  407b73:	53                   	push   %rbx
  407b74:	8b 16                	mov    (%rsi),%edx
  407b76:	89 ce                	mov    %ecx,%esi
  407b78:	31 db                	xor    %ebx,%ebx
  407b7a:	e8 51 fd ff ff       	callq  4078d0 <_ZN13Array2DWorkerIdEC1Eii>
  407b7f:	45 85 e4             	test   %r12d,%r12d
  407b82:	7e 25                	jle    407ba9 <_ZN13Array2DWorkerIdE13getRowSectionEii+0x49>
  407b84:	0f 1f 40 00          	nopl   0x0(%rax)
  407b88:	42 8d 34 33          	lea    (%rbx,%r14,1),%esi
  407b8c:	4c 89 ef             	mov    %r13,%rdi
  407b8f:	e8 6c fe ff ff       	callq  407a00 <_ZN13Array2DWorkerIdE6getRowEi>
  407b94:	48 89 c2             	mov    %rax,%rdx
  407b97:	89 de                	mov    %ebx,%esi
  407b99:	48 89 ef             	mov    %rbp,%rdi
  407b9c:	e8 6f ff ff ff       	callq  407b10 <_ZN13Array2DWorkerIdE6setRowEiPd>
  407ba1:	83 c3 01             	add    $0x1,%ebx
  407ba4:	44 39 e3             	cmp    %r12d,%ebx
  407ba7:	75 df                	jne    407b88 <_ZN13Array2DWorkerIdE13getRowSectionEii+0x28>
  407ba9:	5b                   	pop    %rbx
  407baa:	48 89 e8             	mov    %rbp,%rax
  407bad:	5d                   	pop    %rbp
  407bae:	41 5c                	pop    %r12
  407bb0:	41 5d                	pop    %r13
  407bb2:	41 5e                	pop    %r14
  407bb4:	c3                   	retq   
  407bb5:	48 89 c3             	mov    %rax,%rbx
  407bb8:	48 89 ef             	mov    %rbp,%rdi
  407bbb:	e8 a0 fd ff ff       	callq  407960 <_ZN13Array2DWorkerIdED1Ev>
  407bc0:	48 89 df             	mov    %rbx,%rdi
  407bc3:	e8 58 d9 ff ff       	callq  405520 <_Unwind_Resume@plt>
  407bc8:	0f 1f 84 00 00 00 00 	nopl   0x0(%rax,%rax,1)
  407bcf:	00 

0000000000407bd0 <_ZN13Array2DWorkerIdE9setColumnEiPd>:
  407bd0:	41 55                	push   %r13
  407bd2:	41 89 f5             	mov    %esi,%r13d
  407bd5:	41 54                	push   %r12
  407bd7:	49 89 fc             	mov    %rdi,%r12
  407bda:	55                   	push   %rbp
  407bdb:	48 89 d5             	mov    %rdx,%rbp
  407bde:	53                   	push   %rbx
  407bdf:	31 db                	xor    %ebx,%ebx
  407be1:	48 83 ec 08          	sub    $0x8,%rsp
  407be5:	8b 47 04             	mov    0x4(%rdi),%eax
  407be8:	85 c0                	test   %eax,%eax
  407bea:	7e 24                	jle    407c10 <_ZN13Array2DWorkerIdE9setColumnEiPd+0x40>
  407bec:	0f 1f 40 00          	nopl   0x0(%rax)
  407bf0:	f2 0f 10 45 00       	movsd  0x0(%rbp),%xmm0
  407bf5:	89 de                	mov    %ebx,%esi
  407bf7:	44 89 ea             	mov    %r13d,%edx
  407bfa:	4c 89 e7             	mov    %r12,%rdi
  407bfd:	83 c3 01             	add    $0x1,%ebx
  407c00:	e8 db fe ff ff       	callq  407ae0 <_ZN13Array2DWorkerIdE3setEiid>
  407c05:	48 83 c5 08          	add    $0x8,%rbp
  407c09:	41 39 5c 24 04       	cmp    %ebx,0x4(%r12)
  407c0e:	7f e0                	jg     407bf0 <_ZN13Array2DWorkerIdE9setColumnEiPd+0x20>
  407c10:	48 83 c4 08          	add    $0x8,%rsp
  407c14:	5b                   	pop    %rbx
  407c15:	5d                   	pop    %rbp
  407c16:	41 5c                	pop    %r12
  407c18:	41 5d                	pop    %r13
  407c1a:	c3                   	retq   
  407c1b:	0f 1f 44 00 00       	nopl   0x0(%rax,%rax,1)

0000000000407c20 <_ZN13Array2DWorkerIdE16getColumnSectionEii>:
  407c20:	41 56                	push   %r14
  407c22:	41 89 d6             	mov    %edx,%r14d
  407c25:	89 ca                	mov    %ecx,%edx
  407c27:	41 55                	push   %r13
  407c29:	49 89 f5             	mov    %rsi,%r13
  407c2c:	41 54                	push   %r12
  407c2e:	41 89 cc             	mov    %ecx,%r12d
  407c31:	55                   	push   %rbp
  407c32:	48 89 fd             	mov    %rdi,%rbp
  407c35:	53                   	push   %rbx
  407c36:	8b 76 04             	mov    0x4(%rsi),%esi
  407c39:	31 db                	xor    %ebx,%ebx
  407c3b:	e8 90 fc ff ff       	callq  4078d0 <_ZN13Array2DWorkerIdEC1Eii>
  407c40:	45 85 e4             	test   %r12d,%r12d
  407c43:	7e 24                	jle    407c69 <_ZN13Array2DWorkerIdE16getColumnSectionEii+0x49>
  407c45:	0f 1f 00             	nopl   (%rax)
  407c48:	42 8d 34 33          	lea    (%rbx,%r14,1),%esi
  407c4c:	4c 89 ef             	mov    %r13,%rdi
  407c4f:	e8 0c fe ff ff       	callq  407a60 <_ZN13Array2DWorkerIdE9getColumnEi>
  407c54:	48 89 c2             	mov    %rax,%rdx
  407c57:	89 de                	mov    %ebx,%esi
  407c59:	48 89 ef             	mov    %rbp,%rdi
  407c5c:	e8 6f ff ff ff       	callq  407bd0 <_ZN13Array2DWorkerIdE9setColumnEiPd>
  407c61:	83 c3 01             	add    $0x1,%ebx
  407c64:	44 39 e3             	cmp    %r12d,%ebx
  407c67:	75 df                	jne    407c48 <_ZN13Array2DWorkerIdE16getColumnSectionEii+0x28>
  407c69:	5b                   	pop    %rbx
  407c6a:	48 89 e8             	mov    %rbp,%rax
  407c6d:	5d                   	pop    %rbp
  407c6e:	41 5c                	pop    %r12
  407c70:	41 5d                	pop    %r13
  407c72:	41 5e                	pop    %r14
  407c74:	c3                   	retq   
  407c75:	48 89 c3             	mov    %rax,%rbx
  407c78:	48 89 ef             	mov    %rbp,%rdi
  407c7b:	e8 e0 fc ff ff       	callq  407960 <_ZN13Array2DWorkerIdED1Ev>
  407c80:	48 89 df             	mov    %rbx,%rdi
  407c83:	e8 98 d8 ff ff       	callq  405520 <_Unwind_Resume@plt>
  407c88:	0f 1f 84 00 00 00 00 	nopl   0x0(%rax,%rax,1)
  407c8f:	00 

0000000000407c90 <_ZN13Array2DWorkerIdE9transposeEv>:
  407c90:	41 55                	push   %r13
  407c92:	49 89 fd             	mov    %rdi,%r13
  407c95:	41 54                	push   %r12
  407c97:	49 89 f4             	mov    %rsi,%r12
  407c9a:	55                   	push   %rbp
  407c9b:	53                   	push   %rbx
  407c9c:	48 83 ec 08          	sub    $0x8,%rsp
  407ca0:	8b 56 04             	mov    0x4(%rsi),%edx
  407ca3:	8b 36                	mov    (%rsi),%esi
  407ca5:	e8 26 fc ff ff       	callq  4078d0 <_ZN13Array2DWorkerIdEC1Eii>
  407caa:	41 8b 54 24 04       	mov    0x4(%r12),%edx
  407caf:	85 d2                	test   %edx,%edx
  407cb1:	7e 40                	jle    407cf3 <_ZN13Array2DWorkerIdE9transposeEv+0x63>
  407cb3:	31 ed                	xor    %ebp,%ebp
  407cb5:	0f 1f 00             	nopl   (%rax)
  407cb8:	41 8b 04 24          	mov    (%r12),%eax
  407cbc:	85 c0                	test   %eax,%eax
  407cbe:	7e 29                	jle    407ce9 <_ZN13Array2DWorkerIdE9transposeEv+0x59>
  407cc0:	31 db                	xor    %ebx,%ebx
  407cc2:	66 0f 1f 44 00 00    	nopw   0x0(%rax,%rax,1)
  407cc8:	89 da                	mov    %ebx,%edx
  407cca:	89 ee                	mov    %ebp,%esi
  407ccc:	4c 89 e7             	mov    %r12,%rdi
  407ccf:	e8 0c fd ff ff       	callq  4079e0 <_ZN13Array2DWorkerIdE2atEii>
  407cd4:	89 ea                	mov    %ebp,%edx
  407cd6:	89 de                	mov    %ebx,%esi
  407cd8:	4c 89 ef             	mov    %r13,%rdi
  407cdb:	e8 00 fe ff ff       	callq  407ae0 <_ZN13Array2DWorkerIdE3setEiid>
  407ce0:	83 c3 01             	add    $0x1,%ebx
  407ce3:	41 39 1c 24          	cmp    %ebx,(%r12)
  407ce7:	7f df                	jg     407cc8 <_ZN13Array2DWorkerIdE9transposeEv+0x38>
  407ce9:	83 c5 01             	add    $0x1,%ebp
  407cec:	41 39 6c 24 04       	cmp    %ebp,0x4(%r12)
  407cf1:	7f c5                	jg     407cb8 <_ZN13Array2DWorkerIdE9transposeEv+0x28>
  407cf3:	48 83 c4 08          	add    $0x8,%rsp
  407cf7:	4c 89 e8             	mov    %r13,%rax
  407cfa:	5b                   	pop    %rbx
  407cfb:	5d                   	pop    %rbp
  407cfc:	41 5c                	pop    %r12
  407cfe:	41 5d                	pop    %r13
  407d00:	c3                   	retq   
  407d01:	48 89 c3             	mov    %rax,%rbx
  407d04:	4c 89 ef             	mov    %r13,%rdi
  407d07:	e8 54 fc ff ff       	callq  407960 <_ZN13Array2DWorkerIdED1Ev>
  407d0c:	48 89 df             	mov    %rbx,%rdi
  407d0f:	e8 0c d8 ff ff       	callq  405520 <_Unwind_Resume@plt>
  407d14:	66 2e 0f 1f 84 00 00 	nopw   %cs:0x0(%rax,%rax,1)
  407d1b:	00 00 00 
  407d1e:	66 90                	xchg   %ax,%ax

0000000000407d20 <_ZN21CircularArray2DWorkerIiEC1Ev>:
  407d20:	53                   	push   %rbx
  407d21:	48 89 fb             	mov    %rdi,%rbx
  407d24:	e8 87 f2 ff ff       	callq  406fb0 <_ZN13Array2DWorkerIiEC1Ev>
  407d29:	c7 43 20 00 00 00 00 	movl   $0x0,0x20(%rbx)
  407d30:	c7 43 24 00 00 00 00 	movl   $0x0,0x24(%rbx)
  407d37:	c7 43 28 00 00 00 00 	movl   $0x0,0x28(%rbx)
  407d3e:	5b                   	pop    %rbx
  407d3f:	c3                   	retq   

0000000000407d40 <_ZN21CircularArray2DWorkerIiEC1Eii>:
  407d40:	55                   	push   %rbp
  407d41:	89 d5                	mov    %edx,%ebp
  407d43:	53                   	push   %rbx
  407d44:	48 89 fb             	mov    %rdi,%rbx
  407d47:	48 83 ec 08          	sub    $0x8,%rsp
  407d4b:	e8 90 f2 ff ff       	callq  406fe0 <_ZN13Array2DWorkerIiEC1Eii>
  407d50:	89 6b 24             	mov    %ebp,0x24(%rbx)
  407d53:	c7 43 20 00 00 00 00 	movl   $0x0,0x20(%rbx)
  407d5a:	c7 43 28 00 00 00 00 	movl   $0x0,0x28(%rbx)
  407d61:	48 83 c4 08          	add    $0x8,%rsp
  407d65:	5b                   	pop    %rbx
  407d66:	5d                   	pop    %rbp
  407d67:	c3                   	retq   
  407d68:	0f 1f 84 00 00 00 00 	nopl   0x0(%rax,%rax,1)
  407d6f:	00 

0000000000407d70 <_ZN21CircularArray2DWorkerIiED1Ev>:
  407d70:	c7 47 20 00 00 00 00 	movl   $0x0,0x20(%rdi)
  407d77:	c7 47 24 00 00 00 00 	movl   $0x0,0x24(%rdi)
  407d7e:	c7 47 28 00 00 00 00 	movl   $0x0,0x28(%rdi)
  407d85:	e9 e6 f2 ff ff       	jmpq   407070 <_ZN13Array2DWorkerIiED1Ev>
  407d8a:	66 0f 1f 44 00 00    	nopw   0x0(%rax,%rax,1)

0000000000407d90 <_ZN21CircularArray2DWorkerIiE10pushColumnEPi>:
  407d90:	55                   	push   %rbp
  407d91:	48 89 f2             	mov    %rsi,%rdx
  407d94:	53                   	push   %rbx
  407d95:	48 89 fb             	mov    %rdi,%rbx
  407d98:	48 83 ec 08          	sub    $0x8,%rsp
  407d9c:	8b 77 20             	mov    0x20(%rdi),%esi
  407d9f:	e8 2c f5 ff ff       	callq  4072d0 <_ZN13Array2DWorkerIiE9setColumnEiPi>
  407da4:	8b 6b 20             	mov    0x20(%rbx),%ebp
  407da7:	48 89 df             	mov    %rbx,%rdi
  407daa:	e8 11 f3 ff ff       	callq  4070c0 <_ZN13Array2DWorkerIiE14getColumnCountEv>
  407daf:	83 e8 01             	sub    $0x1,%eax
  407db2:	39 c5                	cmp    %eax,%ebp
  407db4:	7c 1a                	jl     407dd0 <_ZN21CircularArray2DWorkerIiE10pushColumnEPi+0x40>
  407db6:	83 43 28 01          	addl   $0x1,0x28(%rbx)
  407dba:	c7 43 20 00 00 00 00 	movl   $0x0,0x20(%rbx)
  407dc1:	48 83 c4 08          	add    $0x8,%rsp
  407dc5:	5b                   	pop    %rbx
  407dc6:	5d                   	pop    %rbp
  407dc7:	c3                   	retq   
  407dc8:	0f 1f 84 00 00 00 00 	nopl   0x0(%rax,%rax,1)
  407dcf:	00 
  407dd0:	8b 6b 20             	mov    0x20(%rbx),%ebp
  407dd3:	48 89 df             	mov    %rbx,%rdi
  407dd6:	e8 e5 f2 ff ff       	callq  4070c0 <_ZN13Array2DWorkerIiE14getColumnCountEv>
  407ddb:	39 c5                	cmp    %eax,%ebp
  407ddd:	7d e2                	jge    407dc1 <_ZN21CircularArray2DWorkerIiE10pushColumnEPi+0x31>
  407ddf:	83 43 20 01          	addl   $0x1,0x20(%rbx)
  407de3:	48 83 c4 08          	add    $0x8,%rsp
  407de7:	5b                   	pop    %rbx
  407de8:	5d                   	pop    %rbp
  407de9:	c3                   	retq   
  407dea:	66 0f 1f 44 00 00    	nopw   0x0(%rax,%rax,1)

0000000000407df0 <_ZN21CircularArray2DWorkerIiE9pushArrayE13Array2DWorkerIiE>:
  407df0:	41 54                	push   %r12
  407df2:	49 89 fc             	mov    %rdi,%r12
  407df5:	55                   	push   %rbp
  407df6:	48 89 f5             	mov    %rsi,%rbp
  407df9:	53                   	push   %rbx
  407dfa:	31 db                	xor    %ebx,%ebx
  407dfc:	eb 1a                	jmp    407e18 <_ZN21CircularArray2DWorkerIiE9pushArrayE13Array2DWorkerIiE+0x28>
  407dfe:	66 90                	xchg   %ax,%ax
  407e00:	89 de                	mov    %ebx,%esi
  407e02:	48 89 ef             	mov    %rbp,%rdi
  407e05:	83 c3 01             	add    $0x1,%ebx
  407e08:	e8 63 f3 ff ff       	callq  407170 <_ZN13Array2DWorkerIiE9getColumnEi>
  407e0d:	4c 89 e7             	mov    %r12,%rdi
  407e10:	48 89 c6             	mov    %rax,%rsi
  407e13:	e8 78 ff ff ff       	callq  407d90 <_ZN21CircularArray2DWorkerIiE10pushColumnEPi>
  407e18:	48 89 ef             	mov    %rbp,%rdi
  407e1b:	e8 a0 f2 ff ff       	callq  4070c0 <_ZN13Array2DWorkerIiE14getColumnCountEv>
  407e20:	39 c3                	cmp    %eax,%ebx
  407e22:	7c dc                	jl     407e00 <_ZN21CircularArray2DWorkerIiE9pushArrayE13Array2DWorkerIiE+0x10>
  407e24:	5b                   	pop    %rbx
  407e25:	5d                   	pop    %rbp
  407e26:	41 5c                	pop    %r12
  407e28:	c3                   	retq   
  407e29:	0f 1f 80 00 00 00 00 	nopl   0x0(%rax)

0000000000407e30 <_ZN21CircularArray2DWorkerIiE26getCurrentColumnWriteIndexEv>:
  407e30:	8b 47 20             	mov    0x20(%rdi),%eax
  407e33:	c3                   	retq   
  407e34:	66 2e 0f 1f 84 00 00 	nopw   %cs:0x0(%rax,%rax,1)
  407e3b:	00 00 00 
  407e3e:	66 90                	xchg   %ax,%ax

0000000000407e40 <_ZN21CircularArray2DWorkerIiE25getCurrentColumnReadIndexEv>:
  407e40:	8b 47 24             	mov    0x24(%rdi),%eax
  407e43:	c3                   	retq   
  407e44:	66 2e 0f 1f 84 00 00 	nopw   %cs:0x0(%rax,%rax,1)
  407e4b:	00 00 00 
  407e4e:	66 90                	xchg   %ax,%ax

0000000000407e50 <_ZN21CircularArray2DWorkerIiE26setCurrentColumnWriteIndexEi>:
  407e50:	89 77 20             	mov    %esi,0x20(%rdi)
  407e53:	c3                   	retq   
  407e54:	66 2e 0f 1f 84 00 00 	nopw   %cs:0x0(%rax,%rax,1)
  407e5b:	00 00 00 
  407e5e:	66 90                	xchg   %ax,%ax

0000000000407e60 <_ZN21CircularArray2DWorkerIiE25setCurrentColumnReadIndexEi>:
  407e60:	89 77 24             	mov    %esi,0x24(%rdi)
  407e63:	c3                   	retq   
  407e64:	66 2e 0f 1f 84 00 00 	nopw   %cs:0x0(%rax,%rax,1)
  407e6b:	00 00 00 
  407e6e:	66 90                	xchg   %ax,%ax

0000000000407e70 <_ZN21CircularArray2DWorkerIiE14getRefillCountEv>:
  407e70:	8b 47 28             	mov    0x28(%rdi),%eax
  407e73:	c3                   	retq   
  407e74:	66 2e 0f 1f 84 00 00 	nopw   %cs:0x0(%rax,%rax,1)
  407e7b:	00 00 00 
  407e7e:	66 90                	xchg   %ax,%ax

0000000000407e80 <_ZN21CircularArray2DWorkerIiE9popColumnEv>:
  407e80:	55                   	push   %rbp
  407e81:	53                   	push   %rbx
  407e82:	48 89 fb             	mov    %rdi,%rbx
  407e85:	48 83 ec 08          	sub    $0x8,%rsp
  407e89:	8b 6f 24             	mov    0x24(%rdi),%ebp
  407e8c:	e8 2f f2 ff ff       	callq  4070c0 <_ZN13Array2DWorkerIiE14getColumnCountEv>
  407e91:	83 e8 01             	sub    $0x1,%eax
  407e94:	39 c5                	cmp    %eax,%ebp
  407e96:	7c 18                	jl     407eb0 <_ZN21CircularArray2DWorkerIiE9popColumnEv+0x30>
  407e98:	c7 43 24 00 00 00 00 	movl   $0x0,0x24(%rbx)
  407e9f:	48 83 c4 08          	add    $0x8,%rsp
  407ea3:	48 89 df             	mov    %rbx,%rdi
  407ea6:	5b                   	pop    %rbx
  407ea7:	5d                   	pop    %rbp
  407ea8:	31 f6                	xor    %esi,%esi
  407eaa:	e9 c1 f2 ff ff       	jmpq   407170 <_ZN13Array2DWorkerIiE9getColumnEi>
  407eaf:	90                   	nop
  407eb0:	8b 6b 24             	mov    0x24(%rbx),%ebp
  407eb3:	48 89 df             	mov    %rbx,%rdi
  407eb6:	e8 05 f2 ff ff       	callq  4070c0 <_ZN13Array2DWorkerIiE14getColumnCountEv>
  407ebb:	39 c5                	cmp    %eax,%ebp
  407ebd:	7d 21                	jge    407ee0 <_ZN21CircularArray2DWorkerIiE9popColumnEv+0x60>
  407ebf:	8b 43 24             	mov    0x24(%rbx),%eax
  407ec2:	48 89 df             	mov    %rbx,%rdi
  407ec5:	8d 70 01             	lea    0x1(%rax),%esi
  407ec8:	89 73 24             	mov    %esi,0x24(%rbx)
  407ecb:	48 83 c4 08          	add    $0x8,%rsp
  407ecf:	5b                   	pop    %rbx
  407ed0:	5d                   	pop    %rbp
  407ed1:	e9 9a f2 ff ff       	jmpq   407170 <_ZN13Array2DWorkerIiE9getColumnEi>
  407ed6:	66 2e 0f 1f 84 00 00 	nopw   %cs:0x0(%rax,%rax,1)
  407edd:	00 00 00 
  407ee0:	8b 73 24             	mov    0x24(%rbx),%esi
  407ee3:	48 83 c4 08          	add    $0x8,%rsp
  407ee7:	48 89 df             	mov    %rbx,%rdi
  407eea:	5b                   	pop    %rbx
  407eeb:	5d                   	pop    %rbp
  407eec:	e9 7f f2 ff ff       	jmpq   407170 <_ZN13Array2DWorkerIiE9getColumnEi>
  407ef1:	66 2e 0f 1f 84 00 00 	nopw   %cs:0x0(%rax,%rax,1)
  407ef8:	00 00 00 
  407efb:	0f 1f 44 00 00       	nopl   0x0(%rax,%rax,1)

0000000000407f00 <_ZN21CircularArray2DWorkerIiE16popColumnSectionEiP13Array2DWorkerIiE>:
  407f00:	41 55                	push   %r13
  407f02:	49 89 fd             	mov    %rdi,%r13
  407f05:	41 54                	push   %r12
  407f07:	49 89 d4             	mov    %rdx,%r12
  407f0a:	55                   	push   %rbp
  407f0b:	89 f5                	mov    %esi,%ebp
  407f0d:	53                   	push   %rbx
  407f0e:	31 db                	xor    %ebx,%ebx
  407f10:	48 83 ec 08          	sub    $0x8,%rsp
  407f14:	85 f6                	test   %esi,%esi
  407f16:	7e 24                	jle    407f3c <_ZN21CircularArray2DWorkerIiE16popColumnSectionEiP13Array2DWorkerIiE+0x3c>
  407f18:	0f 1f 84 00 00 00 00 	nopl   0x0(%rax,%rax,1)
  407f1f:	00 
  407f20:	4c 89 ef             	mov    %r13,%rdi
  407f23:	e8 58 ff ff ff       	callq  407e80 <_ZN21CircularArray2DWorkerIiE9popColumnEv>
  407f28:	89 de                	mov    %ebx,%esi
  407f2a:	48 89 c2             	mov    %rax,%rdx
  407f2d:	4c 89 e7             	mov    %r12,%rdi
  407f30:	83 c3 01             	add    $0x1,%ebx
  407f33:	e8 98 f3 ff ff       	callq  4072d0 <_ZN13Array2DWorkerIiE9setColumnEiPi>
  407f38:	39 eb                	cmp    %ebp,%ebx
  407f3a:	75 e4                	jne    407f20 <_ZN21CircularArray2DWorkerIiE16popColumnSectionEiP13Array2DWorkerIiE+0x20>
  407f3c:	48 83 c4 08          	add    $0x8,%rsp
  407f40:	5b                   	pop    %rbx
  407f41:	5d                   	pop    %rbp
  407f42:	41 5c                	pop    %r12
  407f44:	41 5d                	pop    %r13
  407f46:	c3                   	retq   
  407f47:	66 0f 1f 84 00 00 00 	nopw   0x0(%rax,%rax,1)
  407f4e:	00 00 

0000000000407f50 <_ZN21CircularArray2DWorkerIiE24incrementColumnReadIndexEv>:
  407f50:	55                   	push   %rbp
  407f51:	53                   	push   %rbx
  407f52:	48 89 fb             	mov    %rdi,%rbx
  407f55:	48 83 ec 08          	sub    $0x8,%rsp
  407f59:	8b 6f 24             	mov    0x24(%rdi),%ebp
  407f5c:	e8 5f f1 ff ff       	callq  4070c0 <_ZN13Array2DWorkerIiE14getColumnCountEv>
  407f61:	83 e8 01             	sub    $0x1,%eax
  407f64:	39 c5                	cmp    %eax,%ebp
  407f66:	7d 10                	jge    407f78 <_ZN21CircularArray2DWorkerIiE24incrementColumnReadIndexEv+0x28>
  407f68:	83 43 24 01          	addl   $0x1,0x24(%rbx)
  407f6c:	48 83 c4 08          	add    $0x8,%rsp
  407f70:	5b                   	pop    %rbx
  407f71:	5d                   	pop    %rbp
  407f72:	c3                   	retq   
  407f73:	0f 1f 44 00 00       	nopl   0x0(%rax,%rax,1)
  407f78:	c7 43 24 00 00 00 00 	movl   $0x0,0x24(%rbx)
  407f7f:	48 83 c4 08          	add    $0x8,%rsp
  407f83:	5b                   	pop    %rbx
  407f84:	5d                   	pop    %rbp
  407f85:	c3                   	retq   
  407f86:	66 2e 0f 1f 84 00 00 	nopw   %cs:0x0(%rax,%rax,1)
  407f8d:	00 00 00 

0000000000407f90 <_ZN21CircularArray2DWorkerIiE25incrementColumnWriteIndexEv>:
  407f90:	55                   	push   %rbp
  407f91:	53                   	push   %rbx
  407f92:	48 89 fb             	mov    %rdi,%rbx
  407f95:	48 83 ec 08          	sub    $0x8,%rsp
  407f99:	8b 6f 20             	mov    0x20(%rdi),%ebp
  407f9c:	e8 1f f1 ff ff       	callq  4070c0 <_ZN13Array2DWorkerIiE14getColumnCountEv>
  407fa1:	83 e8 01             	sub    $0x1,%eax
  407fa4:	39 c5                	cmp    %eax,%ebp
  407fa6:	7d 10                	jge    407fb8 <_ZN21CircularArray2DWorkerIiE25incrementColumnWriteIndexEv+0x28>
  407fa8:	83 43 20 01          	addl   $0x1,0x20(%rbx)
  407fac:	48 83 c4 08          	add    $0x8,%rsp
  407fb0:	5b                   	pop    %rbx
  407fb1:	5d                   	pop    %rbp
  407fb2:	c3                   	retq   
  407fb3:	0f 1f 44 00 00       	nopl   0x0(%rax,%rax,1)
  407fb8:	c7 43 20 00 00 00 00 	movl   $0x0,0x20(%rbx)
  407fbf:	48 83 c4 08          	add    $0x8,%rsp
  407fc3:	5b                   	pop    %rbx
  407fc4:	5d                   	pop    %rbp
  407fc5:	c3                   	retq   
  407fc6:	66 2e 0f 1f 84 00 00 	nopw   %cs:0x0(%rax,%rax,1)
  407fcd:	00 00 00 

0000000000407fd0 <_ZN21CircularArray2DWorkerIiE24decrementColumnReadIndexEv>:
  407fd0:	8b 47 24             	mov    0x24(%rdi),%eax
  407fd3:	53                   	push   %rbx
  407fd4:	48 89 fb             	mov    %rdi,%rbx
  407fd7:	85 c0                	test   %eax,%eax
  407fd9:	7e 0d                	jle    407fe8 <_ZN21CircularArray2DWorkerIiE24decrementColumnReadIndexEv+0x18>
  407fdb:	83 e8 01             	sub    $0x1,%eax
  407fde:	89 43 24             	mov    %eax,0x24(%rbx)
  407fe1:	5b                   	pop    %rbx
  407fe2:	c3                   	retq   
  407fe3:	0f 1f 44 00 00       	nopl   0x0(%rax,%rax,1)
  407fe8:	e8 d3 f0 ff ff       	callq  4070c0 <_ZN13Array2DWorkerIiE14getColumnCountEv>
  407fed:	83 e8 01             	sub    $0x1,%eax
  407ff0:	89 43 24             	mov    %eax,0x24(%rbx)
  407ff3:	5b                   	pop    %rbx
  407ff4:	c3                   	retq   
  407ff5:	66 2e 0f 1f 84 00 00 	nopw   %cs:0x0(%rax,%rax,1)
  407ffc:	00 00 00 
  407fff:	90                   	nop

0000000000408000 <_ZN21CircularArray2DWorkerIiE25decrementColumnWriteIndexEv>:
  408000:	8b 47 20             	mov    0x20(%rdi),%eax
  408003:	53                   	push   %rbx
  408004:	48 89 fb             	mov    %rdi,%rbx
  408007:	85 c0                	test   %eax,%eax
  408009:	7e 0d                	jle    408018 <_ZN21CircularArray2DWorkerIiE25decrementColumnWriteIndexEv+0x18>
  40800b:	83 e8 01             	sub    $0x1,%eax
  40800e:	89 43 20             	mov    %eax,0x20(%rbx)
  408011:	5b                   	pop    %rbx
  408012:	c3                   	retq   
  408013:	0f 1f 44 00 00       	nopl   0x0(%rax,%rax,1)
  408018:	e8 a3 f0 ff ff       	callq  4070c0 <_ZN13Array2DWorkerIiE14getColumnCountEv>
  40801d:	83 e8 01             	sub    $0x1,%eax
  408020:	89 43 20             	mov    %eax,0x20(%rbx)
  408023:	5b                   	pop    %rbx
  408024:	c3                   	retq   
  408025:	66 2e 0f 1f 84 00 00 	nopw   %cs:0x0(%rax,%rax,1)
  40802c:	00 00 00 
  40802f:	90                   	nop

0000000000408030 <_ZN21CircularArray2DWorkerIiE8toStringEv>:
  408030:	41 55                	push   %r13
  408032:	45 31 ed             	xor    %r13d,%r13d
  408035:	41 54                	push   %r12
  408037:	55                   	push   %rbp
  408038:	48 89 fd             	mov    %rdi,%rbp
  40803b:	48 89 ef             	mov    %rbp,%rdi
  40803e:	53                   	push   %rbx
  40803f:	48 83 ec 08          	sub    $0x8,%rsp
  408043:	e8 68 f0 ff ff       	callq  4070b0 <_ZN13Array2DWorkerIiE11getRowCountEv>
  408048:	41 39 c5             	cmp    %eax,%r13d
  40804b:	0f 8d 98 00 00 00    	jge    4080e9 <_ZN21CircularArray2DWorkerIiE8toStringEv+0xb9>
  408051:	0f 1f 80 00 00 00 00 	nopl   0x0(%rax)
  408058:	31 db                	xor    %ebx,%ebx
  40805a:	4c 8b 25 77 df 20 00 	mov    0x20df77(%rip),%r12        # 615fd8 <_DYNAMIC+0x248>
  408061:	eb 33                	jmp    408096 <_ZN21CircularArray2DWorkerIiE8toStringEv+0x66>
  408063:	0f 1f 44 00 00       	nopl   0x0(%rax,%rax,1)
  408068:	89 da                	mov    %ebx,%edx
  40806a:	44 89 ee             	mov    %r13d,%esi
  40806d:	48 89 ef             	mov    %rbp,%rdi
  408070:	e8 7b f0 ff ff       	callq  4070f0 <_ZN13Array2DWorkerIiE2atEii>
  408075:	4c 89 e7             	mov    %r12,%rdi
  408078:	89 c6                	mov    %eax,%esi
  40807a:	83 c3 01             	add    $0x1,%ebx
  40807d:	e8 6e d1 ff ff       	callq  4051f0 <_ZNSolsEi@plt>
  408082:	48 8d 35 9b 6a 00 00 	lea    0x6a9b(%rip),%rsi        # 40eb24 <_IO_stdin_used+0xe4>
  408089:	ba 01 00 00 00       	mov    $0x1,%edx
  40808e:	48 89 c7             	mov    %rax,%rdi
  408091:	e8 7a d8 ff ff       	callq  405910 <_ZSt16__ostream_insertIcSt11char_traitsIcEERSt13basic_ostreamIT_T0_ES6_PKS3_l@plt>
  408096:	48 89 ef             	mov    %rbp,%rdi
  408099:	e8 22 f0 ff ff       	callq  4070c0 <_ZN13Array2DWorkerIiE14getColumnCountEv>
  40809e:	39 c3                	cmp    %eax,%ebx
  4080a0:	7c c6                	jl     408068 <_ZN21CircularArray2DWorkerIiE8toStringEv+0x38>
  4080a2:	49 8b 04 24          	mov    (%r12),%rax
  4080a6:	48 8b 40 e8          	mov    -0x18(%rax),%rax
  4080aa:	4a 8b 9c 20 f0 00 00 	mov    0xf0(%rax,%r12,1),%rbx
  4080b1:	00 
  4080b2:	48 85 db             	test   %rbx,%rbx
  4080b5:	74 59                	je     408110 <_ZN21CircularArray2DWorkerIiE8toStringEv+0xe0>
  4080b7:	80 7b 38 00          	cmpb   $0x0,0x38(%rbx)
  4080bb:	74 3b                	je     4080f8 <_ZN21CircularArray2DWorkerIiE8toStringEv+0xc8>
  4080bd:	0f b6 43 43          	movzbl 0x43(%rbx),%eax
  4080c1:	0f be f0             	movsbl %al,%esi
  4080c4:	4c 89 e7             	mov    %r12,%rdi
  4080c7:	41 83 c5 01          	add    $0x1,%r13d
  4080cb:	e8 60 d3 ff ff       	callq  405430 <_ZNSo3putEc@plt>
  4080d0:	48 89 c7             	mov    %rax,%rdi
  4080d3:	e8 d8 d2 ff ff       	callq  4053b0 <_ZNSo5flushEv@plt>
  4080d8:	48 89 ef             	mov    %rbp,%rdi
  4080db:	e8 d0 ef ff ff       	callq  4070b0 <_ZN13Array2DWorkerIiE11getRowCountEv>
  4080e0:	41 39 c5             	cmp    %eax,%r13d
  4080e3:	0f 8c 6f ff ff ff    	jl     408058 <_ZN21CircularArray2DWorkerIiE8toStringEv+0x28>
  4080e9:	48 83 c4 08          	add    $0x8,%rsp
  4080ed:	5b                   	pop    %rbx
  4080ee:	5d                   	pop    %rbp
  4080ef:	41 5c                	pop    %r12
  4080f1:	41 5d                	pop    %r13
  4080f3:	c3                   	retq   
  4080f4:	0f 1f 40 00          	nopl   0x0(%rax)
  4080f8:	48 89 df             	mov    %rbx,%rdi
  4080fb:	e8 a0 d2 ff ff       	callq  4053a0 <_ZNKSt5ctypeIcE13_M_widen_initEv@plt>
  408100:	48 8b 03             	mov    (%rbx),%rax
  408103:	be 0a 00 00 00       	mov    $0xa,%esi
  408108:	48 89 df             	mov    %rbx,%rdi
  40810b:	ff 50 30             	callq  *0x30(%rax)
  40810e:	eb b1                	jmp    4080c1 <_ZN21CircularArray2DWorkerIiE8toStringEv+0x91>
  408110:	e8 fb d0 ff ff       	callq  405210 <_ZSt16__throw_bad_castv@plt>
  408115:	66 2e 0f 1f 84 00 00 	nopw   %cs:0x0(%rax,%rax,1)
  40811c:	00 00 00 
  40811f:	90                   	nop

0000000000408120 <_ZN21CircularArray2DWorkerIfEC1Ev>:
  408120:	53                   	push   %rbx
  408121:	48 89 fb             	mov    %rdi,%rbx
  408124:	e8 f7 f2 ff ff       	callq  407420 <_ZN13Array2DWorkerIfEC1Ev>
  408129:	c7 43 20 00 00 00 00 	movl   $0x0,0x20(%rbx)
  408130:	c7 43 24 00 00 00 00 	movl   $0x0,0x24(%rbx)
  408137:	c7 43 28 00 00 00 00 	movl   $0x0,0x28(%rbx)
  40813e:	5b                   	pop    %rbx
  40813f:	c3                   	retq   

0000000000408140 <_ZN21CircularArray2DWorkerIfEC1Eii>:
  408140:	55                   	push   %rbp
  408141:	89 d5                	mov    %edx,%ebp
  408143:	53                   	push   %rbx
  408144:	48 89 fb             	mov    %rdi,%rbx
  408147:	48 83 ec 08          	sub    $0x8,%rsp
  40814b:	e8 00 f3 ff ff       	callq  407450 <_ZN13Array2DWorkerIfEC1Eii>
  408150:	89 6b 24             	mov    %ebp,0x24(%rbx)
  408153:	c7 43 20 00 00 00 00 	movl   $0x0,0x20(%rbx)
  40815a:	c7 43 28 00 00 00 00 	movl   $0x0,0x28(%rbx)
  408161:	48 83 c4 08          	add    $0x8,%rsp
  408165:	5b                   	pop    %rbx
  408166:	5d                   	pop    %rbp
  408167:	c3                   	retq   
  408168:	0f 1f 84 00 00 00 00 	nopl   0x0(%rax,%rax,1)
  40816f:	00 

0000000000408170 <_ZN21CircularArray2DWorkerIfED1Ev>:
  408170:	c7 47 20 00 00 00 00 	movl   $0x0,0x20(%rdi)
  408177:	c7 47 24 00 00 00 00 	movl   $0x0,0x24(%rdi)
  40817e:	c7 47 28 00 00 00 00 	movl   $0x0,0x28(%rdi)
  408185:	e9 56 f3 ff ff       	jmpq   4074e0 <_ZN13Array2DWorkerIfED1Ev>
  40818a:	66 0f 1f 44 00 00    	nopw   0x0(%rax,%rax,1)

0000000000408190 <_ZN21CircularArray2DWorkerIfE10pushColumnEPf>:
  408190:	55                   	push   %rbp
  408191:	48 89 f2             	mov    %rsi,%rdx
  408194:	53                   	push   %rbx
  408195:	48 89 fb             	mov    %rdi,%rbx
  408198:	48 83 ec 08          	sub    $0x8,%rsp
  40819c:	8b 77 20             	mov    0x20(%rdi),%esi
  40819f:	e8 ac f5 ff ff       	callq  407750 <_ZN13Array2DWorkerIfE9setColumnEiPf>
  4081a4:	8b 6b 20             	mov    0x20(%rbx),%ebp
  4081a7:	48 89 df             	mov    %rbx,%rdi
  4081aa:	e8 81 f3 ff ff       	callq  407530 <_ZN13Array2DWorkerIfE14getColumnCountEv>
  4081af:	83 e8 01             	sub    $0x1,%eax
  4081b2:	39 c5                	cmp    %eax,%ebp
  4081b4:	7c 1a                	jl     4081d0 <_ZN21CircularArray2DWorkerIfE10pushColumnEPf+0x40>
  4081b6:	83 43 28 01          	addl   $0x1,0x28(%rbx)
  4081ba:	c7 43 20 00 00 00 00 	movl   $0x0,0x20(%rbx)
  4081c1:	48 83 c4 08          	add    $0x8,%rsp
  4081c5:	5b                   	pop    %rbx
  4081c6:	5d                   	pop    %rbp
  4081c7:	c3                   	retq   
  4081c8:	0f 1f 84 00 00 00 00 	nopl   0x0(%rax,%rax,1)
  4081cf:	00 
  4081d0:	8b 6b 20             	mov    0x20(%rbx),%ebp
  4081d3:	48 89 df             	mov    %rbx,%rdi
  4081d6:	e8 55 f3 ff ff       	callq  407530 <_ZN13Array2DWorkerIfE14getColumnCountEv>
  4081db:	39 c5                	cmp    %eax,%ebp
  4081dd:	7d e2                	jge    4081c1 <_ZN21CircularArray2DWorkerIfE10pushColumnEPf+0x31>
  4081df:	83 43 20 01          	addl   $0x1,0x20(%rbx)
  4081e3:	48 83 c4 08          	add    $0x8,%rsp
  4081e7:	5b                   	pop    %rbx
  4081e8:	5d                   	pop    %rbp
  4081e9:	c3                   	retq   
  4081ea:	66 0f 1f 44 00 00    	nopw   0x0(%rax,%rax,1)

00000000004081f0 <_ZN21CircularArray2DWorkerIfE9pushArrayE13Array2DWorkerIfE>:
  4081f0:	41 54                	push   %r12
  4081f2:	49 89 fc             	mov    %rdi,%r12
  4081f5:	55                   	push   %rbp
  4081f6:	48 89 f5             	mov    %rsi,%rbp
  4081f9:	53                   	push   %rbx
  4081fa:	31 db                	xor    %ebx,%ebx
  4081fc:	eb 1a                	jmp    408218 <_ZN21CircularArray2DWorkerIfE9pushArrayE13Array2DWorkerIfE+0x28>
  4081fe:	66 90                	xchg   %ax,%ax
  408200:	89 de                	mov    %ebx,%esi
  408202:	48 89 ef             	mov    %rbp,%rdi
  408205:	83 c3 01             	add    $0x1,%ebx
  408208:	e8 d3 f3 ff ff       	callq  4075e0 <_ZN13Array2DWorkerIfE9getColumnEi>
  40820d:	4c 89 e7             	mov    %r12,%rdi
  408210:	48 89 c6             	mov    %rax,%rsi
  408213:	e8 78 ff ff ff       	callq  408190 <_ZN21CircularArray2DWorkerIfE10pushColumnEPf>
  408218:	48 89 ef             	mov    %rbp,%rdi
  40821b:	e8 10 f3 ff ff       	callq  407530 <_ZN13Array2DWorkerIfE14getColumnCountEv>
  408220:	39 c3                	cmp    %eax,%ebx
  408222:	7c dc                	jl     408200 <_ZN21CircularArray2DWorkerIfE9pushArrayE13Array2DWorkerIfE+0x10>
  408224:	5b                   	pop    %rbx
  408225:	5d                   	pop    %rbp
  408226:	41 5c                	pop    %r12
  408228:	c3                   	retq   
  408229:	0f 1f 80 00 00 00 00 	nopl   0x0(%rax)

0000000000408230 <_ZN21CircularArray2DWorkerIfE26getCurrentColumnWriteIndexEv>:
  408230:	8b 47 20             	mov    0x20(%rdi),%eax
  408233:	c3                   	retq   
  408234:	66 2e 0f 1f 84 00 00 	nopw   %cs:0x0(%rax,%rax,1)
  40823b:	00 00 00 
  40823e:	66 90                	xchg   %ax,%ax

0000000000408240 <_ZN21CircularArray2DWorkerIfE25getCurrentColumnReadIndexEv>:
  408240:	8b 47 24             	mov    0x24(%rdi),%eax
  408243:	c3                   	retq   
  408244:	66 2e 0f 1f 84 00 00 	nopw   %cs:0x0(%rax,%rax,1)
  40824b:	00 00 00 
  40824e:	66 90                	xchg   %ax,%ax

0000000000408250 <_ZN21CircularArray2DWorkerIfE26setCurrentColumnWriteIndexEi>:
  408250:	89 77 20             	mov    %esi,0x20(%rdi)
  408253:	c3                   	retq   
  408254:	66 2e 0f 1f 84 00 00 	nopw   %cs:0x0(%rax,%rax,1)
  40825b:	00 00 00 
  40825e:	66 90                	xchg   %ax,%ax

0000000000408260 <_ZN21CircularArray2DWorkerIfE25setCurrentColumnReadIndexEi>:
  408260:	89 77 24             	mov    %esi,0x24(%rdi)
  408263:	c3                   	retq   
  408264:	66 2e 0f 1f 84 00 00 	nopw   %cs:0x0(%rax,%rax,1)
  40826b:	00 00 00 
  40826e:	66 90                	xchg   %ax,%ax

0000000000408270 <_ZN21CircularArray2DWorkerIfE14getRefillCountEv>:
  408270:	8b 47 28             	mov    0x28(%rdi),%eax
  408273:	c3                   	retq   
  408274:	66 2e 0f 1f 84 00 00 	nopw   %cs:0x0(%rax,%rax,1)
  40827b:	00 00 00 
  40827e:	66 90                	xchg   %ax,%ax

0000000000408280 <_ZN21CircularArray2DWorkerIfE9popColumnEv>:
  408280:	55                   	push   %rbp
  408281:	53                   	push   %rbx
  408282:	48 89 fb             	mov    %rdi,%rbx
  408285:	48 83 ec 08          	sub    $0x8,%rsp
  408289:	8b 6f 24             	mov    0x24(%rdi),%ebp
  40828c:	e8 9f f2 ff ff       	callq  407530 <_ZN13Array2DWorkerIfE14getColumnCountEv>
  408291:	83 e8 01             	sub    $0x1,%eax
  408294:	39 c5                	cmp    %eax,%ebp
  408296:	7c 18                	jl     4082b0 <_ZN21CircularArray2DWorkerIfE9popColumnEv+0x30>
  408298:	c7 43 24 00 00 00 00 	movl   $0x0,0x24(%rbx)
  40829f:	48 83 c4 08          	add    $0x8,%rsp
  4082a3:	48 89 df             	mov    %rbx,%rdi
  4082a6:	5b                   	pop    %rbx
  4082a7:	5d                   	pop    %rbp
  4082a8:	31 f6                	xor    %esi,%esi
  4082aa:	e9 31 f3 ff ff       	jmpq   4075e0 <_ZN13Array2DWorkerIfE9getColumnEi>
  4082af:	90                   	nop
  4082b0:	8b 6b 24             	mov    0x24(%rbx),%ebp
  4082b3:	48 89 df             	mov    %rbx,%rdi
  4082b6:	e8 75 f2 ff ff       	callq  407530 <_ZN13Array2DWorkerIfE14getColumnCountEv>
  4082bb:	39 c5                	cmp    %eax,%ebp
  4082bd:	7d 21                	jge    4082e0 <_ZN21CircularArray2DWorkerIfE9popColumnEv+0x60>
  4082bf:	8b 43 24             	mov    0x24(%rbx),%eax
  4082c2:	48 89 df             	mov    %rbx,%rdi
  4082c5:	8d 70 01             	lea    0x1(%rax),%esi
  4082c8:	89 73 24             	mov    %esi,0x24(%rbx)
  4082cb:	48 83 c4 08          	add    $0x8,%rsp
  4082cf:	5b                   	pop    %rbx
  4082d0:	5d                   	pop    %rbp
  4082d1:	e9 0a f3 ff ff       	jmpq   4075e0 <_ZN13Array2DWorkerIfE9getColumnEi>
  4082d6:	66 2e 0f 1f 84 00 00 	nopw   %cs:0x0(%rax,%rax,1)
  4082dd:	00 00 00 
  4082e0:	8b 73 24             	mov    0x24(%rbx),%esi
  4082e3:	48 83 c4 08          	add    $0x8,%rsp
  4082e7:	48 89 df             	mov    %rbx,%rdi
  4082ea:	5b                   	pop    %rbx
  4082eb:	5d                   	pop    %rbp
  4082ec:	e9 ef f2 ff ff       	jmpq   4075e0 <_ZN13Array2DWorkerIfE9getColumnEi>
  4082f1:	66 2e 0f 1f 84 00 00 	nopw   %cs:0x0(%rax,%rax,1)
  4082f8:	00 00 00 
  4082fb:	0f 1f 44 00 00       	nopl   0x0(%rax,%rax,1)

0000000000408300 <_ZN21CircularArray2DWorkerIfE16popColumnSectionEiP13Array2DWorkerIfE>:
  408300:	41 55                	push   %r13
  408302:	49 89 fd             	mov    %rdi,%r13
  408305:	41 54                	push   %r12
  408307:	49 89 d4             	mov    %rdx,%r12
  40830a:	55                   	push   %rbp
  40830b:	89 f5                	mov    %esi,%ebp
  40830d:	53                   	push   %rbx
  40830e:	31 db                	xor    %ebx,%ebx
  408310:	48 83 ec 08          	sub    $0x8,%rsp
  408314:	85 f6                	test   %esi,%esi
  408316:	7e 24                	jle    40833c <_ZN21CircularArray2DWorkerIfE16popColumnSectionEiP13Array2DWorkerIfE+0x3c>
  408318:	0f 1f 84 00 00 00 00 	nopl   0x0(%rax,%rax,1)
  40831f:	00 
  408320:	4c 89 ef             	mov    %r13,%rdi
  408323:	e8 58 ff ff ff       	callq  408280 <_ZN21CircularArray2DWorkerIfE9popColumnEv>
  408328:	89 de                	mov    %ebx,%esi
  40832a:	48 89 c2             	mov    %rax,%rdx
  40832d:	4c 89 e7             	mov    %r12,%rdi
  408330:	83 c3 01             	add    $0x1,%ebx
  408333:	e8 18 f4 ff ff       	callq  407750 <_ZN13Array2DWorkerIfE9setColumnEiPf>
  408338:	39 eb                	cmp    %ebp,%ebx
  40833a:	75 e4                	jne    408320 <_ZN21CircularArray2DWorkerIfE16popColumnSectionEiP13Array2DWorkerIfE+0x20>
  40833c:	48 83 c4 08          	add    $0x8,%rsp
  408340:	5b                   	pop    %rbx
  408341:	5d                   	pop    %rbp
  408342:	41 5c                	pop    %r12
  408344:	41 5d                	pop    %r13
  408346:	c3                   	retq   
  408347:	66 0f 1f 84 00 00 00 	nopw   0x0(%rax,%rax,1)
  40834e:	00 00 

0000000000408350 <_ZN21CircularArray2DWorkerIfE24incrementColumnReadIndexEv>:
  408350:	55                   	push   %rbp
  408351:	53                   	push   %rbx
  408352:	48 89 fb             	mov    %rdi,%rbx
  408355:	48 83 ec 08          	sub    $0x8,%rsp
  408359:	8b 6f 24             	mov    0x24(%rdi),%ebp
  40835c:	e8 cf f1 ff ff       	callq  407530 <_ZN13Array2DWorkerIfE14getColumnCountEv>
  408361:	83 e8 01             	sub    $0x1,%eax
  408364:	39 c5                	cmp    %eax,%ebp
  408366:	7d 10                	jge    408378 <_ZN21CircularArray2DWorkerIfE24incrementColumnReadIndexEv+0x28>
  408368:	83 43 24 01          	addl   $0x1,0x24(%rbx)
  40836c:	48 83 c4 08          	add    $0x8,%rsp
  408370:	5b                   	pop    %rbx
  408371:	5d                   	pop    %rbp
  408372:	c3                   	retq   
  408373:	0f 1f 44 00 00       	nopl   0x0(%rax,%rax,1)
  408378:	c7 43 24 00 00 00 00 	movl   $0x0,0x24(%rbx)
  40837f:	48 83 c4 08          	add    $0x8,%rsp
  408383:	5b                   	pop    %rbx
  408384:	5d                   	pop    %rbp
  408385:	c3                   	retq   
  408386:	66 2e 0f 1f 84 00 00 	nopw   %cs:0x0(%rax,%rax,1)
  40838d:	00 00 00 

0000000000408390 <_ZN21CircularArray2DWorkerIfE25incrementColumnWriteIndexEv>:
  408390:	55                   	push   %rbp
  408391:	53                   	push   %rbx
  408392:	48 89 fb             	mov    %rdi,%rbx
  408395:	48 83 ec 08          	sub    $0x8,%rsp
  408399:	8b 6f 20             	mov    0x20(%rdi),%ebp
  40839c:	e8 8f f1 ff ff       	callq  407530 <_ZN13Array2DWorkerIfE14getColumnCountEv>
  4083a1:	83 e8 01             	sub    $0x1,%eax
  4083a4:	39 c5                	cmp    %eax,%ebp
  4083a6:	7d 10                	jge    4083b8 <_ZN21CircularArray2DWorkerIfE25incrementColumnWriteIndexEv+0x28>
  4083a8:	83 43 20 01          	addl   $0x1,0x20(%rbx)
  4083ac:	48 83 c4 08          	add    $0x8,%rsp
  4083b0:	5b                   	pop    %rbx
  4083b1:	5d                   	pop    %rbp
  4083b2:	c3                   	retq   
  4083b3:	0f 1f 44 00 00       	nopl   0x0(%rax,%rax,1)
  4083b8:	c7 43 20 00 00 00 00 	movl   $0x0,0x20(%rbx)
  4083bf:	48 83 c4 08          	add    $0x8,%rsp
  4083c3:	5b                   	pop    %rbx
  4083c4:	5d                   	pop    %rbp
  4083c5:	c3                   	retq   
  4083c6:	66 2e 0f 1f 84 00 00 	nopw   %cs:0x0(%rax,%rax,1)
  4083cd:	00 00 00 

00000000004083d0 <_ZN21CircularArray2DWorkerIfE24decrementColumnReadIndexEv>:
  4083d0:	8b 47 24             	mov    0x24(%rdi),%eax
  4083d3:	53                   	push   %rbx
  4083d4:	48 89 fb             	mov    %rdi,%rbx
  4083d7:	85 c0                	test   %eax,%eax
  4083d9:	7e 0d                	jle    4083e8 <_ZN21CircularArray2DWorkerIfE24decrementColumnReadIndexEv+0x18>
  4083db:	83 e8 01             	sub    $0x1,%eax
  4083de:	89 43 24             	mov    %eax,0x24(%rbx)
  4083e1:	5b                   	pop    %rbx
  4083e2:	c3                   	retq   
  4083e3:	0f 1f 44 00 00       	nopl   0x0(%rax,%rax,1)
  4083e8:	e8 43 f1 ff ff       	callq  407530 <_ZN13Array2DWorkerIfE14getColumnCountEv>
  4083ed:	83 e8 01             	sub    $0x1,%eax
  4083f0:	89 43 24             	mov    %eax,0x24(%rbx)
  4083f3:	5b                   	pop    %rbx
  4083f4:	c3                   	retq   
  4083f5:	66 2e 0f 1f 84 00 00 	nopw   %cs:0x0(%rax,%rax,1)
  4083fc:	00 00 00 
  4083ff:	90                   	nop

0000000000408400 <_ZN21CircularArray2DWorkerIfE25decrementColumnWriteIndexEv>:
  408400:	8b 47 20             	mov    0x20(%rdi),%eax
  408403:	53                   	push   %rbx
  408404:	48 89 fb             	mov    %rdi,%rbx
  408407:	85 c0                	test   %eax,%eax
  408409:	7e 0d                	jle    408418 <_ZN21CircularArray2DWorkerIfE25decrementColumnWriteIndexEv+0x18>
  40840b:	83 e8 01             	sub    $0x1,%eax
  40840e:	89 43 20             	mov    %eax,0x20(%rbx)
  408411:	5b                   	pop    %rbx
  408412:	c3                   	retq   
  408413:	0f 1f 44 00 00       	nopl   0x0(%rax,%rax,1)
  408418:	e8 13 f1 ff ff       	callq  407530 <_ZN13Array2DWorkerIfE14getColumnCountEv>
  40841d:	83 e8 01             	sub    $0x1,%eax
  408420:	89 43 20             	mov    %eax,0x20(%rbx)
  408423:	5b                   	pop    %rbx
  408424:	c3                   	retq   
  408425:	66 2e 0f 1f 84 00 00 	nopw   %cs:0x0(%rax,%rax,1)
  40842c:	00 00 00 
  40842f:	90                   	nop

0000000000408430 <_ZN21CircularArray2DWorkerIfE8toStringEv>:
  408430:	41 55                	push   %r13
  408432:	45 31 ed             	xor    %r13d,%r13d
  408435:	41 54                	push   %r12
  408437:	55                   	push   %rbp
  408438:	48 89 fd             	mov    %rdi,%rbp
  40843b:	48 89 ef             	mov    %rbp,%rdi
  40843e:	53                   	push   %rbx
  40843f:	48 83 ec 08          	sub    $0x8,%rsp
  408443:	e8 d8 f0 ff ff       	callq  407520 <_ZN13Array2DWorkerIfE11getRowCountEv>
  408448:	41 39 c5             	cmp    %eax,%r13d
  40844b:	0f 8d 9c 00 00 00    	jge    4084ed <_ZN21CircularArray2DWorkerIfE8toStringEv+0xbd>
  408451:	0f 1f 80 00 00 00 00 	nopl   0x0(%rax)
  408458:	31 db                	xor    %ebx,%ebx
  40845a:	4c 8b 25 77 db 20 00 	mov    0x20db77(%rip),%r12        # 615fd8 <_DYNAMIC+0x248>
  408461:	eb 37                	jmp    40849a <_ZN21CircularArray2DWorkerIfE8toStringEv+0x6a>
  408463:	0f 1f 44 00 00       	nopl   0x0(%rax,%rax,1)
  408468:	89 da                	mov    %ebx,%edx
  40846a:	44 89 ee             	mov    %r13d,%esi
  40846d:	48 89 ef             	mov    %rbp,%rdi
  408470:	e8 eb f0 ff ff       	callq  407560 <_ZN13Array2DWorkerIfE2atEii>
  408475:	0f 14 c0             	unpcklps %xmm0,%xmm0
  408478:	4c 89 e7             	mov    %r12,%rdi
  40847b:	83 c3 01             	add    $0x1,%ebx
  40847e:	0f 5a c0             	cvtps2pd %xmm0,%xmm0
  408481:	e8 ea d1 ff ff       	callq  405670 <_ZNSo9_M_insertIdEERSoT_@plt>
  408486:	48 8d 35 97 66 00 00 	lea    0x6697(%rip),%rsi        # 40eb24 <_IO_stdin_used+0xe4>
  40848d:	ba 01 00 00 00       	mov    $0x1,%edx
  408492:	48 89 c7             	mov    %rax,%rdi
  408495:	e8 76 d4 ff ff       	callq  405910 <_ZSt16__ostream_insertIcSt11char_traitsIcEERSt13basic_ostreamIT_T0_ES6_PKS3_l@plt>
  40849a:	48 89 ef             	mov    %rbp,%rdi
  40849d:	e8 8e f0 ff ff       	callq  407530 <_ZN13Array2DWorkerIfE14getColumnCountEv>
  4084a2:	39 c3                	cmp    %eax,%ebx
  4084a4:	7c c2                	jl     408468 <_ZN21CircularArray2DWorkerIfE8toStringEv+0x38>
  4084a6:	49 8b 04 24          	mov    (%r12),%rax
  4084aa:	48 8b 40 e8          	mov    -0x18(%rax),%rax
  4084ae:	4a 8b 9c 20 f0 00 00 	mov    0xf0(%rax,%r12,1),%rbx
  4084b5:	00 
  4084b6:	48 85 db             	test   %rbx,%rbx
  4084b9:	74 5d                	je     408518 <_ZN21CircularArray2DWorkerIfE8toStringEv+0xe8>
  4084bb:	80 7b 38 00          	cmpb   $0x0,0x38(%rbx)
  4084bf:	74 3f                	je     408500 <_ZN21CircularArray2DWorkerIfE8toStringEv+0xd0>
  4084c1:	0f b6 43 43          	movzbl 0x43(%rbx),%eax
  4084c5:	0f be f0             	movsbl %al,%esi
  4084c8:	4c 89 e7             	mov    %r12,%rdi
  4084cb:	41 83 c5 01          	add    $0x1,%r13d
  4084cf:	e8 5c cf ff ff       	callq  405430 <_ZNSo3putEc@plt>
  4084d4:	48 89 c7             	mov    %rax,%rdi
  4084d7:	e8 d4 ce ff ff       	callq  4053b0 <_ZNSo5flushEv@plt>
  4084dc:	48 89 ef             	mov    %rbp,%rdi
  4084df:	e8 3c f0 ff ff       	callq  407520 <_ZN13Array2DWorkerIfE11getRowCountEv>
  4084e4:	41 39 c5             	cmp    %eax,%r13d
  4084e7:	0f 8c 6b ff ff ff    	jl     408458 <_ZN21CircularArray2DWorkerIfE8toStringEv+0x28>
  4084ed:	48 83 c4 08          	add    $0x8,%rsp
  4084f1:	5b                   	pop    %rbx
  4084f2:	5d                   	pop    %rbp
  4084f3:	41 5c                	pop    %r12
  4084f5:	41 5d                	pop    %r13
  4084f7:	c3                   	retq   
  4084f8:	0f 1f 84 00 00 00 00 	nopl   0x0(%rax,%rax,1)
  4084ff:	00 
  408500:	48 89 df             	mov    %rbx,%rdi
  408503:	e8 98 ce ff ff       	callq  4053a0 <_ZNKSt5ctypeIcE13_M_widen_initEv@plt>
  408508:	48 8b 03             	mov    (%rbx),%rax
  40850b:	be 0a 00 00 00       	mov    $0xa,%esi
  408510:	48 89 df             	mov    %rbx,%rdi
  408513:	ff 50 30             	callq  *0x30(%rax)
  408516:	eb ad                	jmp    4084c5 <_ZN21CircularArray2DWorkerIfE8toStringEv+0x95>
  408518:	e8 f3 cc ff ff       	callq  405210 <_ZSt16__throw_bad_castv@plt>
  40851d:	0f 1f 00             	nopl   (%rax)

0000000000408520 <_ZN21CircularArray2DWorkerIdEC1Ev>:
  408520:	53                   	push   %rbx
  408521:	48 89 fb             	mov    %rdi,%rbx
  408524:	e8 77 f3 ff ff       	callq  4078a0 <_ZN13Array2DWorkerIdEC1Ev>
  408529:	c7 43 20 00 00 00 00 	movl   $0x0,0x20(%rbx)
  408530:	c7 43 24 00 00 00 00 	movl   $0x0,0x24(%rbx)
  408537:	c7 43 28 00 00 00 00 	movl   $0x0,0x28(%rbx)
  40853e:	5b                   	pop    %rbx
  40853f:	c3                   	retq   

0000000000408540 <_ZN21CircularArray2DWorkerIdEC1Eii>:
  408540:	55                   	push   %rbp
  408541:	89 d5                	mov    %edx,%ebp
  408543:	53                   	push   %rbx
  408544:	48 89 fb             	mov    %rdi,%rbx
  408547:	48 83 ec 08          	sub    $0x8,%rsp
  40854b:	e8 80 f3 ff ff       	callq  4078d0 <_ZN13Array2DWorkerIdEC1Eii>
  408550:	89 6b 24             	mov    %ebp,0x24(%rbx)
  408553:	c7 43 20 00 00 00 00 	movl   $0x0,0x20(%rbx)
  40855a:	c7 43 28 00 00 00 00 	movl   $0x0,0x28(%rbx)
  408561:	48 83 c4 08          	add    $0x8,%rsp
  408565:	5b                   	pop    %rbx
  408566:	5d                   	pop    %rbp
  408567:	c3                   	retq   
  408568:	0f 1f 84 00 00 00 00 	nopl   0x0(%rax,%rax,1)
  40856f:	00 

0000000000408570 <_ZN21CircularArray2DWorkerIdED1Ev>:
  408570:	c7 47 20 00 00 00 00 	movl   $0x0,0x20(%rdi)
  408577:	c7 47 24 00 00 00 00 	movl   $0x0,0x24(%rdi)
  40857e:	c7 47 28 00 00 00 00 	movl   $0x0,0x28(%rdi)
  408585:	e9 d6 f3 ff ff       	jmpq   407960 <_ZN13Array2DWorkerIdED1Ev>
  40858a:	66 0f 1f 44 00 00    	nopw   0x0(%rax,%rax,1)

0000000000408590 <_ZN21CircularArray2DWorkerIdE10pushColumnEPd>:
  408590:	55                   	push   %rbp
  408591:	48 89 f2             	mov    %rsi,%rdx
  408594:	53                   	push   %rbx
  408595:	48 89 fb             	mov    %rdi,%rbx
  408598:	48 83 ec 08          	sub    $0x8,%rsp
  40859c:	8b 77 20             	mov    0x20(%rdi),%esi
  40859f:	e8 2c f6 ff ff       	callq  407bd0 <_ZN13Array2DWorkerIdE9setColumnEiPd>
  4085a4:	8b 6b 20             	mov    0x20(%rbx),%ebp
  4085a7:	48 89 df             	mov    %rbx,%rdi
  4085aa:	e8 01 f4 ff ff       	callq  4079b0 <_ZN13Array2DWorkerIdE14getColumnCountEv>
  4085af:	83 e8 01             	sub    $0x1,%eax
  4085b2:	39 c5                	cmp    %eax,%ebp
  4085b4:	7c 1a                	jl     4085d0 <_ZN21CircularArray2DWorkerIdE10pushColumnEPd+0x40>
  4085b6:	83 43 28 01          	addl   $0x1,0x28(%rbx)
  4085ba:	c7 43 20 00 00 00 00 	movl   $0x0,0x20(%rbx)
  4085c1:	48 83 c4 08          	add    $0x8,%rsp
  4085c5:	5b                   	pop    %rbx
  4085c6:	5d                   	pop    %rbp
  4085c7:	c3                   	retq   
  4085c8:	0f 1f 84 00 00 00 00 	nopl   0x0(%rax,%rax,1)
  4085cf:	00 
  4085d0:	8b 6b 20             	mov    0x20(%rbx),%ebp
  4085d3:	48 89 df             	mov    %rbx,%rdi
  4085d6:	e8 d5 f3 ff ff       	callq  4079b0 <_ZN13Array2DWorkerIdE14getColumnCountEv>
  4085db:	39 c5                	cmp    %eax,%ebp
  4085dd:	7d e2                	jge    4085c1 <_ZN21CircularArray2DWorkerIdE10pushColumnEPd+0x31>
  4085df:	83 43 20 01          	addl   $0x1,0x20(%rbx)
  4085e3:	48 83 c4 08          	add    $0x8,%rsp
  4085e7:	5b                   	pop    %rbx
  4085e8:	5d                   	pop    %rbp
  4085e9:	c3                   	retq   
  4085ea:	66 0f 1f 44 00 00    	nopw   0x0(%rax,%rax,1)

00000000004085f0 <_ZN21CircularArray2DWorkerIdE9pushArrayE13Array2DWorkerIdE>:
  4085f0:	41 54                	push   %r12
  4085f2:	49 89 fc             	mov    %rdi,%r12
  4085f5:	55                   	push   %rbp
  4085f6:	48 89 f5             	mov    %rsi,%rbp
  4085f9:	53                   	push   %rbx
  4085fa:	31 db                	xor    %ebx,%ebx
  4085fc:	eb 1a                	jmp    408618 <_ZN21CircularArray2DWorkerIdE9pushArrayE13Array2DWorkerIdE+0x28>
  4085fe:	66 90                	xchg   %ax,%ax
  408600:	89 de                	mov    %ebx,%esi
  408602:	48 89 ef             	mov    %rbp,%rdi
  408605:	83 c3 01             	add    $0x1,%ebx
  408608:	e8 53 f4 ff ff       	callq  407a60 <_ZN13Array2DWorkerIdE9getColumnEi>
  40860d:	4c 89 e7             	mov    %r12,%rdi
  408610:	48 89 c6             	mov    %rax,%rsi
  408613:	e8 78 ff ff ff       	callq  408590 <_ZN21CircularArray2DWorkerIdE10pushColumnEPd>
  408618:	48 89 ef             	mov    %rbp,%rdi
  40861b:	e8 90 f3 ff ff       	callq  4079b0 <_ZN13Array2DWorkerIdE14getColumnCountEv>
  408620:	39 c3                	cmp    %eax,%ebx
  408622:	7c dc                	jl     408600 <_ZN21CircularArray2DWorkerIdE9pushArrayE13Array2DWorkerIdE+0x10>
  408624:	5b                   	pop    %rbx
  408625:	5d                   	pop    %rbp
  408626:	41 5c                	pop    %r12
  408628:	c3                   	retq   
  408629:	0f 1f 80 00 00 00 00 	nopl   0x0(%rax)

0000000000408630 <_ZN21CircularArray2DWorkerIdE26getCurrentColumnWriteIndexEv>:
  408630:	8b 47 20             	mov    0x20(%rdi),%eax
  408633:	c3                   	retq   
  408634:	66 2e 0f 1f 84 00 00 	nopw   %cs:0x0(%rax,%rax,1)
  40863b:	00 00 00 
  40863e:	66 90                	xchg   %ax,%ax

0000000000408640 <_ZN21CircularArray2DWorkerIdE25getCurrentColumnReadIndexEv>:
  408640:	8b 47 24             	mov    0x24(%rdi),%eax
  408643:	c3                   	retq   
  408644:	66 2e 0f 1f 84 00 00 	nopw   %cs:0x0(%rax,%rax,1)
  40864b:	00 00 00 
  40864e:	66 90                	xchg   %ax,%ax

0000000000408650 <_ZN21CircularArray2DWorkerIdE26setCurrentColumnWriteIndexEi>:
  408650:	89 77 20             	mov    %esi,0x20(%rdi)
  408653:	c3                   	retq   
  408654:	66 2e 0f 1f 84 00 00 	nopw   %cs:0x0(%rax,%rax,1)
  40865b:	00 00 00 
  40865e:	66 90                	xchg   %ax,%ax

0000000000408660 <_ZN21CircularArray2DWorkerIdE25setCurrentColumnReadIndexEi>:
  408660:	89 77 24             	mov    %esi,0x24(%rdi)
  408663:	c3                   	retq   
  408664:	66 2e 0f 1f 84 00 00 	nopw   %cs:0x0(%rax,%rax,1)
  40866b:	00 00 00 
  40866e:	66 90                	xchg   %ax,%ax

0000000000408670 <_ZN21CircularArray2DWorkerIdE14getRefillCountEv>:
  408670:	8b 47 28             	mov    0x28(%rdi),%eax
  408673:	c3                   	retq   
  408674:	66 2e 0f 1f 84 00 00 	nopw   %cs:0x0(%rax,%rax,1)
  40867b:	00 00 00 
  40867e:	66 90                	xchg   %ax,%ax

0000000000408680 <_ZN21CircularArray2DWorkerIdE9popColumnEv>:
  408680:	55                   	push   %rbp
  408681:	53                   	push   %rbx
  408682:	48 89 fb             	mov    %rdi,%rbx
  408685:	48 83 ec 08          	sub    $0x8,%rsp
  408689:	8b 6f 24             	mov    0x24(%rdi),%ebp
  40868c:	e8 1f f3 ff ff       	callq  4079b0 <_ZN13Array2DWorkerIdE14getColumnCountEv>
  408691:	83 e8 01             	sub    $0x1,%eax
  408694:	39 c5                	cmp    %eax,%ebp
  408696:	7c 18                	jl     4086b0 <_ZN21CircularArray2DWorkerIdE9popColumnEv+0x30>
  408698:	c7 43 24 00 00 00 00 	movl   $0x0,0x24(%rbx)
  40869f:	48 83 c4 08          	add    $0x8,%rsp
  4086a3:	48 89 df             	mov    %rbx,%rdi
  4086a6:	5b                   	pop    %rbx
  4086a7:	5d                   	pop    %rbp
  4086a8:	31 f6                	xor    %esi,%esi
  4086aa:	e9 b1 f3 ff ff       	jmpq   407a60 <_ZN13Array2DWorkerIdE9getColumnEi>
  4086af:	90                   	nop
  4086b0:	8b 6b 24             	mov    0x24(%rbx),%ebp
  4086b3:	48 89 df             	mov    %rbx,%rdi
  4086b6:	e8 f5 f2 ff ff       	callq  4079b0 <_ZN13Array2DWorkerIdE14getColumnCountEv>
  4086bb:	39 c5                	cmp    %eax,%ebp
  4086bd:	7d 21                	jge    4086e0 <_ZN21CircularArray2DWorkerIdE9popColumnEv+0x60>
  4086bf:	8b 43 24             	mov    0x24(%rbx),%eax
  4086c2:	48 89 df             	mov    %rbx,%rdi
  4086c5:	8d 70 01             	lea    0x1(%rax),%esi
  4086c8:	89 73 24             	mov    %esi,0x24(%rbx)
  4086cb:	48 83 c4 08          	add    $0x8,%rsp
  4086cf:	5b                   	pop    %rbx
  4086d0:	5d                   	pop    %rbp
  4086d1:	e9 8a f3 ff ff       	jmpq   407a60 <_ZN13Array2DWorkerIdE9getColumnEi>
  4086d6:	66 2e 0f 1f 84 00 00 	nopw   %cs:0x0(%rax,%rax,1)
  4086dd:	00 00 00 
  4086e0:	8b 73 24             	mov    0x24(%rbx),%esi
  4086e3:	48 83 c4 08          	add    $0x8,%rsp
  4086e7:	48 89 df             	mov    %rbx,%rdi
  4086ea:	5b                   	pop    %rbx
  4086eb:	5d                   	pop    %rbp
  4086ec:	e9 6f f3 ff ff       	jmpq   407a60 <_ZN13Array2DWorkerIdE9getColumnEi>
  4086f1:	66 2e 0f 1f 84 00 00 	nopw   %cs:0x0(%rax,%rax,1)
  4086f8:	00 00 00 
  4086fb:	0f 1f 44 00 00       	nopl   0x0(%rax,%rax,1)

0000000000408700 <_ZN21CircularArray2DWorkerIdE16popColumnSectionEiP13Array2DWorkerIdE>:
  408700:	41 55                	push   %r13
  408702:	49 89 fd             	mov    %rdi,%r13
  408705:	41 54                	push   %r12
  408707:	49 89 d4             	mov    %rdx,%r12
  40870a:	55                   	push   %rbp
  40870b:	89 f5                	mov    %esi,%ebp
  40870d:	53                   	push   %rbx
  40870e:	31 db                	xor    %ebx,%ebx
  408710:	48 83 ec 08          	sub    $0x8,%rsp
  408714:	85 f6                	test   %esi,%esi
  408716:	7e 24                	jle    40873c <_ZN21CircularArray2DWorkerIdE16popColumnSectionEiP13Array2DWorkerIdE+0x3c>
  408718:	0f 1f 84 00 00 00 00 	nopl   0x0(%rax,%rax,1)
  40871f:	00 
  408720:	4c 89 ef             	mov    %r13,%rdi
  408723:	e8 58 ff ff ff       	callq  408680 <_ZN21CircularArray2DWorkerIdE9popColumnEv>
  408728:	89 de                	mov    %ebx,%esi
  40872a:	48 89 c2             	mov    %rax,%rdx
  40872d:	4c 89 e7             	mov    %r12,%rdi
  408730:	83 c3 01             	add    $0x1,%ebx
  408733:	e8 98 f4 ff ff       	callq  407bd0 <_ZN13Array2DWorkerIdE9setColumnEiPd>
  408738:	39 eb                	cmp    %ebp,%ebx
  40873a:	75 e4                	jne    408720 <_ZN21CircularArray2DWorkerIdE16popColumnSectionEiP13Array2DWorkerIdE+0x20>
  40873c:	48 83 c4 08          	add    $0x8,%rsp
  408740:	5b                   	pop    %rbx
  408741:	5d                   	pop    %rbp
  408742:	41 5c                	pop    %r12
  408744:	41 5d                	pop    %r13
  408746:	c3                   	retq   
  408747:	66 0f 1f 84 00 00 00 	nopw   0x0(%rax,%rax,1)
  40874e:	00 00 

0000000000408750 <_ZN21CircularArray2DWorkerIdE24incrementColumnReadIndexEv>:
  408750:	55                   	push   %rbp
  408751:	53                   	push   %rbx
  408752:	48 89 fb             	mov    %rdi,%rbx
  408755:	48 83 ec 08          	sub    $0x8,%rsp
  408759:	8b 6f 24             	mov    0x24(%rdi),%ebp
  40875c:	e8 4f f2 ff ff       	callq  4079b0 <_ZN13Array2DWorkerIdE14getColumnCountEv>
  408761:	83 e8 01             	sub    $0x1,%eax
  408764:	39 c5                	cmp    %eax,%ebp
  408766:	7d 10                	jge    408778 <_ZN21CircularArray2DWorkerIdE24incrementColumnReadIndexEv+0x28>
  408768:	83 43 24 01          	addl   $0x1,0x24(%rbx)
  40876c:	48 83 c4 08          	add    $0x8,%rsp
  408770:	5b                   	pop    %rbx
  408771:	5d                   	pop    %rbp
  408772:	c3                   	retq   
  408773:	0f 1f 44 00 00       	nopl   0x0(%rax,%rax,1)
  408778:	c7 43 24 00 00 00 00 	movl   $0x0,0x24(%rbx)
  40877f:	48 83 c4 08          	add    $0x8,%rsp
  408783:	5b                   	pop    %rbx
  408784:	5d                   	pop    %rbp
  408785:	c3                   	retq   
  408786:	66 2e 0f 1f 84 00 00 	nopw   %cs:0x0(%rax,%rax,1)
  40878d:	00 00 00 

0000000000408790 <_ZN21CircularArray2DWorkerIdE25incrementColumnWriteIndexEv>:
  408790:	55                   	push   %rbp
  408791:	53                   	push   %rbx
  408792:	48 89 fb             	mov    %rdi,%rbx
  408795:	48 83 ec 08          	sub    $0x8,%rsp
  408799:	8b 6f 20             	mov    0x20(%rdi),%ebp
  40879c:	e8 0f f2 ff ff       	callq  4079b0 <_ZN13Array2DWorkerIdE14getColumnCountEv>
  4087a1:	83 e8 01             	sub    $0x1,%eax
  4087a4:	39 c5                	cmp    %eax,%ebp
  4087a6:	7d 10                	jge    4087b8 <_ZN21CircularArray2DWorkerIdE25incrementColumnWriteIndexEv+0x28>
  4087a8:	83 43 20 01          	addl   $0x1,0x20(%rbx)
  4087ac:	48 83 c4 08          	add    $0x8,%rsp
  4087b0:	5b                   	pop    %rbx
  4087b1:	5d                   	pop    %rbp
  4087b2:	c3                   	retq   
  4087b3:	0f 1f 44 00 00       	nopl   0x0(%rax,%rax,1)
  4087b8:	c7 43 20 00 00 00 00 	movl   $0x0,0x20(%rbx)
  4087bf:	48 83 c4 08          	add    $0x8,%rsp
  4087c3:	5b                   	pop    %rbx
  4087c4:	5d                   	pop    %rbp
  4087c5:	c3                   	retq   
  4087c6:	66 2e 0f 1f 84 00 00 	nopw   %cs:0x0(%rax,%rax,1)
  4087cd:	00 00 00 

00000000004087d0 <_ZN21CircularArray2DWorkerIdE24decrementColumnReadIndexEv>:
  4087d0:	8b 47 24             	mov    0x24(%rdi),%eax
  4087d3:	53                   	push   %rbx
  4087d4:	48 89 fb             	mov    %rdi,%rbx
  4087d7:	85 c0                	test   %eax,%eax
  4087d9:	7e 0d                	jle    4087e8 <_ZN21CircularArray2DWorkerIdE24decrementColumnReadIndexEv+0x18>
  4087db:	83 e8 01             	sub    $0x1,%eax
  4087de:	89 43 24             	mov    %eax,0x24(%rbx)
  4087e1:	5b                   	pop    %rbx
  4087e2:	c3                   	retq   
  4087e3:	0f 1f 44 00 00       	nopl   0x0(%rax,%rax,1)
  4087e8:	e8 c3 f1 ff ff       	callq  4079b0 <_ZN13Array2DWorkerIdE14getColumnCountEv>
  4087ed:	83 e8 01             	sub    $0x1,%eax
  4087f0:	89 43 24             	mov    %eax,0x24(%rbx)
  4087f3:	5b                   	pop    %rbx
  4087f4:	c3                   	retq   
  4087f5:	66 2e 0f 1f 84 00 00 	nopw   %cs:0x0(%rax,%rax,1)
  4087fc:	00 00 00 
  4087ff:	90                   	nop

0000000000408800 <_ZN21CircularArray2DWorkerIdE25decrementColumnWriteIndexEv>:
  408800:	8b 47 20             	mov    0x20(%rdi),%eax
  408803:	53                   	push   %rbx
  408804:	48 89 fb             	mov    %rdi,%rbx
  408807:	85 c0                	test   %eax,%eax
  408809:	7e 0d                	jle    408818 <_ZN21CircularArray2DWorkerIdE25decrementColumnWriteIndexEv+0x18>
  40880b:	83 e8 01             	sub    $0x1,%eax
  40880e:	89 43 20             	mov    %eax,0x20(%rbx)
  408811:	5b                   	pop    %rbx
  408812:	c3                   	retq   
  408813:	0f 1f 44 00 00       	nopl   0x0(%rax,%rax,1)
  408818:	e8 93 f1 ff ff       	callq  4079b0 <_ZN13Array2DWorkerIdE14getColumnCountEv>
  40881d:	83 e8 01             	sub    $0x1,%eax
  408820:	89 43 20             	mov    %eax,0x20(%rbx)
  408823:	5b                   	pop    %rbx
  408824:	c3                   	retq   
  408825:	66 2e 0f 1f 84 00 00 	nopw   %cs:0x0(%rax,%rax,1)
  40882c:	00 00 00 
  40882f:	90                   	nop

0000000000408830 <_ZN21CircularArray2DWorkerIdE8toStringEv>:
  408830:	41 55                	push   %r13
  408832:	45 31 ed             	xor    %r13d,%r13d
  408835:	41 54                	push   %r12
  408837:	55                   	push   %rbp
  408838:	48 89 fd             	mov    %rdi,%rbp
  40883b:	48 89 ef             	mov    %rbp,%rdi
  40883e:	53                   	push   %rbx
  40883f:	48 83 ec 08          	sub    $0x8,%rsp
  408843:	e8 58 f1 ff ff       	callq  4079a0 <_ZN13Array2DWorkerIdE11getRowCountEv>
  408848:	41 39 c5             	cmp    %eax,%r13d
  40884b:	0f 8d 96 00 00 00    	jge    4088e7 <_ZN21CircularArray2DWorkerIdE8toStringEv+0xb7>
  408851:	0f 1f 80 00 00 00 00 	nopl   0x0(%rax)
  408858:	31 db                	xor    %ebx,%ebx
  40885a:	4c 8b 25 77 d7 20 00 	mov    0x20d777(%rip),%r12        # 615fd8 <_DYNAMIC+0x248>
  408861:	eb 31                	jmp    408894 <_ZN21CircularArray2DWorkerIdE8toStringEv+0x64>
  408863:	0f 1f 44 00 00       	nopl   0x0(%rax,%rax,1)
  408868:	89 da                	mov    %ebx,%edx
  40886a:	44 89 ee             	mov    %r13d,%esi
  40886d:	48 89 ef             	mov    %rbp,%rdi
  408870:	e8 6b f1 ff ff       	callq  4079e0 <_ZN13Array2DWorkerIdE2atEii>
  408875:	4c 89 e7             	mov    %r12,%rdi
  408878:	83 c3 01             	add    $0x1,%ebx
  40887b:	e8 f0 cd ff ff       	callq  405670 <_ZNSo9_M_insertIdEERSoT_@plt>
  408880:	48 8d 35 9d 62 00 00 	lea    0x629d(%rip),%rsi        # 40eb24 <_IO_stdin_used+0xe4>
  408887:	ba 01 00 00 00       	mov    $0x1,%edx
  40888c:	48 89 c7             	mov    %rax,%rdi
  40888f:	e8 7c d0 ff ff       	callq  405910 <_ZSt16__ostream_insertIcSt11char_traitsIcEERSt13basic_ostreamIT_T0_ES6_PKS3_l@plt>
  408894:	48 89 ef             	mov    %rbp,%rdi
  408897:	e8 14 f1 ff ff       	callq  4079b0 <_ZN13Array2DWorkerIdE14getColumnCountEv>
  40889c:	39 c3                	cmp    %eax,%ebx
  40889e:	7c c8                	jl     408868 <_ZN21CircularArray2DWorkerIdE8toStringEv+0x38>
  4088a0:	49 8b 04 24          	mov    (%r12),%rax
  4088a4:	48 8b 40 e8          	mov    -0x18(%rax),%rax
  4088a8:	4a 8b 9c 20 f0 00 00 	mov    0xf0(%rax,%r12,1),%rbx
  4088af:	00 
  4088b0:	48 85 db             	test   %rbx,%rbx
  4088b3:	74 5b                	je     408910 <_ZN21CircularArray2DWorkerIdE8toStringEv+0xe0>
  4088b5:	80 7b 38 00          	cmpb   $0x0,0x38(%rbx)
  4088b9:	74 3d                	je     4088f8 <_ZN21CircularArray2DWorkerIdE8toStringEv+0xc8>
  4088bb:	0f b6 43 43          	movzbl 0x43(%rbx),%eax
  4088bf:	0f be f0             	movsbl %al,%esi
  4088c2:	4c 89 e7             	mov    %r12,%rdi
  4088c5:	41 83 c5 01          	add    $0x1,%r13d
  4088c9:	e8 62 cb ff ff       	callq  405430 <_ZNSo3putEc@plt>
  4088ce:	48 89 c7             	mov    %rax,%rdi
  4088d1:	e8 da ca ff ff       	callq  4053b0 <_ZNSo5flushEv@plt>
  4088d6:	48 89 ef             	mov    %rbp,%rdi
  4088d9:	e8 c2 f0 ff ff       	callq  4079a0 <_ZN13Array2DWorkerIdE11getRowCountEv>
  4088de:	41 39 c5             	cmp    %eax,%r13d
  4088e1:	0f 8c 71 ff ff ff    	jl     408858 <_ZN21CircularArray2DWorkerIdE8toStringEv+0x28>
  4088e7:	48 83 c4 08          	add    $0x8,%rsp
  4088eb:	5b                   	pop    %rbx
  4088ec:	5d                   	pop    %rbp
  4088ed:	41 5c                	pop    %r12
  4088ef:	41 5d                	pop    %r13
  4088f1:	c3                   	retq   
  4088f2:	66 0f 1f 44 00 00    	nopw   0x0(%rax,%rax,1)
  4088f8:	48 89 df             	mov    %rbx,%rdi
  4088fb:	e8 a0 ca ff ff       	callq  4053a0 <_ZNKSt5ctypeIcE13_M_widen_initEv@plt>
  408900:	48 8b 03             	mov    (%rbx),%rax
  408903:	be 0a 00 00 00       	mov    $0xa,%esi
  408908:	48 89 df             	mov    %rbx,%rdi
  40890b:	ff 50 30             	callq  *0x30(%rax)
  40890e:	eb af                	jmp    4088bf <_ZN21CircularArray2DWorkerIdE8toStringEv+0x8f>
  408910:	e8 fb c8 ff ff       	callq  405210 <_ZSt16__throw_bad_castv@plt>
  408915:	66 2e 0f 1f 84 00 00 	nopw   %cs:0x0(%rax,%rax,1)
  40891c:	00 00 00 
  40891f:	90                   	nop

0000000000408920 <_ZN15SpectrogramDataIdED1Ev>:
  408920:	48 8d 05 f9 ca 20 00 	lea    0x20caf9(%rip),%rax        # 615420 <_ZTV15SpectrogramDataIdE>
  408927:	48 83 c0 10          	add    $0x10,%rax
  40892b:	48 89 07             	mov    %rax,(%rdi)
  40892e:	e9 4d cc ff ff       	jmpq   405580 <_ZN13QwtRasterDataD2Ev@plt>
  408933:	66 2e 0f 1f 84 00 00 	nopw   %cs:0x0(%rax,%rax,1)
  40893a:	00 00 00 
  40893d:	0f 1f 00             	nopl   (%rax)

0000000000408940 <_ZN15SpectrogramDataIfED1Ev>:
  408940:	48 8d 05 79 ca 20 00 	lea    0x20ca79(%rip),%rax        # 6153c0 <_ZTV15SpectrogramDataIfE>
  408947:	48 83 c0 10          	add    $0x10,%rax
  40894b:	48 89 07             	mov    %rax,(%rdi)
  40894e:	e9 2d cc ff ff       	jmpq   405580 <_ZN13QwtRasterDataD2Ev@plt>
  408953:	66 2e 0f 1f 84 00 00 	nopw   %cs:0x0(%rax,%rax,1)
  40895a:	00 00 00 
  40895d:	0f 1f 00             	nopl   (%rax)

0000000000408960 <_ZN15SpectrogramDataIiED1Ev>:
  408960:	48 8d 05 f9 c9 20 00 	lea    0x20c9f9(%rip),%rax        # 615360 <_ZTV15SpectrogramDataIiE>
  408967:	48 83 c0 10          	add    $0x10,%rax
  40896b:	48 89 07             	mov    %rax,(%rdi)
  40896e:	e9 0d cc ff ff       	jmpq   405580 <_ZN13QwtRasterDataD2Ev@plt>
  408973:	66 2e 0f 1f 84 00 00 	nopw   %cs:0x0(%rax,%rax,1)
  40897a:	00 00 00 
  40897d:	0f 1f 00             	nopl   (%rax)

0000000000408980 <_ZNK15SpectrogramDataIiE5valueEdd>:
  408980:	41 54                	push   %r12
  408982:	f2 44 0f 2c e1       	cvttsd2si %xmm1,%r12d
  408987:	55                   	push   %rbp
  408988:	53                   	push   %rbx
  408989:	48 89 fb             	mov    %rdi,%rbx
  40898c:	48 83 ec 10          	sub    $0x10,%rsp
  408990:	48 8b 7f 50          	mov    0x50(%rdi),%rdi
  408994:	f2 0f 11 44 24 08    	movsd  %xmm0,0x8(%rsp)
  40899a:	e8 e1 3c 00 00       	callq  40c680 <_ZN23CircularArray2DSpectrumIiE25getCurrentSampleReadIndexEv>
  40899f:	f2 0f 10 44 24 08    	movsd  0x8(%rsp),%xmm0
  4089a5:	48 8b 7b 50          	mov    0x50(%rbx),%rdi
  4089a9:	f2 0f 2c d0          	cvttsd2si %xmm0,%edx
  4089ad:	8d 6c 10 01          	lea    0x1(%rax,%rdx,1),%ebp
  4089b1:	e8 3a 28 00 00       	callq  40b1f0 <_ZN15Array2DSpectrumIiE14getSampleCountEv>
  4089b6:	39 c5                	cmp    %eax,%ebp
  4089b8:	7c 0b                	jl     4089c5 <_ZNK15SpectrogramDataIiE5valueEdd+0x45>
  4089ba:	48 8b 7b 50          	mov    0x50(%rbx),%rdi
  4089be:	e8 2d 28 00 00       	callq  40b1f0 <_ZN15Array2DSpectrumIiE14getSampleCountEv>
  4089c3:	29 c5                	sub    %eax,%ebp
  4089c5:	48 8b 7b 50          	mov    0x50(%rbx),%rdi
  4089c9:	e8 22 28 00 00       	callq  40b1f0 <_ZN15Array2DSpectrumIiE14getSampleCountEv>
  4089ce:	48 8b 7b 50          	mov    0x50(%rbx),%rdi
  4089d2:	8d 50 ff             	lea    -0x1(%rax),%edx
  4089d5:	44 89 e6             	mov    %r12d,%esi
  4089d8:	29 ea                	sub    %ebp,%edx
  4089da:	e8 11 29 00 00       	callq  40b2f0 <_ZN15Array2DSpectrumIiE2atEii>
  4089df:	48 83 c4 10          	add    $0x10,%rsp
  4089e3:	f2 0f 2a c0          	cvtsi2sd %eax,%xmm0
  4089e7:	5b                   	pop    %rbx
  4089e8:	5d                   	pop    %rbp
  4089e9:	41 5c                	pop    %r12
  4089eb:	c3                   	retq   
  4089ec:	0f 1f 40 00          	nopl   0x0(%rax)

00000000004089f0 <_ZNK15SpectrogramDataIfE5valueEdd>:
  4089f0:	41 54                	push   %r12
  4089f2:	f2 44 0f 2c e1       	cvttsd2si %xmm1,%r12d
  4089f7:	55                   	push   %rbp
  4089f8:	53                   	push   %rbx
  4089f9:	48 89 fb             	mov    %rdi,%rbx
  4089fc:	48 83 ec 10          	sub    $0x10,%rsp
  408a00:	48 8b 7f 50          	mov    0x50(%rdi),%rdi
  408a04:	f2 0f 11 44 24 08    	movsd  %xmm0,0x8(%rsp)
  408a0a:	e8 01 41 00 00       	callq  40cb10 <_ZN23CircularArray2DSpectrumIfE25getCurrentSampleReadIndexEv>
  408a0f:	f2 0f 10 44 24 08    	movsd  0x8(%rsp),%xmm0
  408a15:	48 8b 7b 50          	mov    0x50(%rbx),%rdi
  408a19:	f2 0f 2c d0          	cvttsd2si %xmm0,%edx
  408a1d:	8d 6c 10 01          	lea    0x1(%rax,%rdx,1),%ebp
  408a21:	e8 ca 2d 00 00       	callq  40b7f0 <_ZN15Array2DSpectrumIfE14getSampleCountEv>
  408a26:	39 c5                	cmp    %eax,%ebp
  408a28:	7c 0b                	jl     408a35 <_ZNK15SpectrogramDataIfE5valueEdd+0x45>
  408a2a:	48 8b 7b 50          	mov    0x50(%rbx),%rdi
  408a2e:	e8 bd 2d 00 00       	callq  40b7f0 <_ZN15Array2DSpectrumIfE14getSampleCountEv>
  408a33:	29 c5                	sub    %eax,%ebp
  408a35:	48 8b 7b 50          	mov    0x50(%rbx),%rdi
  408a39:	e8 b2 2d 00 00       	callq  40b7f0 <_ZN15Array2DSpectrumIfE14getSampleCountEv>
  408a3e:	48 8b 7b 50          	mov    0x50(%rbx),%rdi
  408a42:	8d 50 ff             	lea    -0x1(%rax),%edx
  408a45:	44 89 e6             	mov    %r12d,%esi
  408a48:	29 ea                	sub    %ebp,%edx
  408a4a:	e8 b1 2e 00 00       	callq  40b900 <_ZN15Array2DSpectrumIfE2atEii>
  408a4f:	48 83 c4 10          	add    $0x10,%rsp
  408a53:	0f 14 c0             	unpcklps %xmm0,%xmm0
  408a56:	5b                   	pop    %rbx
  408a57:	5d                   	pop    %rbp
  408a58:	0f 5a c0             	cvtps2pd %xmm0,%xmm0
  408a5b:	41 5c                	pop    %r12
  408a5d:	c3                   	retq   
  408a5e:	66 90                	xchg   %ax,%ax

0000000000408a60 <_ZNK15SpectrogramDataIdE5valueEdd>:
  408a60:	41 54                	push   %r12
  408a62:	f2 44 0f 2c e1       	cvttsd2si %xmm1,%r12d
  408a67:	55                   	push   %rbp
  408a68:	53                   	push   %rbx
  408a69:	48 89 fb             	mov    %rdi,%rbx
  408a6c:	48 83 ec 10          	sub    $0x10,%rsp
  408a70:	48 8b 7f 50          	mov    0x50(%rdi),%rdi
  408a74:	f2 0f 11 44 24 08    	movsd  %xmm0,0x8(%rsp)
  408a7a:	e8 21 45 00 00       	callq  40cfa0 <_ZN23CircularArray2DSpectrumIdE25getCurrentSampleReadIndexEv>
  408a7f:	f2 0f 10 44 24 08    	movsd  0x8(%rsp),%xmm0
  408a85:	48 8b 7b 50          	mov    0x50(%rbx),%rdi
  408a89:	f2 0f 2c d0          	cvttsd2si %xmm0,%edx
  408a8d:	8d 6c 10 01          	lea    0x1(%rax,%rdx,1),%ebp
  408a91:	e8 8a 33 00 00       	callq  40be20 <_ZN15Array2DSpectrumIdE14getSampleCountEv>
  408a96:	39 c5                	cmp    %eax,%ebp
  408a98:	7c 0b                	jl     408aa5 <_ZNK15SpectrogramDataIdE5valueEdd+0x45>
  408a9a:	48 8b 7b 50          	mov    0x50(%rbx),%rdi
  408a9e:	e8 7d 33 00 00       	callq  40be20 <_ZN15Array2DSpectrumIdE14getSampleCountEv>
  408aa3:	29 c5                	sub    %eax,%ebp
  408aa5:	48 8b 7b 50          	mov    0x50(%rbx),%rdi
  408aa9:	e8 72 33 00 00       	callq  40be20 <_ZN15Array2DSpectrumIdE14getSampleCountEv>
  408aae:	48 8b 7b 50          	mov    0x50(%rbx),%rdi
  408ab2:	8d 50 ff             	lea    -0x1(%rax),%edx
  408ab5:	48 83 c4 10          	add    $0x10,%rsp
  408ab9:	5b                   	pop    %rbx
  408aba:	29 ea                	sub    %ebp,%edx
  408abc:	44 89 e6             	mov    %r12d,%esi
  408abf:	5d                   	pop    %rbp
  408ac0:	41 5c                	pop    %r12
  408ac2:	e9 69 34 00 00       	jmpq   40bf30 <_ZN15Array2DSpectrumIdE2atEii>
  408ac7:	66 0f 1f 84 00 00 00 	nopw   0x0(%rax,%rax,1)
  408ace:	00 00 

0000000000408ad0 <_ZN15SpectrogramDataIdED0Ev>:
  408ad0:	48 8d 05 49 c9 20 00 	lea    0x20c949(%rip),%rax        # 615420 <_ZTV15SpectrogramDataIdE>
  408ad7:	53                   	push   %rbx
  408ad8:	48 89 fb             	mov    %rdi,%rbx
  408adb:	48 83 c0 10          	add    $0x10,%rax
  408adf:	48 89 07             	mov    %rax,(%rdi)
  408ae2:	e8 99 ca ff ff       	callq  405580 <_ZN13QwtRasterDataD2Ev@plt>
  408ae7:	48 89 df             	mov    %rbx,%rdi
  408aea:	5b                   	pop    %rbx
  408aeb:	e9 30 c9 ff ff       	jmpq   405420 <_ZdlPv@plt>

0000000000408af0 <_ZN15SpectrogramDataIfED0Ev>:
  408af0:	48 8d 05 c9 c8 20 00 	lea    0x20c8c9(%rip),%rax        # 6153c0 <_ZTV15SpectrogramDataIfE>
  408af7:	53                   	push   %rbx
  408af8:	48 89 fb             	mov    %rdi,%rbx
  408afb:	48 83 c0 10          	add    $0x10,%rax
  408aff:	48 89 07             	mov    %rax,(%rdi)
  408b02:	e8 79 ca ff ff       	callq  405580 <_ZN13QwtRasterDataD2Ev@plt>
  408b07:	48 89 df             	mov    %rbx,%rdi
  408b0a:	5b                   	pop    %rbx
  408b0b:	e9 10 c9 ff ff       	jmpq   405420 <_ZdlPv@plt>

0000000000408b10 <_ZN15SpectrogramDataIiED0Ev>:
  408b10:	48 8d 05 49 c8 20 00 	lea    0x20c849(%rip),%rax        # 615360 <_ZTV15SpectrogramDataIiE>
  408b17:	53                   	push   %rbx
  408b18:	48 89 fb             	mov    %rdi,%rbx
  408b1b:	48 83 c0 10          	add    $0x10,%rax
  408b1f:	48 89 07             	mov    %rax,(%rdi)
  408b22:	e8 59 ca ff ff       	callq  405580 <_ZN13QwtRasterDataD2Ev@plt>
  408b27:	48 89 df             	mov    %rbx,%rdi
  408b2a:	5b                   	pop    %rbx
  408b2b:	e9 f0 c8 ff ff       	jmpq   405420 <_ZdlPv@plt>

0000000000408b30 <_ZN15SpectrogramDataIiEC1EP23CircularArray2DSpectrumIiEii>:
  408b30:	41 55                	push   %r13
  408b32:	41 89 d5             	mov    %edx,%r13d
  408b35:	41 54                	push   %r12
  408b37:	49 89 f4             	mov    %rsi,%r12
  408b3a:	55                   	push   %rbp
  408b3b:	89 cd                	mov    %ecx,%ebp
  408b3d:	83 ed 01             	sub    $0x1,%ebp
  408b40:	53                   	push   %rbx
  408b41:	48 89 fb             	mov    %rdi,%rbx
  408b44:	48 83 ec 28          	sub    $0x28,%rsp
  408b48:	e8 73 cf ff ff       	callq  405ac0 <_ZN13QwtRasterDataC2Ev@plt>
  408b4d:	f2 0f 2a c5          	cvtsi2sd %ebp,%xmm0
  408b51:	48 8d 05 08 c8 20 00 	lea    0x20c808(%rip),%rax        # 615360 <_ZTV15SpectrogramDataIiE>
  408b58:	48 89 e2             	mov    %rsp,%rdx
  408b5b:	31 f6                	xor    %esi,%esi
  408b5d:	48 89 df             	mov    %rbx,%rdi
  408b60:	48 c7 04 24 00 00 00 	movq   $0x0,(%rsp)
  408b67:	00 
  408b68:	c7 44 24 10 00 00 00 	movl   $0x0,0x10(%rsp)
  408b6f:	00 
  408b70:	48 83 c0 10          	add    $0x10,%rax
  408b74:	48 89 03             	mov    %rax,(%rbx)
  408b77:	f2 0f 11 44 24 08    	movsd  %xmm0,0x8(%rsp)
  408b7d:	e8 ce c5 ff ff       	callq  405150 <_ZN13QwtRasterData11setIntervalEN2Qt4AxisERK11QwtInterval@plt>
  408b82:	41 83 ed 01          	sub    $0x1,%r13d
  408b86:	48 89 e2             	mov    %rsp,%rdx
  408b89:	be 01 00 00 00       	mov    $0x1,%esi
  408b8e:	f2 41 0f 2a c5       	cvtsi2sd %r13d,%xmm0
  408b93:	48 89 df             	mov    %rbx,%rdi
  408b96:	48 c7 04 24 00 00 00 	movq   $0x0,(%rsp)
  408b9d:	00 
  408b9e:	c7 44 24 10 00 00 00 	movl   $0x0,0x10(%rsp)
  408ba5:	00 
  408ba6:	f2 0f 11 44 24 08    	movsd  %xmm0,0x8(%rsp)
  408bac:	e8 9f c5 ff ff       	callq  405150 <_ZN13QwtRasterData11setIntervalEN2Qt4AxisERK11QwtInterval@plt>
  408bb1:	f2 0f 10 0d cf 5f 00 	movsd  0x5fcf(%rip),%xmm1        # 40eb88 <_ZTS15SpectrogramDataIdE+0x18>
  408bb8:	00 
  408bb9:	48 89 e2             	mov    %rsp,%rdx
  408bbc:	be 02 00 00 00       	mov    $0x2,%esi
  408bc1:	48 89 df             	mov    %rbx,%rdi
  408bc4:	48 c7 04 24 00 00 00 	movq   $0x0,(%rsp)
  408bcb:	00 
  408bcc:	f2 0f 11 4c 24 08    	movsd  %xmm1,0x8(%rsp)
  408bd2:	c7 44 24 10 00 00 00 	movl   $0x0,0x10(%rsp)
  408bd9:	00 
  408bda:	e8 71 c5 ff ff       	callq  405150 <_ZN13QwtRasterData11setIntervalEN2Qt4AxisERK11QwtInterval@plt>
  408bdf:	4c 89 63 50          	mov    %r12,0x50(%rbx)
  408be3:	48 83 c4 28          	add    $0x28,%rsp
  408be7:	5b                   	pop    %rbx
  408be8:	5d                   	pop    %rbp
  408be9:	41 5c                	pop    %r12
  408beb:	41 5d                	pop    %r13
  408bed:	c3                   	retq   
  408bee:	48 89 c5             	mov    %rax,%rbp
  408bf1:	48 89 df             	mov    %rbx,%rdi
  408bf4:	e8 87 c9 ff ff       	callq  405580 <_ZN13QwtRasterDataD2Ev@plt>
  408bf9:	48 89 ef             	mov    %rbp,%rdi
  408bfc:	e8 1f c9 ff ff       	callq  405520 <_Unwind_Resume@plt>
  408c01:	66 2e 0f 1f 84 00 00 	nopw   %cs:0x0(%rax,%rax,1)
  408c08:	00 00 00 
  408c0b:	0f 1f 44 00 00       	nopl   0x0(%rax,%rax,1)

0000000000408c10 <_ZN15SpectrogramDataIiE7addDataEPi>:
  408c10:	53                   	push   %rbx
  408c11:	48 89 fb             	mov    %rdi,%rbx
  408c14:	48 8b 7f 50          	mov    0x50(%rdi),%rdi
  408c18:	e8 33 39 00 00       	callq  40c550 <_ZN23CircularArray2DSpectrumIiE10pushSampleEPi>
  408c1d:	48 8b 7b 50          	mov    0x50(%rbx),%rdi
  408c21:	e8 9a 3b 00 00       	callq  40c7c0 <_ZN23CircularArray2DSpectrumIiE14getRefillCountEv>
  408c26:	85 c0                	test   %eax,%eax
  408c28:	7e 0e                	jle    408c38 <_ZN15SpectrogramDataIiE7addDataEPi+0x28>
  408c2a:	48 8b 7b 50          	mov    0x50(%rbx),%rdi
  408c2e:	5b                   	pop    %rbx
  408c2f:	e9 fc 37 00 00       	jmpq   40c430 <_ZN23CircularArray2DSpectrumIiE18incrementReadIndexEv>
  408c34:	0f 1f 40 00          	nopl   0x0(%rax)
  408c38:	5b                   	pop    %rbx
  408c39:	c3                   	retq   
  408c3a:	66 0f 1f 44 00 00    	nopw   0x0(%rax,%rax,1)

0000000000408c40 <_ZN15SpectrogramDataIiE14addDataSectionEP15Array2DSpectrumIiE>:
  408c40:	41 54                	push   %r12
  408c42:	49 89 fc             	mov    %rdi,%r12
  408c45:	55                   	push   %rbp
  408c46:	48 89 f5             	mov    %rsi,%rbp
  408c49:	53                   	push   %rbx
  408c4a:	31 db                	xor    %ebx,%ebx
  408c4c:	eb 1a                	jmp    408c68 <_ZN15SpectrogramDataIiE14addDataSectionEP15Array2DSpectrumIiE+0x28>
  408c4e:	66 90                	xchg   %ax,%ax
  408c50:	89 de                	mov    %ebx,%esi
  408c52:	48 89 ef             	mov    %rbp,%rdi
  408c55:	83 c3 01             	add    $0x1,%ebx
  408c58:	e8 a3 26 00 00       	callq  40b300 <_ZN15Array2DSpectrumIiE20getChannelsForSampleEi>
  408c5d:	4c 89 e7             	mov    %r12,%rdi
  408c60:	48 89 c6             	mov    %rax,%rsi
  408c63:	e8 a8 ff ff ff       	callq  408c10 <_ZN15SpectrogramDataIiE7addDataEPi>
  408c68:	48 89 ef             	mov    %rbp,%rdi
  408c6b:	e8 80 25 00 00       	callq  40b1f0 <_ZN15Array2DSpectrumIiE14getSampleCountEv>
  408c70:	39 c3                	cmp    %eax,%ebx
  408c72:	7c dc                	jl     408c50 <_ZN15SpectrogramDataIiE14addDataSectionEP15Array2DSpectrumIiE+0x10>
  408c74:	5b                   	pop    %rbx
  408c75:	5d                   	pop    %rbp
  408c76:	41 5c                	pop    %r12
  408c78:	c3                   	retq   
  408c79:	0f 1f 80 00 00 00 00 	nopl   0x0(%rax)

0000000000408c80 <_ZN15SpectrogramDataIiE18fastAddDataSectionEP31CircularArray2DSpectrumThreadedIiEi>:
  408c80:	41 55                	push   %r13
  408c82:	49 89 fd             	mov    %rdi,%r13
  408c85:	41 54                	push   %r12
  408c87:	49 89 f4             	mov    %rsi,%r12
  408c8a:	55                   	push   %rbp
  408c8b:	89 d5                	mov    %edx,%ebp
  408c8d:	53                   	push   %rbx
  408c8e:	31 db                	xor    %ebx,%ebx
  408c90:	48 83 ec 08          	sub    $0x8,%rsp
  408c94:	85 d2                	test   %edx,%edx
  408c96:	7e 22                	jle    408cba <_ZN15SpectrogramDataIiE18fastAddDataSectionEP31CircularArray2DSpectrumThreadedIiEi+0x3a>
  408c98:	0f 1f 84 00 00 00 00 	nopl   0x0(%rax,%rax,1)
  408c9f:	00 
  408ca0:	4c 89 e7             	mov    %r12,%rdi
  408ca3:	83 c3 01             	add    $0x1,%ebx
  408ca6:	e8 e5 44 00 00       	callq  40d190 <_ZN31CircularArray2DSpectrumThreadedIiE10loadSampleEv>
  408cab:	4c 89 ef             	mov    %r13,%rdi
  408cae:	48 89 c6             	mov    %rax,%rsi
  408cb1:	e8 5a ff ff ff       	callq  408c10 <_ZN15SpectrogramDataIiE7addDataEPi>
  408cb6:	39 eb                	cmp    %ebp,%ebx
  408cb8:	75 e6                	jne    408ca0 <_ZN15SpectrogramDataIiE18fastAddDataSectionEP31CircularArray2DSpectrumThreadedIiEi+0x20>
  408cba:	48 83 c4 08          	add    $0x8,%rsp
  408cbe:	5b                   	pop    %rbx
  408cbf:	5d                   	pop    %rbp
  408cc0:	41 5c                	pop    %r12
  408cc2:	41 5d                	pop    %r13
  408cc4:	c3                   	retq   
  408cc5:	66 2e 0f 1f 84 00 00 	nopw   %cs:0x0(%rax,%rax,1)
  408ccc:	00 00 00 
  408ccf:	90                   	nop

0000000000408cd0 <_ZN15SpectrogramDataIiE24fastAddDataSectionMemCpyEP31CircularArray2DSpectrumThreadedIiEi>:
  408cd0:	48 89 f0             	mov    %rsi,%rax
  408cd3:	48 8b 77 50          	mov    0x50(%rdi),%rsi
  408cd7:	48 89 c7             	mov    %rax,%rdi
  408cda:	e9 61 45 00 00       	jmpq   40d240 <_ZN31CircularArray2DSpectrumThreadedIiE19fastPopBlockSamplesEP23CircularArray2DSpectrumIiEi>
  408cdf:	90                   	nop

0000000000408ce0 <_ZN15SpectrogramDataIiE9resetDataEv>:
  408ce0:	41 54                	push   %r12
  408ce2:	45 31 e4             	xor    %r12d,%r12d
  408ce5:	55                   	push   %rbp
  408ce6:	48 89 fd             	mov    %rdi,%rbp
  408ce9:	53                   	push   %rbx
  408cea:	48 8b 7d 50          	mov    0x50(%rbp),%rdi
  408cee:	e8 fd 24 00 00       	callq  40b1f0 <_ZN15Array2DSpectrumIiE14getSampleCountEv>
  408cf3:	41 39 c4             	cmp    %eax,%r12d
  408cf6:	7d 42                	jge    408d3a <_ZN15SpectrogramDataIiE9resetDataEv+0x5a>
  408cf8:	0f 1f 84 00 00 00 00 	nopl   0x0(%rax,%rax,1)
  408cff:	00 
  408d00:	31 db                	xor    %ebx,%ebx
  408d02:	eb 17                	jmp    408d1b <_ZN15SpectrogramDataIiE9resetDataEv+0x3b>
  408d04:	0f 1f 40 00          	nopl   0x0(%rax)
  408d08:	48 8b 7d 50          	mov    0x50(%rbp),%rdi
  408d0c:	89 de                	mov    %ebx,%esi
  408d0e:	31 c9                	xor    %ecx,%ecx
  408d10:	44 89 e2             	mov    %r12d,%edx
  408d13:	83 c3 01             	add    $0x1,%ebx
  408d16:	e8 95 27 00 00       	callq  40b4b0 <_ZN15Array2DSpectrumIiE3setEiii>
  408d1b:	48 8b 7d 50          	mov    0x50(%rbp),%rdi
  408d1f:	e8 bc 24 00 00       	callq  40b1e0 <_ZN15Array2DSpectrumIiE15getChannelCountEv>
  408d24:	39 c3                	cmp    %eax,%ebx
  408d26:	7c e0                	jl     408d08 <_ZN15SpectrogramDataIiE9resetDataEv+0x28>
  408d28:	48 8b 7d 50          	mov    0x50(%rbp),%rdi
  408d2c:	41 83 c4 01          	add    $0x1,%r12d
  408d30:	e8 bb 24 00 00       	callq  40b1f0 <_ZN15Array2DSpectrumIiE14getSampleCountEv>
  408d35:	41 39 c4             	cmp    %eax,%r12d
  408d38:	7c c6                	jl     408d00 <_ZN15SpectrogramDataIiE9resetDataEv+0x20>
  408d3a:	5b                   	pop    %rbx
  408d3b:	5d                   	pop    %rbp
  408d3c:	41 5c                	pop    %r12
  408d3e:	c3                   	retq   
  408d3f:	90                   	nop

0000000000408d40 <_ZN15SpectrogramDataIfEC1EP23CircularArray2DSpectrumIfEii>:
  408d40:	41 55                	push   %r13
  408d42:	41 89 d5             	mov    %edx,%r13d
  408d45:	41 54                	push   %r12
  408d47:	49 89 f4             	mov    %rsi,%r12
  408d4a:	55                   	push   %rbp
  408d4b:	89 cd                	mov    %ecx,%ebp
  408d4d:	83 ed 01             	sub    $0x1,%ebp
  408d50:	53                   	push   %rbx
  408d51:	48 89 fb             	mov    %rdi,%rbx
  408d54:	48 83 ec 28          	sub    $0x28,%rsp
  408d58:	e8 63 cd ff ff       	callq  405ac0 <_ZN13QwtRasterDataC2Ev@plt>
  408d5d:	f2 0f 2a c5          	cvtsi2sd %ebp,%xmm0
  408d61:	48 8d 05 58 c6 20 00 	lea    0x20c658(%rip),%rax        # 6153c0 <_ZTV15SpectrogramDataIfE>
  408d68:	48 89 e2             	mov    %rsp,%rdx
  408d6b:	31 f6                	xor    %esi,%esi
  408d6d:	48 89 df             	mov    %rbx,%rdi
  408d70:	48 c7 04 24 00 00 00 	movq   $0x0,(%rsp)
  408d77:	00 
  408d78:	c7 44 24 10 00 00 00 	movl   $0x0,0x10(%rsp)
  408d7f:	00 
  408d80:	48 83 c0 10          	add    $0x10,%rax
  408d84:	48 89 03             	mov    %rax,(%rbx)
  408d87:	f2 0f 11 44 24 08    	movsd  %xmm0,0x8(%rsp)
  408d8d:	e8 be c3 ff ff       	callq  405150 <_ZN13QwtRasterData11setIntervalEN2Qt4AxisERK11QwtInterval@plt>
  408d92:	41 83 ed 01          	sub    $0x1,%r13d
  408d96:	48 89 e2             	mov    %rsp,%rdx
  408d99:	be 01 00 00 00       	mov    $0x1,%esi
  408d9e:	f2 41 0f 2a c5       	cvtsi2sd %r13d,%xmm0
  408da3:	48 89 df             	mov    %rbx,%rdi
  408da6:	48 c7 04 24 00 00 00 	movq   $0x0,(%rsp)
  408dad:	00 
  408dae:	c7 44 24 10 00 00 00 	movl   $0x0,0x10(%rsp)
  408db5:	00 
  408db6:	f2 0f 11 44 24 08    	movsd  %xmm0,0x8(%rsp)
  408dbc:	e8 8f c3 ff ff       	callq  405150 <_ZN13QwtRasterData11setIntervalEN2Qt4AxisERK11QwtInterval@plt>
  408dc1:	f2 0f 10 0d bf 5d 00 	movsd  0x5dbf(%rip),%xmm1        # 40eb88 <_ZTS15SpectrogramDataIdE+0x18>
  408dc8:	00 
  408dc9:	48 89 e2             	mov    %rsp,%rdx
  408dcc:	be 02 00 00 00       	mov    $0x2,%esi
  408dd1:	48 89 df             	mov    %rbx,%rdi
  408dd4:	48 c7 04 24 00 00 00 	movq   $0x0,(%rsp)
  408ddb:	00 
  408ddc:	f2 0f 11 4c 24 08    	movsd  %xmm1,0x8(%rsp)
  408de2:	c7 44 24 10 00 00 00 	movl   $0x0,0x10(%rsp)
  408de9:	00 
  408dea:	e8 61 c3 ff ff       	callq  405150 <_ZN13QwtRasterData11setIntervalEN2Qt4AxisERK11QwtInterval@plt>
  408def:	4c 89 63 50          	mov    %r12,0x50(%rbx)
  408df3:	48 83 c4 28          	add    $0x28,%rsp
  408df7:	5b                   	pop    %rbx
  408df8:	5d                   	pop    %rbp
  408df9:	41 5c                	pop    %r12
  408dfb:	41 5d                	pop    %r13
  408dfd:	c3                   	retq   
  408dfe:	48 89 c5             	mov    %rax,%rbp
  408e01:	48 89 df             	mov    %rbx,%rdi
  408e04:	e8 77 c7 ff ff       	callq  405580 <_ZN13QwtRasterDataD2Ev@plt>
  408e09:	48 89 ef             	mov    %rbp,%rdi
  408e0c:	e8 0f c7 ff ff       	callq  405520 <_Unwind_Resume@plt>
  408e11:	66 2e 0f 1f 84 00 00 	nopw   %cs:0x0(%rax,%rax,1)
  408e18:	00 00 00 
  408e1b:	0f 1f 44 00 00       	nopl   0x0(%rax,%rax,1)

0000000000408e20 <_ZN15SpectrogramDataIfE7addDataEPf>:
  408e20:	53                   	push   %rbx
  408e21:	48 89 fb             	mov    %rdi,%rbx
  408e24:	48 8b 7f 50          	mov    0x50(%rdi),%rdi
  408e28:	e8 b3 3b 00 00       	callq  40c9e0 <_ZN23CircularArray2DSpectrumIfE10pushSampleEPf>
  408e2d:	48 8b 7b 50          	mov    0x50(%rbx),%rdi
  408e31:	e8 1a 3e 00 00       	callq  40cc50 <_ZN23CircularArray2DSpectrumIfE14getRefillCountEv>
  408e36:	85 c0                	test   %eax,%eax
  408e38:	7e 0e                	jle    408e48 <_ZN15SpectrogramDataIfE7addDataEPf+0x28>
  408e3a:	48 8b 7b 50          	mov    0x50(%rbx),%rdi
  408e3e:	5b                   	pop    %rbx
  408e3f:	e9 7c 3a 00 00       	jmpq   40c8c0 <_ZN23CircularArray2DSpectrumIfE18incrementReadIndexEv>
  408e44:	0f 1f 40 00          	nopl   0x0(%rax)
  408e48:	5b                   	pop    %rbx
  408e49:	c3                   	retq   
  408e4a:	66 0f 1f 44 00 00    	nopw   0x0(%rax,%rax,1)

0000000000408e50 <_ZN15SpectrogramDataIfE14addDataSectionEP15Array2DSpectrumIfE>:
  408e50:	41 54                	push   %r12
  408e52:	49 89 fc             	mov    %rdi,%r12
  408e55:	55                   	push   %rbp
  408e56:	48 89 f5             	mov    %rsi,%rbp
  408e59:	53                   	push   %rbx
  408e5a:	31 db                	xor    %ebx,%ebx
  408e5c:	eb 1a                	jmp    408e78 <_ZN15SpectrogramDataIfE14addDataSectionEP15Array2DSpectrumIfE+0x28>
  408e5e:	66 90                	xchg   %ax,%ax
  408e60:	89 de                	mov    %ebx,%esi
  408e62:	48 89 ef             	mov    %rbp,%rdi
  408e65:	83 c3 01             	add    $0x1,%ebx
  408e68:	e8 b3 2a 00 00       	callq  40b920 <_ZN15Array2DSpectrumIfE20getChannelsForSampleEi>
  408e6d:	4c 89 e7             	mov    %r12,%rdi
  408e70:	48 89 c6             	mov    %rax,%rsi
  408e73:	e8 a8 ff ff ff       	callq  408e20 <_ZN15SpectrogramDataIfE7addDataEPf>
  408e78:	48 89 ef             	mov    %rbp,%rdi
  408e7b:	e8 70 29 00 00       	callq  40b7f0 <_ZN15Array2DSpectrumIfE14getSampleCountEv>
  408e80:	39 c3                	cmp    %eax,%ebx
  408e82:	7c dc                	jl     408e60 <_ZN15SpectrogramDataIfE14addDataSectionEP15Array2DSpectrumIfE+0x10>
  408e84:	5b                   	pop    %rbx
  408e85:	5d                   	pop    %rbp
  408e86:	41 5c                	pop    %r12
  408e88:	c3                   	retq   
  408e89:	0f 1f 80 00 00 00 00 	nopl   0x0(%rax)

0000000000408e90 <_ZN15SpectrogramDataIfE18fastAddDataSectionEP31CircularArray2DSpectrumThreadedIfEi>:
  408e90:	41 55                	push   %r13
  408e92:	49 89 fd             	mov    %rdi,%r13
  408e95:	41 54                	push   %r12
  408e97:	49 89 f4             	mov    %rsi,%r12
  408e9a:	55                   	push   %rbp
  408e9b:	89 d5                	mov    %edx,%ebp
  408e9d:	53                   	push   %rbx
  408e9e:	31 db                	xor    %ebx,%ebx
  408ea0:	48 83 ec 08          	sub    $0x8,%rsp
  408ea4:	85 d2                	test   %edx,%edx
  408ea6:	7e 22                	jle    408eca <_ZN15SpectrogramDataIfE18fastAddDataSectionEP31CircularArray2DSpectrumThreadedIfEi+0x3a>
  408ea8:	0f 1f 84 00 00 00 00 	nopl   0x0(%rax,%rax,1)
  408eaf:	00 
  408eb0:	4c 89 e7             	mov    %r12,%rdi
  408eb3:	83 c3 01             	add    $0x1,%ebx
  408eb6:	e8 e5 44 00 00       	callq  40d3a0 <_ZN31CircularArray2DSpectrumThreadedIfE10loadSampleEv>
  408ebb:	4c 89 ef             	mov    %r13,%rdi
  408ebe:	48 89 c6             	mov    %rax,%rsi
  408ec1:	e8 5a ff ff ff       	callq  408e20 <_ZN15SpectrogramDataIfE7addDataEPf>
  408ec6:	39 eb                	cmp    %ebp,%ebx
  408ec8:	75 e6                	jne    408eb0 <_ZN15SpectrogramDataIfE18fastAddDataSectionEP31CircularArray2DSpectrumThreadedIfEi+0x20>
  408eca:	48 83 c4 08          	add    $0x8,%rsp
  408ece:	5b                   	pop    %rbx
  408ecf:	5d                   	pop    %rbp
  408ed0:	41 5c                	pop    %r12
  408ed2:	41 5d                	pop    %r13
  408ed4:	c3                   	retq   
  408ed5:	66 2e 0f 1f 84 00 00 	nopw   %cs:0x0(%rax,%rax,1)
  408edc:	00 00 00 
  408edf:	90                   	nop

0000000000408ee0 <_ZN15SpectrogramDataIfE24fastAddDataSectionMemCpyEP31CircularArray2DSpectrumThreadedIfEi>:
  408ee0:	48 89 f0             	mov    %rsi,%rax
  408ee3:	48 8b 77 50          	mov    0x50(%rdi),%rsi
  408ee7:	48 89 c7             	mov    %rax,%rdi
  408eea:	e9 61 45 00 00       	jmpq   40d450 <_ZN31CircularArray2DSpectrumThreadedIfE19fastPopBlockSamplesEP23CircularArray2DSpectrumIfEi>
  408eef:	90                   	nop

0000000000408ef0 <_ZN15SpectrogramDataIfE9resetDataEv>:
  408ef0:	41 54                	push   %r12
  408ef2:	45 31 e4             	xor    %r12d,%r12d
  408ef5:	55                   	push   %rbp
  408ef6:	48 89 fd             	mov    %rdi,%rbp
  408ef9:	53                   	push   %rbx
  408efa:	48 8b 7d 50          	mov    0x50(%rbp),%rdi
  408efe:	e8 ed 28 00 00       	callq  40b7f0 <_ZN15Array2DSpectrumIfE14getSampleCountEv>
  408f03:	41 39 c4             	cmp    %eax,%r12d
  408f06:	7d 43                	jge    408f4b <_ZN15SpectrogramDataIfE9resetDataEv+0x5b>
  408f08:	0f 1f 84 00 00 00 00 	nopl   0x0(%rax,%rax,1)
  408f0f:	00 
  408f10:	31 db                	xor    %ebx,%ebx
  408f12:	eb 18                	jmp    408f2c <_ZN15SpectrogramDataIfE9resetDataEv+0x3c>
  408f14:	0f 1f 40 00          	nopl   0x0(%rax)
  408f18:	48 8b 7d 50          	mov    0x50(%rbp),%rdi
  408f1c:	0f 57 c0             	xorps  %xmm0,%xmm0
  408f1f:	89 de                	mov    %ebx,%esi
  408f21:	44 89 e2             	mov    %r12d,%edx
  408f24:	83 c3 01             	add    $0x1,%ebx
  408f27:	e8 a4 2b 00 00       	callq  40bad0 <_ZN15Array2DSpectrumIfE3setEiif>
  408f2c:	48 8b 7d 50          	mov    0x50(%rbp),%rdi
  408f30:	e8 ab 28 00 00       	callq  40b7e0 <_ZN15Array2DSpectrumIfE15getChannelCountEv>
  408f35:	39 c3                	cmp    %eax,%ebx
  408f37:	7c df                	jl     408f18 <_ZN15SpectrogramDataIfE9resetDataEv+0x28>
  408f39:	48 8b 7d 50          	mov    0x50(%rbp),%rdi
  408f3d:	41 83 c4 01          	add    $0x1,%r12d
  408f41:	e8 aa 28 00 00       	callq  40b7f0 <_ZN15Array2DSpectrumIfE14getSampleCountEv>
  408f46:	41 39 c4             	cmp    %eax,%r12d
  408f49:	7c c5                	jl     408f10 <_ZN15SpectrogramDataIfE9resetDataEv+0x20>
  408f4b:	5b                   	pop    %rbx
  408f4c:	5d                   	pop    %rbp
  408f4d:	41 5c                	pop    %r12
  408f4f:	c3                   	retq   

0000000000408f50 <_ZN15SpectrogramDataIdEC1EP23CircularArray2DSpectrumIdEii>:
  408f50:	41 55                	push   %r13
  408f52:	41 89 d5             	mov    %edx,%r13d
  408f55:	41 54                	push   %r12
  408f57:	49 89 f4             	mov    %rsi,%r12
  408f5a:	55                   	push   %rbp
  408f5b:	89 cd                	mov    %ecx,%ebp
  408f5d:	83 ed 01             	sub    $0x1,%ebp
  408f60:	53                   	push   %rbx
  408f61:	48 89 fb             	mov    %rdi,%rbx
  408f64:	48 83 ec 28          	sub    $0x28,%rsp
  408f68:	e8 53 cb ff ff       	callq  405ac0 <_ZN13QwtRasterDataC2Ev@plt>
  408f6d:	f2 0f 2a c5          	cvtsi2sd %ebp,%xmm0
  408f71:	48 8d 05 a8 c4 20 00 	lea    0x20c4a8(%rip),%rax        # 615420 <_ZTV15SpectrogramDataIdE>
  408f78:	48 89 e2             	mov    %rsp,%rdx
  408f7b:	31 f6                	xor    %esi,%esi
  408f7d:	48 89 df             	mov    %rbx,%rdi
  408f80:	48 c7 04 24 00 00 00 	movq   $0x0,(%rsp)
  408f87:	00 
  408f88:	c7 44 24 10 00 00 00 	movl   $0x0,0x10(%rsp)
  408f8f:	00 
  408f90:	48 83 c0 10          	add    $0x10,%rax
  408f94:	48 89 03             	mov    %rax,(%rbx)
  408f97:	f2 0f 11 44 24 08    	movsd  %xmm0,0x8(%rsp)
  408f9d:	e8 ae c1 ff ff       	callq  405150 <_ZN13QwtRasterData11setIntervalEN2Qt4AxisERK11QwtInterval@plt>
  408fa2:	41 83 ed 01          	sub    $0x1,%r13d
  408fa6:	48 89 e2             	mov    %rsp,%rdx
  408fa9:	be 01 00 00 00       	mov    $0x1,%esi
  408fae:	f2 41 0f 2a c5       	cvtsi2sd %r13d,%xmm0
  408fb3:	48 89 df             	mov    %rbx,%rdi
  408fb6:	48 c7 04 24 00 00 00 	movq   $0x0,(%rsp)
  408fbd:	00 
  408fbe:	c7 44 24 10 00 00 00 	movl   $0x0,0x10(%rsp)
  408fc5:	00 
  408fc6:	f2 0f 11 44 24 08    	movsd  %xmm0,0x8(%rsp)
  408fcc:	e8 7f c1 ff ff       	callq  405150 <_ZN13QwtRasterData11setIntervalEN2Qt4AxisERK11QwtInterval@plt>
  408fd1:	f2 0f 10 0d af 5b 00 	movsd  0x5baf(%rip),%xmm1        # 40eb88 <_ZTS15SpectrogramDataIdE+0x18>
  408fd8:	00 
  408fd9:	48 89 e2             	mov    %rsp,%rdx
  408fdc:	be 02 00 00 00       	mov    $0x2,%esi
  408fe1:	48 89 df             	mov    %rbx,%rdi
  408fe4:	48 c7 04 24 00 00 00 	movq   $0x0,(%rsp)
  408feb:	00 
  408fec:	f2 0f 11 4c 24 08    	movsd  %xmm1,0x8(%rsp)
  408ff2:	c7 44 24 10 00 00 00 	movl   $0x0,0x10(%rsp)
  408ff9:	00 
  408ffa:	e8 51 c1 ff ff       	callq  405150 <_ZN13QwtRasterData11setIntervalEN2Qt4AxisERK11QwtInterval@plt>
  408fff:	4c 89 63 50          	mov    %r12,0x50(%rbx)
  409003:	48 83 c4 28          	add    $0x28,%rsp
  409007:	5b                   	pop    %rbx
  409008:	5d                   	pop    %rbp
  409009:	41 5c                	pop    %r12
  40900b:	41 5d                	pop    %r13
  40900d:	c3                   	retq   
  40900e:	48 89 c5             	mov    %rax,%rbp
  409011:	48 89 df             	mov    %rbx,%rdi
  409014:	e8 67 c5 ff ff       	callq  405580 <_ZN13QwtRasterDataD2Ev@plt>
  409019:	48 89 ef             	mov    %rbp,%rdi
  40901c:	e8 ff c4 ff ff       	callq  405520 <_Unwind_Resume@plt>
  409021:	66 2e 0f 1f 84 00 00 	nopw   %cs:0x0(%rax,%rax,1)
  409028:	00 00 00 
  40902b:	0f 1f 44 00 00       	nopl   0x0(%rax,%rax,1)

0000000000409030 <_ZN15SpectrogramDataIdE7addDataEPd>:
  409030:	53                   	push   %rbx
  409031:	48 89 fb             	mov    %rdi,%rbx
  409034:	48 8b 7f 50          	mov    0x50(%rdi),%rdi
  409038:	e8 33 3e 00 00       	callq  40ce70 <_ZN23CircularArray2DSpectrumIdE10pushSampleEPd>
  40903d:	48 8b 7b 50          	mov    0x50(%rbx),%rdi
  409041:	e8 9a 40 00 00       	callq  40d0e0 <_ZN23CircularArray2DSpectrumIdE14getRefillCountEv>
  409046:	85 c0                	test   %eax,%eax
  409048:	7e 0e                	jle    409058 <_ZN15SpectrogramDataIdE7addDataEPd+0x28>
  40904a:	48 8b 7b 50          	mov    0x50(%rbx),%rdi
  40904e:	5b                   	pop    %rbx
  40904f:	e9 fc 3c 00 00       	jmpq   40cd50 <_ZN23CircularArray2DSpectrumIdE18incrementReadIndexEv>
  409054:	0f 1f 40 00          	nopl   0x0(%rax)
  409058:	5b                   	pop    %rbx
  409059:	c3                   	retq   
  40905a:	66 0f 1f 44 00 00    	nopw   0x0(%rax,%rax,1)

0000000000409060 <_ZN15SpectrogramDataIdE14addDataSectionEP15Array2DSpectrumIdE>:
  409060:	41 54                	push   %r12
  409062:	49 89 fc             	mov    %rdi,%r12
  409065:	55                   	push   %rbp
  409066:	48 89 f5             	mov    %rsi,%rbp
  409069:	53                   	push   %rbx
  40906a:	31 db                	xor    %ebx,%ebx
  40906c:	eb 1a                	jmp    409088 <_ZN15SpectrogramDataIdE14addDataSectionEP15Array2DSpectrumIdE+0x28>
  40906e:	66 90                	xchg   %ax,%ax
  409070:	89 de                	mov    %ebx,%esi
  409072:	48 89 ef             	mov    %rbp,%rdi
  409075:	83 c3 01             	add    $0x1,%ebx
  409078:	e8 d3 2e 00 00       	callq  40bf50 <_ZN15Array2DSpectrumIdE20getChannelsForSampleEi>
  40907d:	4c 89 e7             	mov    %r12,%rdi
  409080:	48 89 c6             	mov    %rax,%rsi
  409083:	e8 a8 ff ff ff       	callq  409030 <_ZN15SpectrogramDataIdE7addDataEPd>
  409088:	48 89 ef             	mov    %rbp,%rdi
  40908b:	e8 90 2d 00 00       	callq  40be20 <_ZN15Array2DSpectrumIdE14getSampleCountEv>
  409090:	39 c3                	cmp    %eax,%ebx
  409092:	7c dc                	jl     409070 <_ZN15SpectrogramDataIdE14addDataSectionEP15Array2DSpectrumIdE+0x10>
  409094:	5b                   	pop    %rbx
  409095:	5d                   	pop    %rbp
  409096:	41 5c                	pop    %r12
  409098:	c3                   	retq   
  409099:	0f 1f 80 00 00 00 00 	nopl   0x0(%rax)

00000000004090a0 <_ZN15SpectrogramDataIdE18fastAddDataSectionEP31CircularArray2DSpectrumThreadedIdEi>:
  4090a0:	41 55                	push   %r13
  4090a2:	49 89 fd             	mov    %rdi,%r13
  4090a5:	41 54                	push   %r12
  4090a7:	49 89 f4             	mov    %rsi,%r12
  4090aa:	55                   	push   %rbp
  4090ab:	89 d5                	mov    %edx,%ebp
  4090ad:	53                   	push   %rbx
  4090ae:	31 db                	xor    %ebx,%ebx
  4090b0:	48 83 ec 08          	sub    $0x8,%rsp
  4090b4:	85 d2                	test   %edx,%edx
  4090b6:	7e 22                	jle    4090da <_ZN15SpectrogramDataIdE18fastAddDataSectionEP31CircularArray2DSpectrumThreadedIdEi+0x3a>
  4090b8:	0f 1f 84 00 00 00 00 	nopl   0x0(%rax,%rax,1)
  4090bf:	00 
  4090c0:	4c 89 e7             	mov    %r12,%rdi
  4090c3:	83 c3 01             	add    $0x1,%ebx
  4090c6:	e8 e5 44 00 00       	callq  40d5b0 <_ZN31CircularArray2DSpectrumThreadedIdE10loadSampleEv>
  4090cb:	4c 89 ef             	mov    %r13,%rdi
  4090ce:	48 89 c6             	mov    %rax,%rsi
  4090d1:	e8 5a ff ff ff       	callq  409030 <_ZN15SpectrogramDataIdE7addDataEPd>
  4090d6:	39 eb                	cmp    %ebp,%ebx
  4090d8:	75 e6                	jne    4090c0 <_ZN15SpectrogramDataIdE18fastAddDataSectionEP31CircularArray2DSpectrumThreadedIdEi+0x20>
  4090da:	48 83 c4 08          	add    $0x8,%rsp
  4090de:	5b                   	pop    %rbx
  4090df:	5d                   	pop    %rbp
  4090e0:	41 5c                	pop    %r12
  4090e2:	41 5d                	pop    %r13
  4090e4:	c3                   	retq   
  4090e5:	66 2e 0f 1f 84 00 00 	nopw   %cs:0x0(%rax,%rax,1)
  4090ec:	00 00 00 
  4090ef:	90                   	nop

00000000004090f0 <_ZN15SpectrogramDataIdE24fastAddDataSectionMemCpyEP31CircularArray2DSpectrumThreadedIdEi>:
  4090f0:	48 89 f0             	mov    %rsi,%rax
  4090f3:	48 8b 77 50          	mov    0x50(%rdi),%rsi
  4090f7:	48 89 c7             	mov    %rax,%rdi
  4090fa:	e9 61 45 00 00       	jmpq   40d660 <_ZN31CircularArray2DSpectrumThreadedIdE19fastPopBlockSamplesEP23CircularArray2DSpectrumIdEi>
  4090ff:	90                   	nop

0000000000409100 <_ZN15SpectrogramDataIdE9resetDataEv>:
  409100:	41 54                	push   %r12
  409102:	45 31 e4             	xor    %r12d,%r12d
  409105:	55                   	push   %rbp
  409106:	48 89 fd             	mov    %rdi,%rbp
  409109:	53                   	push   %rbx
  40910a:	48 8b 7d 50          	mov    0x50(%rbp),%rdi
  40910e:	e8 0d 2d 00 00       	callq  40be20 <_ZN15Array2DSpectrumIdE14getSampleCountEv>
  409113:	41 39 c4             	cmp    %eax,%r12d
  409116:	7d 44                	jge    40915c <_ZN15SpectrogramDataIdE9resetDataEv+0x5c>
  409118:	0f 1f 84 00 00 00 00 	nopl   0x0(%rax,%rax,1)
  40911f:	00 
  409120:	31 db                	xor    %ebx,%ebx
  409122:	eb 19                	jmp    40913d <_ZN15SpectrogramDataIdE9resetDataEv+0x3d>
  409124:	0f 1f 40 00          	nopl   0x0(%rax)
  409128:	48 8b 7d 50          	mov    0x50(%rbp),%rdi
  40912c:	66 0f 57 c0          	xorpd  %xmm0,%xmm0
  409130:	89 de                	mov    %ebx,%esi
  409132:	44 89 e2             	mov    %r12d,%edx
  409135:	83 c3 01             	add    $0x1,%ebx
  409138:	e8 c3 2f 00 00       	callq  40c100 <_ZN15Array2DSpectrumIdE3setEiid>
  40913d:	48 8b 7d 50          	mov    0x50(%rbp),%rdi
  409141:	e8 ca 2c 00 00       	callq  40be10 <_ZN15Array2DSpectrumIdE15getChannelCountEv>
  409146:	39 c3                	cmp    %eax,%ebx
  409148:	7c de                	jl     409128 <_ZN15SpectrogramDataIdE9resetDataEv+0x28>
  40914a:	48 8b 7d 50          	mov    0x50(%rbp),%rdi
  40914e:	41 83 c4 01          	add    $0x1,%r12d
  409152:	e8 c9 2c 00 00       	callq  40be20 <_ZN15Array2DSpectrumIdE14getSampleCountEv>
  409157:	41 39 c4             	cmp    %eax,%r12d
  40915a:	7c c4                	jl     409120 <_ZN15SpectrogramDataIdE9resetDataEv+0x20>
  40915c:	5b                   	pop    %rbx
  40915d:	5d                   	pop    %rbp
  40915e:	41 5c                	pop    %r12
  409160:	c3                   	retq   
  409161:	66 2e 0f 1f 84 00 00 	nopw   %cs:0x0(%rax,%rax,1)
  409168:	00 00 00 
  40916b:	0f 1f 44 00 00       	nopl   0x0(%rax,%rax,1)

0000000000409170 <_ZN15SpectrogramPlotC1EP7QWidget>:
  409170:	41 55                	push   %r13
  409172:	41 54                	push   %r12
  409174:	55                   	push   %rbp
  409175:	53                   	push   %rbx
  409176:	48 89 fb             	mov    %rdi,%rbx
  409179:	48 83 ec 18          	sub    $0x18,%rsp
  40917d:	e8 1e c4 ff ff       	callq  4055a0 <_ZN7QwtPlotC2EP7QWidget@plt>
  409182:	48 8d 05 f7 c5 20 00 	lea    0x20c5f7(%rip),%rax        # 615780 <_ZTV15SpectrogramPlot>
  409189:	bf 20 00 00 00       	mov    $0x20,%edi
  40918e:	48 8d 50 10          	lea    0x10(%rax),%rdx
  409192:	48 89 13             	mov    %rdx,(%rbx)
  409195:	48 8d 90 00 02 00 00 	lea    0x200(%rax),%rdx
  40919c:	48 05 50 02 00 00    	add    $0x250,%rax
  4091a2:	48 89 43 30          	mov    %rax,0x30(%rbx)
  4091a6:	48 89 53 10          	mov    %rdx,0x10(%rbx)
  4091aa:	e8 b1 be ff ff       	callq  405060 <_Znwm@plt>
  4091af:	be 02 00 00 00       	mov    $0x2,%esi
  4091b4:	48 89 c7             	mov    %rax,%rdi
  4091b7:	49 89 c4             	mov    %rax,%r12
  4091ba:	e8 61 07 00 00       	callq  409920 <_ZN14CustomColorMapC1ENS_8colormapE>
  4091bf:	48 8b 05 1a ce 20 00 	mov    0x20ce1a(%rip),%rax        # 615fe0 <_DYNAMIC+0x250>
  4091c6:	bf 20 00 00 00       	mov    $0x20,%edi
  4091cb:	48 89 04 24          	mov    %rax,(%rsp)
  4091cf:	e8 8c be ff ff       	callq  405060 <_Znwm@plt>
  4091d4:	48 89 e6             	mov    %rsp,%rsi
  4091d7:	48 89 c7             	mov    %rax,%rdi
  4091da:	48 89 c5             	mov    %rax,%rbp
  4091dd:	49 89 e5             	mov    %rsp,%r13
  4091e0:	e8 ab c2 ff ff       	callq  405490 <_ZN18QwtPlotSpectrogramC1ERK7QString@plt>
  4091e5:	48 8b 3c 24          	mov    (%rsp),%rdi
  4091e9:	48 89 6b 68          	mov    %rbp,0x68(%rbx)
  4091ed:	8b 07                	mov    (%rdi),%eax
  4091ef:	85 c0                	test   %eax,%eax
  4091f1:	75 65                	jne    409258 <_ZN15SpectrogramPlotC1EP7QWidget+0xe8>
  4091f3:	ba 08 00 00 00       	mov    $0x8,%edx
  4091f8:	be 02 00 00 00       	mov    $0x2,%esi
  4091fd:	e8 4e c7 ff ff       	callq  405950 <_ZN10QArrayData10deallocateEPS_mm@plt>
  409202:	48 8b 7b 68          	mov    0x68(%rbx),%rdi
  409206:	be 01 00 00 00       	mov    $0x1,%esi
  40920b:	e8 d0 c7 ff ff       	callq  4059e0 <_ZN11QwtPlotItem20setRenderThreadCountEj@plt>
  409210:	48 8b 7b 68          	mov    0x68(%rbx),%rdi
  409214:	4c 89 e6             	mov    %r12,%rsi
  409217:	e8 74 c3 ff ff       	callq  405590 <_ZN18QwtPlotSpectrogram11setColorMapEP11QwtColorMap@plt>
  40921c:	48 8b 7b 68          	mov    0x68(%rbx),%rdi
  409220:	48 89 de             	mov    %rbx,%rsi
  409223:	e8 88 c5 ff ff       	callq  4057b0 <_ZN11QwtPlotItem6attachEP7QwtPlot@plt>
  409228:	c6 43 70 01          	movb   $0x1,0x70(%rbx)
  40922c:	48 89 df             	mov    %rbx,%rdi
  40922f:	e8 ec c3 ff ff       	callq  405620 <_ZN7QwtPlot10plotLayoutEv@plt>
  409234:	be 01 00 00 00       	mov    $0x1,%esi
  409239:	48 89 c7             	mov    %rax,%rdi
  40923c:	e8 cf c5 ff ff       	callq  405810 <_ZN13QwtPlotLayout22setAlignCanvasToScalesEb@plt>
  409241:	48 89 df             	mov    %rbx,%rdi
  409244:	e8 d7 c4 ff ff       	callq  405720 <_ZN7QwtPlot6replotEv@plt>
  409249:	48 83 c4 18          	add    $0x18,%rsp
  40924d:	5b                   	pop    %rbx
  40924e:	5d                   	pop    %rbp
  40924f:	41 5c                	pop    %r12
  409251:	41 5d                	pop    %r13
  409253:	c3                   	retq   
  409254:	0f 1f 40 00          	nopl   0x0(%rax)
  409258:	83 f8 ff             	cmp    $0xffffffff,%eax
  40925b:	74 13                	je     409270 <_ZN15SpectrogramPlotC1EP7QWidget+0x100>
  40925d:	f0 83 2f 01          	lock subl $0x1,(%rdi)
  409261:	0f 95 c0             	setne  %al
  409264:	84 c0                	test   %al,%al
  409266:	75 9a                	jne    409202 <_ZN15SpectrogramPlotC1EP7QWidget+0x92>
  409268:	48 8b 3c 24          	mov    (%rsp),%rdi
  40926c:	eb 85                	jmp    4091f3 <_ZN15SpectrogramPlotC1EP7QWidget+0x83>
  40926e:	66 90                	xchg   %ax,%ax
  409270:	48 89 ef             	mov    %rbp,%rdi
  409273:	eb 91                	jmp    409206 <_ZN15SpectrogramPlotC1EP7QWidget+0x96>
  409275:	49 89 c4             	mov    %rax,%r12
  409278:	48 89 ef             	mov    %rbp,%rdi
  40927b:	4c 89 e5             	mov    %r12,%rbp
  40927e:	e8 9d c1 ff ff       	callq  405420 <_ZdlPv@plt>
  409283:	4c 89 ef             	mov    %r13,%rdi
  409286:	e8 75 d2 ff ff       	callq  406500 <_ZN7QStringD1Ev>
  40928b:	48 89 df             	mov    %rbx,%rdi
  40928e:	e8 0d c0 ff ff       	callq  4052a0 <_ZN7QwtPlotD2Ev@plt>
  409293:	48 89 ef             	mov    %rbp,%rdi
  409296:	e8 85 c2 ff ff       	callq  405520 <_Unwind_Resume@plt>
  40929b:	48 89 c5             	mov    %rax,%rbp
  40929e:	49 89 e5             	mov    %rsp,%r13
  4092a1:	eb e0                	jmp    409283 <_ZN15SpectrogramPlotC1EP7QWidget+0x113>
  4092a3:	4c 89 e7             	mov    %r12,%rdi
  4092a6:	48 89 c5             	mov    %rax,%rbp
  4092a9:	e8 72 c1 ff ff       	callq  405420 <_ZdlPv@plt>
  4092ae:	eb db                	jmp    40928b <_ZN15SpectrogramPlotC1EP7QWidget+0x11b>
  4092b0:	48 89 c5             	mov    %rax,%rbp
  4092b3:	eb d6                	jmp    40928b <_ZN15SpectrogramPlotC1EP7QWidget+0x11b>
  4092b5:	90                   	nop
  4092b6:	66 2e 0f 1f 84 00 00 	nopw   %cs:0x0(%rax,%rax,1)
  4092bd:	00 00 00 

00000000004092c0 <_ZN15SpectrogramPlot15showSpectrogramEb>:
  4092c0:	41 54                	push   %r12
  4092c2:	40 0f b6 d6          	movzbl %sil,%edx
  4092c6:	55                   	push   %rbp
  4092c7:	89 f5                	mov    %esi,%ebp
  4092c9:	be 01 00 00 00       	mov    $0x1,%esi
  4092ce:	53                   	push   %rbx
  4092cf:	48 89 fb             	mov    %rdi,%rbx
  4092d2:	48 83 ec 20          	sub    $0x20,%rsp
  4092d6:	48 8b 7f 68          	mov    0x68(%rdi),%rdi
  4092da:	e8 01 bf ff ff       	callq  4051e0 <_ZN18QwtPlotSpectrogram14setDisplayModeENS_11DisplayModeEb@plt>
  4092df:	40 84 ed             	test   %bpl,%bpl
  4092e2:	74 7c                	je     409360 <_ZN15SpectrogramPlot15showSpectrogramEb+0xa0>
  4092e4:	ba 01 00 00 00       	mov    $0x1,%edx
  4092e9:	be 02 00 00 00       	mov    $0x2,%esi
  4092ee:	48 89 e7             	mov    %rsp,%rdi
  4092f1:	e8 fa bc ff ff       	callq  404ff0 <_ZN6QBrushC1EN2Qt11GlobalColorENS0_10BrushStyleE@plt>
  4092f6:	48 8d 6c 24 10       	lea    0x10(%rsp),%rbp
  4092fb:	66 0f 57 c0          	xorpd  %xmm0,%xmm0
  4092ff:	41 b8 40 00 00 00    	mov    $0x40,%r8d
  409305:	b9 10 00 00 00       	mov    $0x10,%ecx
  40930a:	ba 01 00 00 00       	mov    $0x1,%edx
  40930f:	48 89 e6             	mov    %rsp,%rsi
  409312:	48 89 ef             	mov    %rbp,%rdi
  409315:	49 89 e4             	mov    %rsp,%r12
  409318:	e8 e3 c2 ff ff       	callq  405600 <_ZN4QPenC1ERK6QBrushdN2Qt8PenStyleENS3_11PenCapStyleENS3_12PenJoinStyleE@plt>
  40931d:	41 bc 01 00 00 00    	mov    $0x1,%r12d
  409323:	48 8b 7b 68          	mov    0x68(%rbx),%rdi
  409327:	48 89 ee             	mov    %rbp,%rsi
  40932a:	e8 c1 bf ff ff       	callq  4052f0 <_ZN18QwtPlotSpectrogram20setDefaultContourPenERK4QPen@plt>
  40932f:	48 89 ef             	mov    %rbp,%rdi
  409332:	e8 29 c8 ff ff       	callq  405b60 <_ZN4QPenD1Ev@plt>
  409337:	45 84 e4             	test   %r12b,%r12b
  40933a:	74 08                	je     409344 <_ZN15SpectrogramPlot15showSpectrogramEb+0x84>
  40933c:	48 89 e7             	mov    %rsp,%rdi
  40933f:	e8 2c bd ff ff       	callq  405070 <_ZN6QBrushD1Ev@plt>
  409344:	48 8b 03             	mov    (%rbx),%rax
  409347:	48 89 df             	mov    %rbx,%rdi
  40934a:	ff 90 d8 01 00 00    	callq  *0x1d8(%rax)
  409350:	48 83 c4 20          	add    $0x20,%rsp
  409354:	5b                   	pop    %rbx
  409355:	5d                   	pop    %rbp
  409356:	41 5c                	pop    %r12
  409358:	c3                   	retq   
  409359:	0f 1f 80 00 00 00 00 	nopl   0x0(%rax)
  409360:	48 8d 6c 24 10       	lea    0x10(%rsp),%rbp
  409365:	31 f6                	xor    %esi,%esi
  409367:	45 31 e4             	xor    %r12d,%r12d
  40936a:	48 89 ef             	mov    %rbp,%rdi
  40936d:	e8 fe c3 ff ff       	callq  405770 <_ZN4QPenC1EN2Qt8PenStyleE@plt>
  409372:	eb af                	jmp    409323 <_ZN15SpectrogramPlot15showSpectrogramEb+0x63>
  409374:	48 89 c3             	mov    %rax,%rbx
  409377:	45 84 e4             	test   %r12b,%r12b
  40937a:	75 22                	jne    40939e <_ZN15SpectrogramPlot15showSpectrogramEb+0xde>
  40937c:	48 89 df             	mov    %rbx,%rdi
  40937f:	e8 9c c1 ff ff       	callq  405520 <_Unwind_Resume@plt>
  409384:	48 89 ef             	mov    %rbp,%rdi
  409387:	48 89 c3             	mov    %rax,%rbx
  40938a:	e8 d1 c7 ff ff       	callq  405b60 <_ZN4QPenD1Ev@plt>
  40938f:	eb e6                	jmp    409377 <_ZN15SpectrogramPlot15showSpectrogramEb+0xb7>
  409391:	48 89 c3             	mov    %rax,%rbx
  409394:	4c 89 e7             	mov    %r12,%rdi
  409397:	e8 d4 bc ff ff       	callq  405070 <_ZN6QBrushD1Ev@plt>
  40939c:	eb de                	jmp    40937c <_ZN15SpectrogramPlot15showSpectrogramEb+0xbc>
  40939e:	49 89 e4             	mov    %rsp,%r12
  4093a1:	eb f1                	jmp    409394 <_ZN15SpectrogramPlot15showSpectrogramEb+0xd4>
  4093a3:	90                   	nop
  4093a4:	66 66 66 2e 0f 1f 84 	data32 data32 nopw %cs:0x0(%rax,%rax,1)
  4093ab:	00 00 00 00 00 

00000000004093b0 <_ZN15SpectrogramPlot8setAlphaEi>:
  4093b0:	53                   	push   %rbx
  4093b1:	48 89 fb             	mov    %rdi,%rbx
  4093b4:	48 8b 7f 68          	mov    0x68(%rdi),%rdi
  4093b8:	e8 03 bd ff ff       	callq  4050c0 <_ZN17QwtPlotRasterItem8setAlphaEi@plt>
  4093bd:	48 8b 03             	mov    (%rbx),%rax
  4093c0:	48 89 df             	mov    %rbx,%rdi
  4093c3:	5b                   	pop    %rbx
  4093c4:	48 8b 80 d8 01 00 00 	mov    0x1d8(%rax),%rax
  4093cb:	ff e0                	jmpq   *%rax
  4093cd:	90                   	nop
  4093ce:	66 90                	xchg   %ax,%ax

00000000004093d0 <_ZN15SpectrogramPlot9setupAxisEv>:
  4093d0:	41 55                	push   %r13
  4093d2:	41 54                	push   %r12
  4093d4:	55                   	push   %rbp
  4093d5:	53                   	push   %rbx
  4093d6:	48 89 fb             	mov    %rdi,%rbx
  4093d9:	bf 20 00 00 00       	mov    $0x20,%edi
  4093de:	48 83 ec 38          	sub    $0x38,%rsp
  4093e2:	e8 79 bc ff ff       	callq  405060 <_Znwm@plt>
  4093e7:	be 02 00 00 00       	mov    $0x2,%esi
  4093ec:	48 89 c7             	mov    %rax,%rdi
  4093ef:	49 89 c4             	mov    %rax,%r12
  4093f2:	e8 29 05 00 00       	callq  409920 <_ZN14CustomColorMapC1ENS_8colormapE>
  4093f7:	48 8b 7b 68          	mov    0x68(%rbx),%rdi
  4093fb:	49 89 e5             	mov    %rsp,%r13
  4093fe:	e8 fd c4 ff ff       	callq  405900 <_ZN18QwtPlotSpectrogram4dataEv@plt>
  409403:	48 8b 50 38          	mov    0x38(%rax),%rdx
  409407:	be 01 00 00 00       	mov    $0x1,%esi
  40940c:	48 89 df             	mov    %rbx,%rdi
  40940f:	48 89 54 24 10       	mov    %rdx,0x10(%rsp)
  409414:	48 8b 50 40          	mov    0x40(%rax),%rdx
  409418:	48 8b 40 48          	mov    0x48(%rax),%rax
  40941c:	48 89 54 24 18       	mov    %rdx,0x18(%rsp)
  409421:	48 89 44 24 20       	mov    %rax,0x20(%rsp)
  409426:	e8 25 bf ff ff       	callq  405350 <_ZN7QwtPlot10axisWidgetEi@plt>
  40942b:	48 8d 3d 5e 57 00 00 	lea    0x575e(%rip),%rdi        # 40eb90 <_ZTS15SpectrogramDataIdE+0x20>
  409432:	48 89 c5             	mov    %rax,%rbp
  409435:	be 09 00 00 00       	mov    $0x9,%esi
  40943a:	e8 c1 bf ff ff       	callq  405400 <_ZN7QString16fromAscii_helperEPKci@plt>
  40943f:	48 89 e6             	mov    %rsp,%rsi
  409442:	48 89 ef             	mov    %rbp,%rdi
  409445:	48 89 04 24          	mov    %rax,(%rsp)
  409449:	e8 12 c3 ff ff       	callq  405760 <_ZN14QwtScaleWidget8setTitleERK7QString@plt>
  40944e:	48 8b 3c 24          	mov    (%rsp),%rdi
  409452:	8b 07                	mov    (%rdi),%eax
  409454:	85 c0                	test   %eax,%eax
  409456:	75 70                	jne    4094c8 <_ZN15SpectrogramPlot9setupAxisEv+0xf8>
  409458:	ba 08 00 00 00       	mov    $0x8,%edx
  40945d:	be 02 00 00 00       	mov    $0x2,%esi
  409462:	e8 e9 c4 ff ff       	callq  405950 <_ZN10QArrayData10deallocateEPS_mm@plt>
  409467:	48 89 ef             	mov    %rbp,%rdi
  40946a:	be 01 00 00 00       	mov    $0x1,%esi
  40946f:	e8 ec c1 ff ff       	callq  405660 <_ZN14QwtScaleWidget18setColorBarEnabledEb@plt>
  409474:	48 8d 74 24 10       	lea    0x10(%rsp),%rsi
  409479:	4c 89 e2             	mov    %r12,%rdx
  40947c:	48 89 ef             	mov    %rbp,%rdi
  40947f:	e8 6c c5 ff ff       	callq  4059f0 <_ZN14QwtScaleWidget11setColorMapERK11QwtIntervalP11QwtColorMap@plt>
  409484:	66 0f 57 d2          	xorpd  %xmm2,%xmm2
  409488:	48 89 df             	mov    %rbx,%rdi
  40948b:	f2 0f 10 4c 24 18    	movsd  0x18(%rsp),%xmm1
  409491:	be 01 00 00 00       	mov    $0x1,%esi
  409496:	f2 0f 10 44 24 10    	movsd  0x10(%rsp),%xmm0
  40949c:	e8 8f c5 ff ff       	callq  405a30 <_ZN7QwtPlot12setAxisScaleEiddd@plt>
  4094a1:	48 89 df             	mov    %rbx,%rdi
  4094a4:	ba 01 00 00 00       	mov    $0x1,%edx
  4094a9:	be 01 00 00 00       	mov    $0x1,%esi
  4094ae:	e8 8d bc ff ff       	callq  405140 <_ZN7QwtPlot10enableAxisEib@plt>
  4094b3:	c6 43 70 00          	movb   $0x0,0x70(%rbx)
  4094b7:	48 83 c4 38          	add    $0x38,%rsp
  4094bb:	5b                   	pop    %rbx
  4094bc:	5d                   	pop    %rbp
  4094bd:	41 5c                	pop    %r12
  4094bf:	41 5d                	pop    %r13
  4094c1:	c3                   	retq   
  4094c2:	66 0f 1f 44 00 00    	nopw   0x0(%rax,%rax,1)
  4094c8:	83 f8 ff             	cmp    $0xffffffff,%eax
  4094cb:	74 9a                	je     409467 <_ZN15SpectrogramPlot9setupAxisEv+0x97>
  4094cd:	f0 83 2f 01          	lock subl $0x1,(%rdi)
  4094d1:	0f 95 c0             	setne  %al
  4094d4:	84 c0                	test   %al,%al
  4094d6:	75 8f                	jne    409467 <_ZN15SpectrogramPlot9setupAxisEv+0x97>
  4094d8:	48 8b 3c 24          	mov    (%rsp),%rdi
  4094dc:	e9 77 ff ff ff       	jmpq   409458 <_ZN15SpectrogramPlot9setupAxisEv+0x88>
  4094e1:	48 89 c3             	mov    %rax,%rbx
  4094e4:	4c 89 ef             	mov    %r13,%rdi
  4094e7:	e8 14 d0 ff ff       	callq  406500 <_ZN7QStringD1Ev>
  4094ec:	48 89 df             	mov    %rbx,%rdi
  4094ef:	e8 2c c0 ff ff       	callq  405520 <_Unwind_Resume@plt>
  4094f4:	48 89 c3             	mov    %rax,%rbx
  4094f7:	4c 89 e7             	mov    %r12,%rdi
  4094fa:	e8 21 bf ff ff       	callq  405420 <_ZdlPv@plt>
  4094ff:	48 89 df             	mov    %rbx,%rdi
  409502:	e8 19 c0 ff ff       	callq  405520 <_Unwind_Resume@plt>
  409507:	90                   	nop
  409508:	0f 1f 84 00 00 00 00 	nopl   0x0(%rax,%rax,1)
  40950f:	00 

0000000000409510 <_ZN15SpectrogramPlot11pushNewDataEP15SpectrogramDataIfE>:
  409510:	53                   	push   %rbx
  409511:	48 89 fb             	mov    %rdi,%rbx
  409514:	48 8b 7f 68          	mov    0x68(%rdi),%rdi
  409518:	e8 73 be ff ff       	callq  405390 <_ZN18QwtPlotSpectrogram7setDataEP13QwtRasterData@plt>
  40951d:	80 7b 70 00          	cmpb   $0x0,0x70(%rbx)
  409521:	75 05                	jne    409528 <_ZN15SpectrogramPlot11pushNewDataEP15SpectrogramDataIfE+0x18>
  409523:	5b                   	pop    %rbx
  409524:	c3                   	retq   
  409525:	0f 1f 00             	nopl   (%rax)
  409528:	48 89 df             	mov    %rbx,%rdi
  40952b:	5b                   	pop    %rbx
  40952c:	e9 9f fe ff ff       	jmpq   4093d0 <_ZN15SpectrogramPlot9setupAxisEv>
  409531:	66 2e 0f 1f 84 00 00 	nopw   %cs:0x0(%rax,%rax,1)
  409538:	00 00 00 
  40953b:	0f 1f 44 00 00       	nopl   0x0(%rax,%rax,1)

0000000000409540 <_ZN14CustomColorMap12initColorMapEv>:
  409540:	41 54                	push   %r12
  409542:	be 01 00 00 00       	mov    $0x1,%esi
  409547:	55                   	push   %rbp
  409548:	53                   	push   %rbx
  409549:	48 89 fb             	mov    %rdi,%rbx
  40954c:	48 83 ec 20          	sub    $0x20,%rsp
  409550:	e8 8b c5 ff ff       	callq  405ae0 <_ZN17QwtLinearColorMap7setModeENS_4ModeE@plt>
  409555:	8b 43 18             	mov    0x18(%rbx),%eax
  409558:	83 f8 01             	cmp    $0x1,%eax
  40955b:	0f 84 2f 03 00 00    	je     409890 <_ZN14CustomColorMap12initColorMapEv+0x350>
  409561:	83 f8 02             	cmp    $0x2,%eax
  409564:	0f 84 b6 00 00 00    	je     409620 <_ZN14CustomColorMap12initColorMapEv+0xe0>
  40956a:	85 c0                	test   %eax,%eax
  40956c:	74 12                	je     409580 <_ZN14CustomColorMap12initColorMapEv+0x40>
  40956e:	48 83 c4 20          	add    $0x20,%rsp
  409572:	5b                   	pop    %rbx
  409573:	5d                   	pop    %rbp
  409574:	41 5c                	pop    %r12
  409576:	c3                   	retq   
  409577:	66 0f 1f 84 00 00 00 	nopw   0x0(%rax,%rax,1)
  40957e:	00 00 
  409580:	48 8d 6c 24 10       	lea    0x10(%rsp),%rbp
  409585:	be 07 00 00 00       	mov    $0x7,%esi
  40958a:	48 89 ef             	mov    %rbp,%rdi
  40958d:	e8 3e c4 ff ff       	callq  4059d0 <_ZN6QColorC1EN2Qt11GlobalColorE@plt>
  409592:	48 89 e7             	mov    %rsp,%rdi
  409595:	be 10 00 00 00       	mov    $0x10,%esi
  40959a:	e8 31 c4 ff ff       	callq  4059d0 <_ZN6QColorC1EN2Qt11GlobalColorE@plt>
  40959f:	48 89 ea             	mov    %rbp,%rdx
  4095a2:	48 89 e6             	mov    %rsp,%rsi
  4095a5:	48 89 df             	mov    %rbx,%rdi
  4095a8:	e8 e3 c0 ff ff       	callq  405690 <_ZN17QwtLinearColorMap16setColorIntervalERK6QColorS2_@plt>
  4095ad:	48 89 ef             	mov    %rbp,%rdi
  4095b0:	be 0a 00 00 00       	mov    $0xa,%esi
  4095b5:	e8 16 c4 ff ff       	callq  4059d0 <_ZN6QColorC1EN2Qt11GlobalColorE@plt>
  4095ba:	f2 0f 10 05 f6 55 00 	movsd  0x55f6(%rip),%xmm0        # 40ebb8 <_ZTS14CustomColorMap+0x18>
  4095c1:	00 
  4095c2:	48 89 ee             	mov    %rbp,%rsi
  4095c5:	48 89 df             	mov    %rbx,%rdi
  4095c8:	e8 e3 c3 ff ff       	callq  4059b0 <_ZN17QwtLinearColorMap12addColorStopEdRK6QColor@plt>
  4095cd:	48 89 ef             	mov    %rbp,%rdi
  4095d0:	be 08 00 00 00       	mov    $0x8,%esi
  4095d5:	e8 f6 c3 ff ff       	callq  4059d0 <_ZN6QColorC1EN2Qt11GlobalColorE@plt>
  4095da:	f2 0f 10 05 de 55 00 	movsd  0x55de(%rip),%xmm0        # 40ebc0 <_ZTS14CustomColorMap+0x20>
  4095e1:	00 
  4095e2:	48 89 ee             	mov    %rbp,%rsi
  4095e5:	48 89 df             	mov    %rbx,%rdi
  4095e8:	e8 c3 c3 ff ff       	callq  4059b0 <_ZN17QwtLinearColorMap12addColorStopEdRK6QColor@plt>
  4095ed:	48 89 ef             	mov    %rbp,%rdi
  4095f0:	be 0c 00 00 00       	mov    $0xc,%esi
  4095f5:	e8 d6 c3 ff ff       	callq  4059d0 <_ZN6QColorC1EN2Qt11GlobalColorE@plt>
  4095fa:	f2 0f 10 05 c6 55 00 	movsd  0x55c6(%rip),%xmm0        # 40ebc8 <_ZTS14CustomColorMap+0x28>
  409601:	00 
  409602:	48 89 ee             	mov    %rbp,%rsi
  409605:	48 89 df             	mov    %rbx,%rdi
  409608:	e8 a3 c3 ff ff       	callq  4059b0 <_ZN17QwtLinearColorMap12addColorStopEdRK6QColor@plt>
  40960d:	48 83 c4 20          	add    $0x20,%rsp
  409611:	5b                   	pop    %rbx
  409612:	5d                   	pop    %rbp
  409613:	41 5c                	pop    %r12
  409615:	c3                   	retq   
  409616:	66 2e 0f 1f 84 00 00 	nopw   %cs:0x0(%rax,%rax,1)
  40961d:	00 00 00 
  409620:	48 8d 6c 24 10       	lea    0x10(%rsp),%rbp
  409625:	31 c9                	xor    %ecx,%ecx
  409627:	31 d2                	xor    %edx,%edx
  409629:	41 b8 ff 00 00 00    	mov    $0xff,%r8d
  40962f:	be 84 00 00 00       	mov    $0x84,%esi
  409634:	48 89 ef             	mov    %rbp,%rdi
  409637:	e8 74 ba ff ff       	callq  4050b0 <_ZN6QColor6setRgbEiiii@plt>
  40963c:	41 b8 ff 00 00 00    	mov    $0xff,%r8d
  409642:	b9 bd 00 00 00       	mov    $0xbd,%ecx
  409647:	31 d2                	xor    %edx,%edx
  409649:	31 f6                	xor    %esi,%esi
  40964b:	48 89 e7             	mov    %rsp,%rdi
  40964e:	e8 5d ba ff ff       	callq  4050b0 <_ZN6QColor6setRgbEiiii@plt>
  409653:	48 89 ea             	mov    %rbp,%rdx
  409656:	48 89 e6             	mov    %rsp,%rsi
  409659:	48 89 df             	mov    %rbx,%rdi
  40965c:	e8 2f c0 ff ff       	callq  405690 <_ZN17QwtLinearColorMap16setColorIntervalERK6QColorS2_@plt>
  409661:	31 d2                	xor    %edx,%edx
  409663:	41 b8 ff 00 00 00    	mov    $0xff,%r8d
  409669:	b9 ff 00 00 00       	mov    $0xff,%ecx
  40966e:	31 f6                	xor    %esi,%esi
  409670:	48 89 ef             	mov    %rbp,%rdi
  409673:	e8 38 ba ff ff       	callq  4050b0 <_ZN6QColor6setRgbEiiii@plt>
  409678:	f2 0f 10 05 50 55 00 	movsd  0x5550(%rip),%xmm0        # 40ebd0 <_ZTS14CustomColorMap+0x30>
  40967f:	00 
  409680:	48 89 ee             	mov    %rbp,%rsi
  409683:	48 89 df             	mov    %rbx,%rdi
  409686:	e8 25 c3 ff ff       	callq  4059b0 <_ZN17QwtLinearColorMap12addColorStopEdRK6QColor@plt>
  40968b:	41 b8 ff 00 00 00    	mov    $0xff,%r8d
  409691:	b9 ff 00 00 00       	mov    $0xff,%ecx
  409696:	ba 42 00 00 00       	mov    $0x42,%edx
  40969b:	31 f6                	xor    %esi,%esi
  40969d:	48 89 ef             	mov    %rbp,%rdi
  4096a0:	e8 0b ba ff ff       	callq  4050b0 <_ZN6QColor6setRgbEiiii@plt>
  4096a5:	f2 0f 10 05 2b 55 00 	movsd  0x552b(%rip),%xmm0        # 40ebd8 <_ZTS14CustomColorMap+0x38>
  4096ac:	00 
  4096ad:	48 89 ee             	mov    %rbp,%rsi
  4096b0:	48 89 df             	mov    %rbx,%rdi
  4096b3:	e8 f8 c2 ff ff       	callq  4059b0 <_ZN17QwtLinearColorMap12addColorStopEdRK6QColor@plt>
  4096b8:	41 b8 ff 00 00 00    	mov    $0xff,%r8d
  4096be:	b9 ff 00 00 00       	mov    $0xff,%ecx
  4096c3:	ba 84 00 00 00       	mov    $0x84,%edx
  4096c8:	31 f6                	xor    %esi,%esi
  4096ca:	48 89 ef             	mov    %rbp,%rdi
  4096cd:	e8 de b9 ff ff       	callq  4050b0 <_ZN6QColor6setRgbEiiii@plt>
  4096d2:	f2 0f 10 05 06 55 00 	movsd  0x5506(%rip),%xmm0        # 40ebe0 <_ZTS14CustomColorMap+0x40>
  4096d9:	00 
  4096da:	48 89 ee             	mov    %rbp,%rsi
  4096dd:	48 89 df             	mov    %rbx,%rdi
  4096e0:	e8 cb c2 ff ff       	callq  4059b0 <_ZN17QwtLinearColorMap12addColorStopEdRK6QColor@plt>
  4096e5:	41 b8 ff 00 00 00    	mov    $0xff,%r8d
  4096eb:	b9 ff 00 00 00       	mov    $0xff,%ecx
  4096f0:	ba bd 00 00 00       	mov    $0xbd,%edx
  4096f5:	31 f6                	xor    %esi,%esi
  4096f7:	48 89 ef             	mov    %rbp,%rdi
  4096fa:	e8 b1 b9 ff ff       	callq  4050b0 <_ZN6QColor6setRgbEiiii@plt>
  4096ff:	f2 0f 10 05 e1 54 00 	movsd  0x54e1(%rip),%xmm0        # 40ebe8 <_ZTS14CustomColorMap+0x48>
  409706:	00 
  409707:	48 89 ee             	mov    %rbp,%rsi
  40970a:	48 89 df             	mov    %rbx,%rdi
  40970d:	e8 9e c2 ff ff       	callq  4059b0 <_ZN17QwtLinearColorMap12addColorStopEdRK6QColor@plt>
  409712:	41 b8 ff 00 00 00    	mov    $0xff,%r8d
  409718:	b9 ff 00 00 00       	mov    $0xff,%ecx
  40971d:	ba ff 00 00 00       	mov    $0xff,%edx
  409722:	31 f6                	xor    %esi,%esi
  409724:	48 89 ef             	mov    %rbp,%rdi
  409727:	e8 84 b9 ff ff       	callq  4050b0 <_ZN6QColor6setRgbEiiii@plt>
  40972c:	f2 0f 10 05 bc 54 00 	movsd  0x54bc(%rip),%xmm0        # 40ebf0 <_ZTS14CustomColorMap+0x50>
  409733:	00 
  409734:	48 89 ee             	mov    %rbp,%rsi
  409737:	48 89 df             	mov    %rbx,%rdi
  40973a:	e8 71 c2 ff ff       	callq  4059b0 <_ZN17QwtLinearColorMap12addColorStopEdRK6QColor@plt>
  40973f:	41 b8 ff 00 00 00    	mov    $0xff,%r8d
  409745:	b9 bd 00 00 00       	mov    $0xbd,%ecx
  40974a:	ba ff 00 00 00       	mov    $0xff,%edx
  40974f:	48 89 ef             	mov    %rbp,%rdi
  409752:	be 42 00 00 00       	mov    $0x42,%esi
  409757:	e8 54 b9 ff ff       	callq  4050b0 <_ZN6QColor6setRgbEiiii@plt>
  40975c:	f2 0f 10 05 94 54 00 	movsd  0x5494(%rip),%xmm0        # 40ebf8 <_ZTS14CustomColorMap+0x58>
  409763:	00 
  409764:	48 89 ee             	mov    %rbp,%rsi
  409767:	48 89 df             	mov    %rbx,%rdi
  40976a:	e8 41 c2 ff ff       	callq  4059b0 <_ZN17QwtLinearColorMap12addColorStopEdRK6QColor@plt>
  40976f:	41 b8 ff 00 00 00    	mov    $0xff,%r8d
  409775:	b9 84 00 00 00       	mov    $0x84,%ecx
  40977a:	ba ff 00 00 00       	mov    $0xff,%edx
  40977f:	48 89 ef             	mov    %rbp,%rdi
  409782:	be 84 00 00 00       	mov    $0x84,%esi
  409787:	e8 24 b9 ff ff       	callq  4050b0 <_ZN6QColor6setRgbEiiii@plt>
  40978c:	f2 0f 10 05 6c 54 00 	movsd  0x546c(%rip),%xmm0        # 40ec00 <_ZTS14CustomColorMap+0x60>
  409793:	00 
  409794:	48 89 ee             	mov    %rbp,%rsi
  409797:	48 89 df             	mov    %rbx,%rdi
  40979a:	e8 11 c2 ff ff       	callq  4059b0 <_ZN17QwtLinearColorMap12addColorStopEdRK6QColor@plt>
  40979f:	41 b8 ff 00 00 00    	mov    $0xff,%r8d
  4097a5:	b9 42 00 00 00       	mov    $0x42,%ecx
  4097aa:	ba ff 00 00 00       	mov    $0xff,%edx
  4097af:	48 89 ef             	mov    %rbp,%rdi
  4097b2:	be bd 00 00 00       	mov    $0xbd,%esi
  4097b7:	e8 f4 b8 ff ff       	callq  4050b0 <_ZN6QColor6setRgbEiiii@plt>
  4097bc:	f2 0f 10 05 44 54 00 	movsd  0x5444(%rip),%xmm0        # 40ec08 <_ZTS14CustomColorMap+0x68>
  4097c3:	00 
  4097c4:	48 89 ee             	mov    %rbp,%rsi
  4097c7:	48 89 df             	mov    %rbx,%rdi
  4097ca:	e8 e1 c1 ff ff       	callq  4059b0 <_ZN17QwtLinearColorMap12addColorStopEdRK6QColor@plt>
  4097cf:	31 c9                	xor    %ecx,%ecx
  4097d1:	41 b8 ff 00 00 00    	mov    $0xff,%r8d
  4097d7:	ba ff 00 00 00       	mov    $0xff,%edx
  4097dc:	48 89 ef             	mov    %rbp,%rdi
  4097df:	be ff 00 00 00       	mov    $0xff,%esi
  4097e4:	e8 c7 b8 ff ff       	callq  4050b0 <_ZN6QColor6setRgbEiiii@plt>
  4097e9:	f2 0f 10 05 1f 54 00 	movsd  0x541f(%rip),%xmm0        # 40ec10 <_ZTS14CustomColorMap+0x70>
  4097f0:	00 
  4097f1:	48 89 ee             	mov    %rbp,%rsi
  4097f4:	48 89 df             	mov    %rbx,%rdi
  4097f7:	e8 b4 c1 ff ff       	callq  4059b0 <_ZN17QwtLinearColorMap12addColorStopEdRK6QColor@plt>
  4097fc:	41 b8 ff 00 00 00    	mov    $0xff,%r8d
  409802:	31 c9                	xor    %ecx,%ecx
  409804:	ba bd 00 00 00       	mov    $0xbd,%edx
  409809:	48 89 ef             	mov    %rbp,%rdi
  40980c:	be ff 00 00 00       	mov    $0xff,%esi
  409811:	e8 9a b8 ff ff       	callq  4050b0 <_ZN6QColor6setRgbEiiii@plt>
  409816:	f2 0f 10 05 fa 53 00 	movsd  0x53fa(%rip),%xmm0        # 40ec18 <_ZTS14CustomColorMap+0x78>
  40981d:	00 
  40981e:	48 89 ee             	mov    %rbp,%rsi
  409821:	48 89 df             	mov    %rbx,%rdi
  409824:	e8 87 c1 ff ff       	callq  4059b0 <_ZN17QwtLinearColorMap12addColorStopEdRK6QColor@plt>
  409829:	41 b8 ff 00 00 00    	mov    $0xff,%r8d
  40982f:	31 c9                	xor    %ecx,%ecx
  409831:	ba 42 00 00 00       	mov    $0x42,%edx
  409836:	48 89 ef             	mov    %rbp,%rdi
  409839:	be ff 00 00 00       	mov    $0xff,%esi
  40983e:	e8 6d b8 ff ff       	callq  4050b0 <_ZN6QColor6setRgbEiiii@plt>
  409843:	f2 0f 10 05 d5 53 00 	movsd  0x53d5(%rip),%xmm0        # 40ec20 <_ZTS14CustomColorMap+0x80>
  40984a:	00 
  40984b:	48 89 ee             	mov    %rbp,%rsi
  40984e:	48 89 df             	mov    %rbx,%rdi
  409851:	e8 5a c1 ff ff       	callq  4059b0 <_ZN17QwtLinearColorMap12addColorStopEdRK6QColor@plt>
  409856:	48 89 ef             	mov    %rbp,%rdi
  409859:	41 b8 ff 00 00 00    	mov    $0xff,%r8d
  40985f:	31 c9                	xor    %ecx,%ecx
  409861:	31 d2                	xor    %edx,%edx
  409863:	be bd 00 00 00       	mov    $0xbd,%esi
  409868:	e8 43 b8 ff ff       	callq  4050b0 <_ZN6QColor6setRgbEiiii@plt>
  40986d:	f2 0f 10 05 13 53 00 	movsd  0x5313(%rip),%xmm0        # 40eb88 <_ZTS15SpectrogramDataIdE+0x18>
  409874:	00 
  409875:	48 89 ee             	mov    %rbp,%rsi
  409878:	48 89 df             	mov    %rbx,%rdi
  40987b:	e8 30 c1 ff ff       	callq  4059b0 <_ZN17QwtLinearColorMap12addColorStopEdRK6QColor@plt>
  409880:	48 83 c4 20          	add    $0x20,%rsp
  409884:	5b                   	pop    %rbx
  409885:	5d                   	pop    %rbp
  409886:	41 5c                	pop    %r12
  409888:	c3                   	retq   
  409889:	0f 1f 80 00 00 00 00 	nopl   0x0(%rax)
  409890:	4c 8d 64 24 10       	lea    0x10(%rsp),%r12
  409895:	be 03 00 00 00       	mov    $0x3,%esi
  40989a:	4c 89 e7             	mov    %r12,%rdi
  40989d:	e8 2e c1 ff ff       	callq  4059d0 <_ZN6QColorC1EN2Qt11GlobalColorE@plt>
  4098a2:	48 89 e7             	mov    %rsp,%rdi
  4098a5:	be 02 00 00 00       	mov    $0x2,%esi
  4098aa:	e8 21 c1 ff ff       	callq  4059d0 <_ZN6QColorC1EN2Qt11GlobalColorE@plt>
  4098af:	4c 89 e2             	mov    %r12,%rdx
  4098b2:	48 89 e6             	mov    %rsp,%rsi
  4098b5:	48 89 df             	mov    %rbx,%rdi
  4098b8:	e8 d3 bd ff ff       	callq  405690 <_ZN17QwtLinearColorMap16setColorIntervalERK6QColorS2_@plt>
  4098bd:	48 83 c4 20          	add    $0x20,%rsp
  4098c1:	5b                   	pop    %rbx
  4098c2:	5d                   	pop    %rbp
  4098c3:	41 5c                	pop    %r12
  4098c5:	c3                   	retq   
  4098c6:	66 2e 0f 1f 84 00 00 	nopw   %cs:0x0(%rax,%rax,1)
  4098cd:	00 00 00 

00000000004098d0 <_ZN14CustomColorMapC1Ev>:
  4098d0:	55                   	push   %rbp
  4098d1:	31 f6                	xor    %esi,%esi
  4098d3:	53                   	push   %rbx
  4098d4:	48 89 fb             	mov    %rdi,%rbx
  4098d7:	48 83 ec 08          	sub    $0x8,%rsp
  4098db:	e8 00 ba ff ff       	callq  4052e0 <_ZN17QwtLinearColorMapC2EN11QwtColorMap6FormatE@plt>
  4098e0:	48 8d 05 b9 bb 20 00 	lea    0x20bbb9(%rip),%rax        # 6154a0 <_ZTV14CustomColorMap>
  4098e7:	c7 43 18 00 00 00 00 	movl   $0x0,0x18(%rbx)
  4098ee:	48 89 df             	mov    %rbx,%rdi
  4098f1:	48 83 c0 10          	add    $0x10,%rax
  4098f5:	48 89 03             	mov    %rax,(%rbx)
  4098f8:	e8 43 fc ff ff       	callq  409540 <_ZN14CustomColorMap12initColorMapEv>
  4098fd:	48 83 c4 08          	add    $0x8,%rsp
  409901:	5b                   	pop    %rbx
  409902:	5d                   	pop    %rbp
  409903:	c3                   	retq   
  409904:	48 89 c5             	mov    %rax,%rbp
  409907:	48 89 df             	mov    %rbx,%rdi
  40990a:	e8 b1 bb ff ff       	callq  4054c0 <_ZN17QwtLinearColorMapD2Ev@plt>
  40990f:	48 89 ef             	mov    %rbp,%rdi
  409912:	e8 09 bc ff ff       	callq  405520 <_Unwind_Resume@plt>
  409917:	90                   	nop
  409918:	0f 1f 84 00 00 00 00 	nopl   0x0(%rax,%rax,1)
  40991f:	00 

0000000000409920 <_ZN14CustomColorMapC1ENS_8colormapE>:
  409920:	55                   	push   %rbp
  409921:	89 f5                	mov    %esi,%ebp
  409923:	31 f6                	xor    %esi,%esi
  409925:	53                   	push   %rbx
  409926:	48 89 fb             	mov    %rdi,%rbx
  409929:	48 83 ec 08          	sub    $0x8,%rsp
  40992d:	e8 ae b9 ff ff       	callq  4052e0 <_ZN17QwtLinearColorMapC2EN11QwtColorMap6FormatE@plt>
  409932:	48 8d 05 67 bb 20 00 	lea    0x20bb67(%rip),%rax        # 6154a0 <_ZTV14CustomColorMap>
  409939:	89 6b 18             	mov    %ebp,0x18(%rbx)
  40993c:	48 89 df             	mov    %rbx,%rdi
  40993f:	48 83 c0 10          	add    $0x10,%rax
  409943:	48 89 03             	mov    %rax,(%rbx)
  409946:	e8 f5 fb ff ff       	callq  409540 <_ZN14CustomColorMap12initColorMapEv>
  40994b:	48 83 c4 08          	add    $0x8,%rsp
  40994f:	5b                   	pop    %rbx
  409950:	5d                   	pop    %rbp
  409951:	c3                   	retq   
  409952:	48 89 c5             	mov    %rax,%rbp
  409955:	48 89 df             	mov    %rbx,%rdi
  409958:	e8 63 bb ff ff       	callq  4054c0 <_ZN17QwtLinearColorMapD2Ev@plt>
  40995d:	48 89 ef             	mov    %rbp,%rdi
  409960:	e8 bb bb ff ff       	callq  405520 <_Unwind_Resume@plt>
  409965:	66 2e 0f 1f 84 00 00 	nopw   %cs:0x0(%rax,%rax,1)
  40996c:	00 00 00 
  40996f:	90                   	nop

0000000000409970 <_ZN14CustomColorMapD1Ev>:
  409970:	48 8d 05 29 bb 20 00 	lea    0x20bb29(%rip),%rax        # 6154a0 <_ZTV14CustomColorMap>
  409977:	48 83 c0 10          	add    $0x10,%rax
  40997b:	48 89 07             	mov    %rax,(%rdi)
  40997e:	e9 3d bb ff ff       	jmpq   4054c0 <_ZN17QwtLinearColorMapD2Ev@plt>
  409983:	66 2e 0f 1f 84 00 00 	nopw   %cs:0x0(%rax,%rax,1)
  40998a:	00 00 00 
  40998d:	0f 1f 00             	nopl   (%rax)

0000000000409990 <_ZN14CustomColorMapD0Ev>:
  409990:	48 8d 05 09 bb 20 00 	lea    0x20bb09(%rip),%rax        # 6154a0 <_ZTV14CustomColorMap>
  409997:	53                   	push   %rbx
  409998:	48 89 fb             	mov    %rdi,%rbx
  40999b:	48 83 c0 10          	add    $0x10,%rax
  40999f:	48 89 07             	mov    %rax,(%rdi)
  4099a2:	e8 19 bb ff ff       	callq  4054c0 <_ZN17QwtLinearColorMapD2Ev@plt>
  4099a7:	48 89 df             	mov    %rbx,%rdi
  4099aa:	5b                   	pop    %rbx
  4099ab:	e9 70 ba ff ff       	jmpq   405420 <_ZdlPv@plt>

00000000004099b0 <_ZN25CircularArray2DWorkerSafeIiEC1ENS0_8priorityEbii>:
  4099b0:	41 57                	push   %r15
  4099b2:	41 89 f7             	mov    %esi,%r15d
  4099b5:	89 ce                	mov    %ecx,%esi
  4099b7:	41 56                	push   %r14
  4099b9:	41 89 d6             	mov    %edx,%r14d
  4099bc:	44 89 c2             	mov    %r8d,%edx
  4099bf:	41 55                	push   %r13
  4099c1:	41 54                	push   %r12
  4099c3:	55                   	push   %rbp
  4099c4:	44 89 c5             	mov    %r8d,%ebp
  4099c7:	53                   	push   %rbx
  4099c8:	48 89 fb             	mov    %rdi,%rbx
  4099cb:	48 83 ec 18          	sub    $0x18,%rsp
  4099cf:	e8 6c e3 ff ff       	callq  407d40 <_ZN21CircularArray2DWorkerIiEC1Eii>
  4099d4:	48 8d 43 30          	lea    0x30(%rbx),%rax
  4099d8:	48 89 c7             	mov    %rax,%rdi
  4099db:	48 89 04 24          	mov    %rax,(%rsp)
  4099df:	e8 2c bb ff ff       	callq  405510 <_ZN14QWaitConditionC1Ev@plt>
  4099e4:	48 8d 43 38          	lea    0x38(%rbx),%rax
  4099e8:	48 89 c7             	mov    %rax,%rdi
  4099eb:	48 89 44 24 08       	mov    %rax,0x8(%rsp)
  4099f0:	e8 1b bb ff ff       	callq  405510 <_ZN14QWaitConditionC1Ev@plt>
  4099f5:	4c 8d 63 40          	lea    0x40(%rbx),%r12
  4099f9:	31 f6                	xor    %esi,%esi
  4099fb:	4c 89 e7             	mov    %r12,%rdi
  4099fe:	e8 7d b5 ff ff       	callq  404f80 <_ZN6QMutexC1ENS_13RecursionModeE@plt>
  409a03:	4c 8d 6b 48          	lea    0x48(%rbx),%r13
  409a07:	31 f6                	xor    %esi,%esi
  409a09:	4c 89 ef             	mov    %r13,%rdi
  409a0c:	e8 6f b5 ff ff       	callq  404f80 <_ZN6QMutexC1ENS_13RecursionModeE@plt>
  409a11:	48 8d 7b 50          	lea    0x50(%rbx),%rdi
  409a15:	31 f6                	xor    %esi,%esi
  409a17:	e8 64 b5 ff ff       	callq  404f80 <_ZN6QMutexC1ENS_13RecursionModeE@plt>
  409a1c:	44 89 7b 58          	mov    %r15d,0x58(%rbx)
  409a20:	89 6b 60             	mov    %ebp,0x60(%rbx)
  409a23:	44 88 73 64          	mov    %r14b,0x64(%rbx)
  409a27:	c7 43 5c 00 00 00 00 	movl   $0x0,0x5c(%rbx)
  409a2e:	c6 43 65 00          	movb   $0x0,0x65(%rbx)
  409a32:	48 83 c4 18          	add    $0x18,%rsp
  409a36:	5b                   	pop    %rbx
  409a37:	5d                   	pop    %rbp
  409a38:	41 5c                	pop    %r12
  409a3a:	41 5d                	pop    %r13
  409a3c:	41 5e                	pop    %r14
  409a3e:	41 5f                	pop    %r15
  409a40:	c3                   	retq   
  409a41:	48 89 c5             	mov    %rax,%rbp
  409a44:	48 89 df             	mov    %rbx,%rdi
  409a47:	e8 24 e3 ff ff       	callq  407d70 <_ZN21CircularArray2DWorkerIiED1Ev>
  409a4c:	48 89 ef             	mov    %rbp,%rdi
  409a4f:	e8 cc ba ff ff       	callq  405520 <_Unwind_Resume@plt>
  409a54:	4c 89 ef             	mov    %r13,%rdi
  409a57:	48 89 c5             	mov    %rax,%rbp
  409a5a:	e8 51 bb ff ff       	callq  4055b0 <_ZN6QMutexD1Ev@plt>
  409a5f:	4c 89 e7             	mov    %r12,%rdi
  409a62:	e8 49 bb ff ff       	callq  4055b0 <_ZN6QMutexD1Ev@plt>
  409a67:	48 8b 7c 24 08       	mov    0x8(%rsp),%rdi
  409a6c:	e8 ff be ff ff       	callq  405970 <_ZN14QWaitConditionD1Ev@plt>
  409a71:	48 8b 3c 24          	mov    (%rsp),%rdi
  409a75:	e8 f6 be ff ff       	callq  405970 <_ZN14QWaitConditionD1Ev@plt>
  409a7a:	eb c8                	jmp    409a44 <_ZN25CircularArray2DWorkerSafeIiEC1ENS0_8priorityEbii+0x94>
  409a7c:	48 89 c5             	mov    %rax,%rbp
  409a7f:	eb de                	jmp    409a5f <_ZN25CircularArray2DWorkerSafeIiEC1ENS0_8priorityEbii+0xaf>
  409a81:	48 89 c5             	mov    %rax,%rbp
  409a84:	eb e1                	jmp    409a67 <_ZN25CircularArray2DWorkerSafeIiEC1ENS0_8priorityEbii+0xb7>
  409a86:	48 89 c5             	mov    %rax,%rbp
  409a89:	eb e6                	jmp    409a71 <_ZN25CircularArray2DWorkerSafeIiEC1ENS0_8priorityEbii+0xc1>
  409a8b:	0f 1f 44 00 00       	nopl   0x0(%rax,%rax,1)

0000000000409a90 <_ZN25CircularArray2DWorkerSafeIiED1Ev>:
  409a90:	55                   	push   %rbp
  409a91:	53                   	push   %rbx
  409a92:	48 89 fb             	mov    %rdi,%rbx
  409a95:	48 8d 7f 50          	lea    0x50(%rdi),%rdi
  409a99:	48 83 ec 08          	sub    $0x8,%rsp
  409a9d:	e8 0e bb ff ff       	callq  4055b0 <_ZN6QMutexD1Ev@plt>
  409aa2:	48 8d 7b 48          	lea    0x48(%rbx),%rdi
  409aa6:	e8 05 bb ff ff       	callq  4055b0 <_ZN6QMutexD1Ev@plt>
  409aab:	48 8d 7b 40          	lea    0x40(%rbx),%rdi
  409aaf:	e8 fc ba ff ff       	callq  4055b0 <_ZN6QMutexD1Ev@plt>
  409ab4:	48 8d 7b 38          	lea    0x38(%rbx),%rdi
  409ab8:	e8 b3 be ff ff       	callq  405970 <_ZN14QWaitConditionD1Ev@plt>
  409abd:	48 8d 7b 30          	lea    0x30(%rbx),%rdi
  409ac1:	e8 aa be ff ff       	callq  405970 <_ZN14QWaitConditionD1Ev@plt>
  409ac6:	48 83 c4 08          	add    $0x8,%rsp
  409aca:	48 89 df             	mov    %rbx,%rdi
  409acd:	5b                   	pop    %rbx
  409ace:	5d                   	pop    %rbp
  409acf:	e9 9c e2 ff ff       	jmpq   407d70 <_ZN21CircularArray2DWorkerIiED1Ev>
  409ad4:	48 8d 7b 48          	lea    0x48(%rbx),%rdi
  409ad8:	48 89 c5             	mov    %rax,%rbp
  409adb:	e8 d0 ba ff ff       	callq  4055b0 <_ZN6QMutexD1Ev@plt>
  409ae0:	48 8d 7b 40          	lea    0x40(%rbx),%rdi
  409ae4:	e8 c7 ba ff ff       	callq  4055b0 <_ZN6QMutexD1Ev@plt>
  409ae9:	48 8d 7b 38          	lea    0x38(%rbx),%rdi
  409aed:	e8 7e be ff ff       	callq  405970 <_ZN14QWaitConditionD1Ev@plt>
  409af2:	48 8d 7b 30          	lea    0x30(%rbx),%rdi
  409af6:	e8 75 be ff ff       	callq  405970 <_ZN14QWaitConditionD1Ev@plt>
  409afb:	48 89 df             	mov    %rbx,%rdi
  409afe:	e8 6d e2 ff ff       	callq  407d70 <_ZN21CircularArray2DWorkerIiED1Ev>
  409b03:	48 89 ef             	mov    %rbp,%rdi
  409b06:	e8 15 ba ff ff       	callq  405520 <_Unwind_Resume@plt>
  409b0b:	48 89 c5             	mov    %rax,%rbp
  409b0e:	eb eb                	jmp    409afb <_ZN25CircularArray2DWorkerSafeIiED1Ev+0x6b>
  409b10:	48 89 c5             	mov    %rax,%rbp
  409b13:	eb dd                	jmp    409af2 <_ZN25CircularArray2DWorkerSafeIiED1Ev+0x62>
  409b15:	48 89 c5             	mov    %rax,%rbp
  409b18:	eb cf                	jmp    409ae9 <_ZN25CircularArray2DWorkerSafeIiED1Ev+0x59>
  409b1a:	48 89 c5             	mov    %rax,%rbp
  409b1d:	eb c1                	jmp    409ae0 <_ZN25CircularArray2DWorkerSafeIiED1Ev+0x50>
  409b1f:	90                   	nop

0000000000409b20 <_ZN25CircularArray2DWorkerSafeIiE23safePushColumnSemaphoreEPi>:
  409b20:	55                   	push   %rbp
  409b21:	48 89 f5             	mov    %rsi,%rbp
  409b24:	53                   	push   %rbx
  409b25:	48 89 fb             	mov    %rdi,%rbx
  409b28:	48 83 ec 08          	sub    $0x8,%rsp
  409b2c:	80 7f 64 00          	cmpb   $0x0,0x64(%rdi)
  409b30:	75 66                	jne    409b98 <_ZN25CircularArray2DWorkerSafeIiE23safePushColumnSemaphoreEPi+0x78>
  409b32:	8b 43 58             	mov    0x58(%rbx),%eax
  409b35:	85 c0                	test   %eax,%eax
  409b37:	74 47                	je     409b80 <_ZN25CircularArray2DWorkerSafeIiE23safePushColumnSemaphoreEPi+0x60>
  409b39:	83 f8 01             	cmp    $0x1,%eax
  409b3c:	75 3a                	jne    409b78 <_ZN25CircularArray2DWorkerSafeIiE23safePushColumnSemaphoreEPi+0x58>
  409b3e:	48 8d 3d 43 cb 20 00 	lea    0x20cb43(%rip),%rdi        # 616688 <freeSpace>
  409b45:	be 01 00 00 00       	mov    $0x1,%esi
  409b4a:	e8 d1 be ff ff       	callq  405a20 <_ZN10QSemaphore10tryAcquireEi@plt>
  409b4f:	84 c0                	test   %al,%al
  409b51:	74 7d                	je     409bd0 <_ZN25CircularArray2DWorkerSafeIiE23safePushColumnSemaphoreEPi+0xb0>
  409b53:	48 89 ee             	mov    %rbp,%rsi
  409b56:	48 89 df             	mov    %rbx,%rdi
  409b59:	e8 32 e2 ff ff       	callq  407d90 <_ZN21CircularArray2DWorkerIiE10pushColumnEPi>
  409b5e:	48 83 c4 08          	add    $0x8,%rsp
  409b62:	48 8d 3d 17 cb 20 00 	lea    0x20cb17(%rip),%rdi        # 616680 <usedSpace>
  409b69:	be 01 00 00 00       	mov    $0x1,%esi
  409b6e:	5b                   	pop    %rbx
  409b6f:	5d                   	pop    %rbp
  409b70:	e9 8b b9 ff ff       	jmpq   405500 <_ZN10QSemaphore7releaseEi@plt>
  409b75:	0f 1f 00             	nopl   (%rax)
  409b78:	48 83 c4 08          	add    $0x8,%rsp
  409b7c:	5b                   	pop    %rbx
  409b7d:	5d                   	pop    %rbp
  409b7e:	c3                   	retq   
  409b7f:	90                   	nop
  409b80:	48 8d 3d 01 cb 20 00 	lea    0x20cb01(%rip),%rdi        # 616688 <freeSpace>
  409b87:	be 01 00 00 00       	mov    $0x1,%esi
  409b8c:	e8 3f bd ff ff       	callq  4058d0 <_ZN10QSemaphore7acquireEi@plt>
  409b91:	eb c0                	jmp    409b53 <_ZN25CircularArray2DWorkerSafeIiE23safePushColumnSemaphoreEPi+0x33>
  409b93:	0f 1f 44 00 00       	nopl   0x0(%rax,%rax,1)
  409b98:	48 8d 3d e9 ca 20 00 	lea    0x20cae9(%rip),%rdi        # 616688 <freeSpace>
  409b9f:	e8 9c be ff ff       	callq  405a40 <_ZNK10QSemaphore9availableEv@plt>
  409ba4:	85 c0                	test   %eax,%eax
  409ba6:	75 8a                	jne    409b32 <_ZN25CircularArray2DWorkerSafeIiE23safePushColumnSemaphoreEPi+0x12>
  409ba8:	48 8d 3d d9 ca 20 00 	lea    0x20cad9(%rip),%rdi        # 616688 <freeSpace>
  409baf:	be 01 00 00 00       	mov    $0x1,%esi
  409bb4:	e8 17 bd ff ff       	callq  4058d0 <_ZN10QSemaphore7acquireEi@plt>
  409bb9:	48 8d 3d c8 ca 20 00 	lea    0x20cac8(%rip),%rdi        # 616688 <freeSpace>
  409bc0:	be 01 00 00 00       	mov    $0x1,%esi
  409bc5:	e8 36 b9 ff ff       	callq  405500 <_ZN10QSemaphore7releaseEi@plt>
  409bca:	e9 63 ff ff ff       	jmpq   409b32 <_ZN25CircularArray2DWorkerSafeIiE23safePushColumnSemaphoreEPi+0x12>
  409bcf:	90                   	nop
  409bd0:	48 89 df             	mov    %rbx,%rdi
  409bd3:	e8 58 e2 ff ff       	callq  407e30 <_ZN21CircularArray2DWorkerIiE26getCurrentColumnWriteIndexEv>
  409bd8:	8d 70 ff             	lea    -0x1(%rax),%esi
  409bdb:	48 89 df             	mov    %rbx,%rdi
  409bde:	e8 7d e2 ff ff       	callq  407e60 <_ZN21CircularArray2DWorkerIiE25setCurrentColumnReadIndexEi>
  409be3:	48 8d 3d 96 ca 20 00 	lea    0x20ca96(%rip),%rdi        # 616680 <usedSpace>
  409bea:	e8 51 be ff ff       	callq  405a40 <_ZNK10QSemaphore9availableEv@plt>
  409bef:	48 8d 3d 92 ca 20 00 	lea    0x20ca92(%rip),%rdi        # 616688 <freeSpace>
  409bf6:	89 c6                	mov    %eax,%esi
  409bf8:	89 c3                	mov    %eax,%ebx
  409bfa:	e8 01 b9 ff ff       	callq  405500 <_ZN10QSemaphore7releaseEi@plt>
  409bff:	48 83 c4 08          	add    $0x8,%rsp
  409c03:	89 de                	mov    %ebx,%esi
  409c05:	48 8d 3d 74 ca 20 00 	lea    0x20ca74(%rip),%rdi        # 616680 <usedSpace>
  409c0c:	5b                   	pop    %rbx
  409c0d:	5d                   	pop    %rbp
  409c0e:	e9 bd bc ff ff       	jmpq   4058d0 <_ZN10QSemaphore7acquireEi@plt>
  409c13:	66 2e 0f 1f 84 00 00 	nopw   %cs:0x0(%rax,%rax,1)
  409c1a:	00 00 00 
  409c1d:	0f 1f 00             	nopl   (%rax)

0000000000409c20 <_ZN25CircularArray2DWorkerSafeIiE14fastPushColumnEPi>:
  409c20:	e9 6b e1 ff ff       	jmpq   407d90 <_ZN21CircularArray2DWorkerIiE10pushColumnEPi>
  409c25:	66 2e 0f 1f 84 00 00 	nopw   %cs:0x0(%rax,%rax,1)
  409c2c:	00 00 00 
  409c2f:	90                   	nop

0000000000409c30 <_ZN25CircularArray2DWorkerSafeIiE21safePopBlockSemaphoreEP13Array2DWorkerIiE>:
  409c30:	41 54                	push   %r12
  409c32:	ba 32 00 00 00       	mov    $0x32,%edx
  409c37:	49 89 f4             	mov    %rsi,%r12
  409c3a:	be f4 01 00 00       	mov    $0x1f4,%esi
  409c3f:	55                   	push   %rbp
  409c40:	48 89 fd             	mov    %rdi,%rbp
  409c43:	48 8d 3d 36 ca 20 00 	lea    0x20ca36(%rip),%rdi        # 616680 <usedSpace>
  409c4a:	53                   	push   %rbx
  409c4b:	e8 f0 b7 ff ff       	callq  405440 <_ZN10QSemaphore10tryAcquireEii@plt>
  409c50:	84 c0                	test   %al,%al
  409c52:	74 41                	je     409c95 <_ZN25CircularArray2DWorkerSafeIiE21safePopBlockSemaphoreEP13Array2DWorkerIiE+0x65>
  409c54:	31 db                	xor    %ebx,%ebx
  409c56:	66 2e 0f 1f 84 00 00 	nopw   %cs:0x0(%rax,%rax,1)
  409c5d:	00 00 00 
  409c60:	48 89 ef             	mov    %rbp,%rdi
  409c63:	e8 18 e2 ff ff       	callq  407e80 <_ZN21CircularArray2DWorkerIiE9popColumnEv>
  409c68:	89 de                	mov    %ebx,%esi
  409c6a:	48 89 c2             	mov    %rax,%rdx
  409c6d:	4c 89 e7             	mov    %r12,%rdi
  409c70:	83 c3 01             	add    $0x1,%ebx
  409c73:	e8 58 d6 ff ff       	callq  4072d0 <_ZN13Array2DWorkerIiE9setColumnEiPi>
  409c78:	81 fb f4 01 00 00    	cmp    $0x1f4,%ebx
  409c7e:	75 e0                	jne    409c60 <_ZN25CircularArray2DWorkerSafeIiE21safePopBlockSemaphoreEP13Array2DWorkerIiE+0x30>
  409c80:	5b                   	pop    %rbx
  409c81:	5d                   	pop    %rbp
  409c82:	41 5c                	pop    %r12
  409c84:	48 8d 3d fd c9 20 00 	lea    0x20c9fd(%rip),%rdi        # 616688 <freeSpace>
  409c8b:	be f4 01 00 00       	mov    $0x1f4,%esi
  409c90:	e9 6b b8 ff ff       	jmpq   405500 <_ZN10QSemaphore7releaseEi@plt>
  409c95:	5b                   	pop    %rbx
  409c96:	5d                   	pop    %rbp
  409c97:	41 5c                	pop    %r12
  409c99:	c3                   	retq   
  409c9a:	66 0f 1f 44 00 00    	nopw   0x0(%rax,%rax,1)

0000000000409ca0 <_ZN25CircularArray2DWorkerSafeIiE25getFreeSlotCountSemaphoreEv>:
  409ca0:	48 8d 3d e1 c9 20 00 	lea    0x20c9e1(%rip),%rdi        # 616688 <freeSpace>
  409ca7:	e9 94 bd ff ff       	jmpq   405a40 <_ZNK10QSemaphore9availableEv@plt>
  409cac:	0f 1f 40 00          	nopl   0x0(%rax)

0000000000409cb0 <_ZN25CircularArray2DWorkerSafeIiE21getFreeSlotCountMutexEv>:
  409cb0:	8b 47 60             	mov    0x60(%rdi),%eax
  409cb3:	c3                   	retq   
  409cb4:	66 2e 0f 1f 84 00 00 	nopw   %cs:0x0(%rax,%rax,1)
  409cbb:	00 00 00 
  409cbe:	66 90                	xchg   %ax,%ax

0000000000409cc0 <_ZN25CircularArray2DWorkerSafeIiE23getFilledSlotCountMutexEv>:
  409cc0:	8b 47 5c             	mov    0x5c(%rdi),%eax
  409cc3:	c3                   	retq   
  409cc4:	66 2e 0f 1f 84 00 00 	nopw   %cs:0x0(%rax,%rax,1)
  409ccb:	00 00 00 
  409cce:	66 90                	xchg   %ax,%ax

0000000000409cd0 <_ZN25CircularArray2DWorkerSafeIiE16getNumFreeSpacesEv>:
  409cd0:	8b 47 60             	mov    0x60(%rdi),%eax
  409cd3:	c3                   	retq   
  409cd4:	66 2e 0f 1f 84 00 00 	nopw   %cs:0x0(%rax,%rax,1)
  409cdb:	00 00 00 
  409cde:	66 90                	xchg   %ax,%ax

0000000000409ce0 <_ZN25CircularArray2DWorkerSafeIiE16getNumUsedSpacesEv>:
  409ce0:	8b 47 5c             	mov    0x5c(%rdi),%eax
  409ce3:	c3                   	retq   
  409ce4:	66 2e 0f 1f 84 00 00 	nopw   %cs:0x0(%rax,%rax,1)
  409ceb:	00 00 00 
  409cee:	66 90                	xchg   %ax,%ax

0000000000409cf0 <_ZN25CircularArray2DWorkerSafeIiE19modifyNumFreeSpacesEi>:
  409cf0:	41 54                	push   %r12
  409cf2:	41 89 f4             	mov    %esi,%r12d
  409cf5:	55                   	push   %rbp
  409cf6:	48 8d 6f 40          	lea    0x40(%rdi),%rbp
  409cfa:	53                   	push   %rbx
  409cfb:	48 89 fb             	mov    %rdi,%rbx
  409cfe:	48 89 ef             	mov    %rbp,%rdi
  409d01:	e8 aa bb ff ff       	callq  4058b0 <_ZN6QMutex4lockEv@plt>
  409d06:	44 01 63 60          	add    %r12d,0x60(%rbx)
  409d0a:	44 29 63 5c          	sub    %r12d,0x5c(%rbx)
  409d0e:	48 89 ef             	mov    %rbp,%rdi
  409d11:	5b                   	pop    %rbx
  409d12:	5d                   	pop    %rbp
  409d13:	41 5c                	pop    %r12
  409d15:	e9 76 bc ff ff       	jmpq   405990 <_ZN6QMutex6unlockEv@plt>
  409d1a:	66 0f 1f 44 00 00    	nopw   0x0(%rax,%rax,1)

0000000000409d20 <_ZN25CircularArray2DWorkerSafeIiE17safePopBlockMutexEP13Array2DWorkerIiE>:
  409d20:	41 54                	push   %r12
  409d22:	49 89 f4             	mov    %rsi,%r12
  409d25:	55                   	push   %rbp
  409d26:	48 89 fd             	mov    %rdi,%rbp
  409d29:	53                   	push   %rbx
  409d2a:	e8 b1 ff ff ff       	callq  409ce0 <_ZN25CircularArray2DWorkerSafeIiE16getNumUsedSpacesEv>
  409d2f:	85 c0                	test   %eax,%eax
  409d31:	74 3f                	je     409d72 <_ZN25CircularArray2DWorkerSafeIiE17safePopBlockMutexEP13Array2DWorkerIiE+0x52>
  409d33:	31 db                	xor    %ebx,%ebx
  409d35:	0f 1f 00             	nopl   (%rax)
  409d38:	48 89 ef             	mov    %rbp,%rdi
  409d3b:	e8 40 e1 ff ff       	callq  407e80 <_ZN21CircularArray2DWorkerIiE9popColumnEv>
  409d40:	89 de                	mov    %ebx,%esi
  409d42:	48 89 c2             	mov    %rax,%rdx
  409d45:	4c 89 e7             	mov    %r12,%rdi
  409d48:	83 c3 01             	add    $0x1,%ebx
  409d4b:	e8 80 d5 ff ff       	callq  4072d0 <_ZN13Array2DWorkerIiE9setColumnEiPi>
  409d50:	81 fb f4 01 00 00    	cmp    $0x1f4,%ebx
  409d56:	75 e0                	jne    409d38 <_ZN25CircularArray2DWorkerSafeIiE17safePopBlockMutexEP13Array2DWorkerIiE+0x18>
  409d58:	48 89 ef             	mov    %rbp,%rdi
  409d5b:	be f4 01 00 00       	mov    $0x1f4,%esi
  409d60:	e8 8b ff ff ff       	callq  409cf0 <_ZN25CircularArray2DWorkerSafeIiE19modifyNumFreeSpacesEi>
  409d65:	5b                   	pop    %rbx
  409d66:	48 8d 7d 30          	lea    0x30(%rbp),%rdi
  409d6a:	5d                   	pop    %rbp
  409d6b:	41 5c                	pop    %r12
  409d6d:	e9 8e b2 ff ff       	jmpq   405000 <_ZN14QWaitCondition7wakeAllEv@plt>
  409d72:	48 8d 75 50          	lea    0x50(%rbp),%rsi
  409d76:	48 8d 7d 38          	lea    0x38(%rbp),%rdi
  409d7a:	48 c7 c2 ff ff ff ff 	mov    $0xffffffffffffffff,%rdx
  409d81:	e8 aa b9 ff ff       	callq  405730 <_ZN14QWaitCondition4waitEP6QMutexm@plt>
  409d86:	eb ab                	jmp    409d33 <_ZN25CircularArray2DWorkerSafeIiE17safePopBlockMutexEP13Array2DWorkerIiE+0x13>
  409d88:	0f 1f 84 00 00 00 00 	nopl   0x0(%rax,%rax,1)
  409d8f:	00 

0000000000409d90 <_ZN25CircularArray2DWorkerSafeIiE18safePopSingleMutexEP13Array2DWorkerIiE>:
  409d90:	55                   	push   %rbp
  409d91:	48 89 f5             	mov    %rsi,%rbp
  409d94:	53                   	push   %rbx
  409d95:	48 89 fb             	mov    %rdi,%rbx
  409d98:	48 83 ec 08          	sub    $0x8,%rsp
  409d9c:	e8 3f ff ff ff       	callq  409ce0 <_ZN25CircularArray2DWorkerSafeIiE16getNumUsedSpacesEv>
  409da1:	85 c0                	test   %eax,%eax
  409da3:	7e 3b                	jle    409de0 <_ZN25CircularArray2DWorkerSafeIiE18safePopSingleMutexEP13Array2DWorkerIiE+0x50>
  409da5:	48 89 df             	mov    %rbx,%rdi
  409da8:	e8 d3 e0 ff ff       	callq  407e80 <_ZN21CircularArray2DWorkerIiE9popColumnEv>
  409dad:	48 89 ef             	mov    %rbp,%rdi
  409db0:	48 89 c2             	mov    %rax,%rdx
  409db3:	31 f6                	xor    %esi,%esi
  409db5:	e8 16 d5 ff ff       	callq  4072d0 <_ZN13Array2DWorkerIiE9setColumnEiPi>
  409dba:	48 89 df             	mov    %rbx,%rdi
  409dbd:	be 01 00 00 00       	mov    $0x1,%esi
  409dc2:	e8 29 ff ff ff       	callq  409cf0 <_ZN25CircularArray2DWorkerSafeIiE19modifyNumFreeSpacesEi>
  409dc7:	48 83 c4 08          	add    $0x8,%rsp
  409dcb:	48 8d 7b 30          	lea    0x30(%rbx),%rdi
  409dcf:	5b                   	pop    %rbx
  409dd0:	5d                   	pop    %rbp
  409dd1:	e9 2a b2 ff ff       	jmpq   405000 <_ZN14QWaitCondition7wakeAllEv@plt>
  409dd6:	66 2e 0f 1f 84 00 00 	nopw   %cs:0x0(%rax,%rax,1)
  409ddd:	00 00 00 
  409de0:	48 83 c4 08          	add    $0x8,%rsp
  409de4:	5b                   	pop    %rbx
  409de5:	5d                   	pop    %rbp
  409de6:	c3                   	retq   
  409de7:	66 0f 1f 84 00 00 00 	nopw   0x0(%rax,%rax,1)
  409dee:	00 00 

0000000000409df0 <_ZN25CircularArray2DWorkerSafeIiE15resetFreeSpacesEv>:
  409df0:	55                   	push   %rbp
  409df1:	48 8d 6f 40          	lea    0x40(%rdi),%rbp
  409df5:	53                   	push   %rbx
  409df6:	48 89 fb             	mov    %rdi,%rbx
  409df9:	48 89 ef             	mov    %rbp,%rdi
  409dfc:	48 83 ec 08          	sub    $0x8,%rsp
  409e00:	e8 ab ba ff ff       	callq  4058b0 <_ZN6QMutex4lockEv@plt>
  409e05:	48 89 df             	mov    %rbx,%rdi
  409e08:	e8 b3 d2 ff ff       	callq  4070c0 <_ZN13Array2DWorkerIiE14getColumnCountEv>
  409e0d:	c7 43 5c 00 00 00 00 	movl   $0x0,0x5c(%rbx)
  409e14:	89 43 60             	mov    %eax,0x60(%rbx)
  409e17:	48 83 c4 08          	add    $0x8,%rsp
  409e1b:	5b                   	pop    %rbx
  409e1c:	48 89 ef             	mov    %rbp,%rdi
  409e1f:	5d                   	pop    %rbp
  409e20:	e9 6b bb ff ff       	jmpq   405990 <_ZN6QMutex6unlockEv@plt>
  409e25:	66 2e 0f 1f 84 00 00 	nopw   %cs:0x0(%rax,%rax,1)
  409e2c:	00 00 00 
  409e2f:	90                   	nop

0000000000409e30 <_ZN25CircularArray2DWorkerSafeIiE19safePushColumnMutexEPi>:
  409e30:	55                   	push   %rbp
  409e31:	48 89 f5             	mov    %rsi,%rbp
  409e34:	53                   	push   %rbx
  409e35:	48 89 fb             	mov    %rdi,%rbx
  409e38:	48 83 ec 08          	sub    $0x8,%rsp
  409e3c:	80 7f 64 00          	cmpb   $0x0,0x64(%rdi)
  409e40:	75 6e                	jne    409eb0 <_ZN25CircularArray2DWorkerSafeIiE19safePushColumnMutexEPi+0x80>
  409e42:	8b 43 58             	mov    0x58(%rbx),%eax
  409e45:	85 c0                	test   %eax,%eax
  409e47:	74 47                	je     409e90 <_ZN25CircularArray2DWorkerSafeIiE19safePushColumnMutexEPi+0x60>
  409e49:	83 f8 01             	cmp    $0x1,%eax
  409e4c:	75 37                	jne    409e85 <_ZN25CircularArray2DWorkerSafeIiE19safePushColumnMutexEPi+0x55>
  409e4e:	48 89 df             	mov    %rbx,%rdi
  409e51:	e8 7a fe ff ff       	callq  409cd0 <_ZN25CircularArray2DWorkerSafeIiE16getNumFreeSpacesEv>
  409e56:	85 c0                	test   %eax,%eax
  409e58:	0f 8e 92 00 00 00    	jle    409ef0 <_ZN25CircularArray2DWorkerSafeIiE19safePushColumnMutexEPi+0xc0>
  409e5e:	be ff ff ff ff       	mov    $0xffffffff,%esi
  409e63:	48 89 df             	mov    %rbx,%rdi
  409e66:	e8 85 fe ff ff       	callq  409cf0 <_ZN25CircularArray2DWorkerSafeIiE19modifyNumFreeSpacesEi>
  409e6b:	48 89 ee             	mov    %rbp,%rsi
  409e6e:	48 89 df             	mov    %rbx,%rdi
  409e71:	e8 1a df ff ff       	callq  407d90 <_ZN21CircularArray2DWorkerIiE10pushColumnEPi>
  409e76:	48 89 df             	mov    %rbx,%rdi
  409e79:	e8 52 fe ff ff       	callq  409cd0 <_ZN25CircularArray2DWorkerSafeIiE16getNumFreeSpacesEv>
  409e7e:	3d f4 01 00 00       	cmp    $0x1f4,%eax
  409e83:	7f 53                	jg     409ed8 <_ZN25CircularArray2DWorkerSafeIiE19safePushColumnMutexEPi+0xa8>
  409e85:	48 83 c4 08          	add    $0x8,%rsp
  409e89:	5b                   	pop    %rbx
  409e8a:	5d                   	pop    %rbp
  409e8b:	c3                   	retq   
  409e8c:	0f 1f 40 00          	nopl   0x0(%rax)
  409e90:	48 89 df             	mov    %rbx,%rdi
  409e93:	be ff ff ff ff       	mov    $0xffffffff,%esi
  409e98:	e8 53 fe ff ff       	callq  409cf0 <_ZN25CircularArray2DWorkerSafeIiE19modifyNumFreeSpacesEi>
  409e9d:	48 83 c4 08          	add    $0x8,%rsp
  409ea1:	48 89 df             	mov    %rbx,%rdi
  409ea4:	48 89 ee             	mov    %rbp,%rsi
  409ea7:	5b                   	pop    %rbx
  409ea8:	5d                   	pop    %rbp
  409ea9:	e9 e2 de ff ff       	jmpq   407d90 <_ZN21CircularArray2DWorkerIiE10pushColumnEPi>
  409eae:	66 90                	xchg   %ax,%ax
  409eb0:	e8 1b fe ff ff       	callq  409cd0 <_ZN25CircularArray2DWorkerSafeIiE16getNumFreeSpacesEv>
  409eb5:	85 c0                	test   %eax,%eax
  409eb7:	75 89                	jne    409e42 <_ZN25CircularArray2DWorkerSafeIiE19safePushColumnMutexEPi+0x12>
  409eb9:	48 8d 73 48          	lea    0x48(%rbx),%rsi
  409ebd:	48 8d 7b 30          	lea    0x30(%rbx),%rdi
  409ec1:	48 c7 c2 ff ff ff ff 	mov    $0xffffffffffffffff,%rdx
  409ec8:	e8 63 b8 ff ff       	callq  405730 <_ZN14QWaitCondition4waitEP6QMutexm@plt>
  409ecd:	e9 70 ff ff ff       	jmpq   409e42 <_ZN25CircularArray2DWorkerSafeIiE19safePushColumnMutexEPi+0x12>
  409ed2:	66 0f 1f 44 00 00    	nopw   0x0(%rax,%rax,1)
  409ed8:	48 83 c4 08          	add    $0x8,%rsp
  409edc:	48 8d 7b 38          	lea    0x38(%rbx),%rdi
  409ee0:	5b                   	pop    %rbx
  409ee1:	5d                   	pop    %rbp
  409ee2:	e9 19 b1 ff ff       	jmpq   405000 <_ZN14QWaitCondition7wakeAllEv@plt>
  409ee7:	66 0f 1f 84 00 00 00 	nopw   0x0(%rax,%rax,1)
  409eee:	00 00 
  409ef0:	48 83 c4 08          	add    $0x8,%rsp
  409ef4:	48 89 df             	mov    %rbx,%rdi
  409ef7:	5b                   	pop    %rbx
  409ef8:	5d                   	pop    %rbp
  409ef9:	e9 f2 fe ff ff       	jmpq   409df0 <_ZN25CircularArray2DWorkerSafeIiE15resetFreeSpacesEv>
  409efe:	66 90                	xchg   %ax,%ax

0000000000409f00 <_ZN25CircularArray2DWorkerSafeIfEC1ENS0_8priorityEbii>:
  409f00:	41 57                	push   %r15
  409f02:	41 89 f7             	mov    %esi,%r15d
  409f05:	89 ce                	mov    %ecx,%esi
  409f07:	41 56                	push   %r14
  409f09:	41 89 d6             	mov    %edx,%r14d
  409f0c:	44 89 c2             	mov    %r8d,%edx
  409f0f:	41 55                	push   %r13
  409f11:	41 54                	push   %r12
  409f13:	55                   	push   %rbp
  409f14:	44 89 c5             	mov    %r8d,%ebp
  409f17:	53                   	push   %rbx
  409f18:	48 89 fb             	mov    %rdi,%rbx
  409f1b:	48 83 ec 18          	sub    $0x18,%rsp
  409f1f:	e8 1c e2 ff ff       	callq  408140 <_ZN21CircularArray2DWorkerIfEC1Eii>
  409f24:	48 8d 43 30          	lea    0x30(%rbx),%rax
  409f28:	48 89 c7             	mov    %rax,%rdi
  409f2b:	48 89 04 24          	mov    %rax,(%rsp)
  409f2f:	e8 dc b5 ff ff       	callq  405510 <_ZN14QWaitConditionC1Ev@plt>
  409f34:	48 8d 43 38          	lea    0x38(%rbx),%rax
  409f38:	48 89 c7             	mov    %rax,%rdi
  409f3b:	48 89 44 24 08       	mov    %rax,0x8(%rsp)
  409f40:	e8 cb b5 ff ff       	callq  405510 <_ZN14QWaitConditionC1Ev@plt>
  409f45:	4c 8d 63 40          	lea    0x40(%rbx),%r12
  409f49:	31 f6                	xor    %esi,%esi
  409f4b:	4c 89 e7             	mov    %r12,%rdi
  409f4e:	e8 2d b0 ff ff       	callq  404f80 <_ZN6QMutexC1ENS_13RecursionModeE@plt>
  409f53:	4c 8d 6b 48          	lea    0x48(%rbx),%r13
  409f57:	31 f6                	xor    %esi,%esi
  409f59:	4c 89 ef             	mov    %r13,%rdi
  409f5c:	e8 1f b0 ff ff       	callq  404f80 <_ZN6QMutexC1ENS_13RecursionModeE@plt>
  409f61:	48 8d 7b 50          	lea    0x50(%rbx),%rdi
  409f65:	31 f6                	xor    %esi,%esi
  409f67:	e8 14 b0 ff ff       	callq  404f80 <_ZN6QMutexC1ENS_13RecursionModeE@plt>
  409f6c:	44 89 7b 58          	mov    %r15d,0x58(%rbx)
  409f70:	89 6b 60             	mov    %ebp,0x60(%rbx)
  409f73:	44 88 73 64          	mov    %r14b,0x64(%rbx)
  409f77:	c7 43 5c 00 00 00 00 	movl   $0x0,0x5c(%rbx)
  409f7e:	c6 43 65 00          	movb   $0x0,0x65(%rbx)
  409f82:	48 83 c4 18          	add    $0x18,%rsp
  409f86:	5b                   	pop    %rbx
  409f87:	5d                   	pop    %rbp
  409f88:	41 5c                	pop    %r12
  409f8a:	41 5d                	pop    %r13
  409f8c:	41 5e                	pop    %r14
  409f8e:	41 5f                	pop    %r15
  409f90:	c3                   	retq   
  409f91:	48 89 c5             	mov    %rax,%rbp
  409f94:	48 89 df             	mov    %rbx,%rdi
  409f97:	e8 d4 e1 ff ff       	callq  408170 <_ZN21CircularArray2DWorkerIfED1Ev>
  409f9c:	48 89 ef             	mov    %rbp,%rdi
  409f9f:	e8 7c b5 ff ff       	callq  405520 <_Unwind_Resume@plt>
  409fa4:	4c 89 ef             	mov    %r13,%rdi
  409fa7:	48 89 c5             	mov    %rax,%rbp
  409faa:	e8 01 b6 ff ff       	callq  4055b0 <_ZN6QMutexD1Ev@plt>
  409faf:	4c 89 e7             	mov    %r12,%rdi
  409fb2:	e8 f9 b5 ff ff       	callq  4055b0 <_ZN6QMutexD1Ev@plt>
  409fb7:	48 8b 7c 24 08       	mov    0x8(%rsp),%rdi
  409fbc:	e8 af b9 ff ff       	callq  405970 <_ZN14QWaitConditionD1Ev@plt>
  409fc1:	48 8b 3c 24          	mov    (%rsp),%rdi
  409fc5:	e8 a6 b9 ff ff       	callq  405970 <_ZN14QWaitConditionD1Ev@plt>
  409fca:	eb c8                	jmp    409f94 <_ZN25CircularArray2DWorkerSafeIfEC1ENS0_8priorityEbii+0x94>
  409fcc:	48 89 c5             	mov    %rax,%rbp
  409fcf:	eb de                	jmp    409faf <_ZN25CircularArray2DWorkerSafeIfEC1ENS0_8priorityEbii+0xaf>
  409fd1:	48 89 c5             	mov    %rax,%rbp
  409fd4:	eb e1                	jmp    409fb7 <_ZN25CircularArray2DWorkerSafeIfEC1ENS0_8priorityEbii+0xb7>
  409fd6:	48 89 c5             	mov    %rax,%rbp
  409fd9:	eb e6                	jmp    409fc1 <_ZN25CircularArray2DWorkerSafeIfEC1ENS0_8priorityEbii+0xc1>
  409fdb:	0f 1f 44 00 00       	nopl   0x0(%rax,%rax,1)

0000000000409fe0 <_ZN25CircularArray2DWorkerSafeIfED1Ev>:
  409fe0:	55                   	push   %rbp
  409fe1:	53                   	push   %rbx
  409fe2:	48 89 fb             	mov    %rdi,%rbx
  409fe5:	48 8d 7f 50          	lea    0x50(%rdi),%rdi
  409fe9:	48 83 ec 08          	sub    $0x8,%rsp
  409fed:	e8 be b5 ff ff       	callq  4055b0 <_ZN6QMutexD1Ev@plt>
  409ff2:	48 8d 7b 48          	lea    0x48(%rbx),%rdi
  409ff6:	e8 b5 b5 ff ff       	callq  4055b0 <_ZN6QMutexD1Ev@plt>
  409ffb:	48 8d 7b 40          	lea    0x40(%rbx),%rdi
  409fff:	e8 ac b5 ff ff       	callq  4055b0 <_ZN6QMutexD1Ev@plt>
  40a004:	48 8d 7b 38          	lea    0x38(%rbx),%rdi
  40a008:	e8 63 b9 ff ff       	callq  405970 <_ZN14QWaitConditionD1Ev@plt>
  40a00d:	48 8d 7b 30          	lea    0x30(%rbx),%rdi
  40a011:	e8 5a b9 ff ff       	callq  405970 <_ZN14QWaitConditionD1Ev@plt>
  40a016:	48 83 c4 08          	add    $0x8,%rsp
  40a01a:	48 89 df             	mov    %rbx,%rdi
  40a01d:	5b                   	pop    %rbx
  40a01e:	5d                   	pop    %rbp
  40a01f:	e9 4c e1 ff ff       	jmpq   408170 <_ZN21CircularArray2DWorkerIfED1Ev>
  40a024:	48 8d 7b 48          	lea    0x48(%rbx),%rdi
  40a028:	48 89 c5             	mov    %rax,%rbp
  40a02b:	e8 80 b5 ff ff       	callq  4055b0 <_ZN6QMutexD1Ev@plt>
  40a030:	48 8d 7b 40          	lea    0x40(%rbx),%rdi
  40a034:	e8 77 b5 ff ff       	callq  4055b0 <_ZN6QMutexD1Ev@plt>
  40a039:	48 8d 7b 38          	lea    0x38(%rbx),%rdi
  40a03d:	e8 2e b9 ff ff       	callq  405970 <_ZN14QWaitConditionD1Ev@plt>
  40a042:	48 8d 7b 30          	lea    0x30(%rbx),%rdi
  40a046:	e8 25 b9 ff ff       	callq  405970 <_ZN14QWaitConditionD1Ev@plt>
  40a04b:	48 89 df             	mov    %rbx,%rdi
  40a04e:	e8 1d e1 ff ff       	callq  408170 <_ZN21CircularArray2DWorkerIfED1Ev>
  40a053:	48 89 ef             	mov    %rbp,%rdi
  40a056:	e8 c5 b4 ff ff       	callq  405520 <_Unwind_Resume@plt>
  40a05b:	48 89 c5             	mov    %rax,%rbp
  40a05e:	eb eb                	jmp    40a04b <_ZN25CircularArray2DWorkerSafeIfED1Ev+0x6b>
  40a060:	48 89 c5             	mov    %rax,%rbp
  40a063:	eb dd                	jmp    40a042 <_ZN25CircularArray2DWorkerSafeIfED1Ev+0x62>
  40a065:	48 89 c5             	mov    %rax,%rbp
  40a068:	eb cf                	jmp    40a039 <_ZN25CircularArray2DWorkerSafeIfED1Ev+0x59>
  40a06a:	48 89 c5             	mov    %rax,%rbp
  40a06d:	eb c1                	jmp    40a030 <_ZN25CircularArray2DWorkerSafeIfED1Ev+0x50>
  40a06f:	90                   	nop

000000000040a070 <_ZN25CircularArray2DWorkerSafeIfE23safePushColumnSemaphoreEPf>:
  40a070:	55                   	push   %rbp
  40a071:	48 89 f5             	mov    %rsi,%rbp
  40a074:	53                   	push   %rbx
  40a075:	48 89 fb             	mov    %rdi,%rbx
  40a078:	48 83 ec 08          	sub    $0x8,%rsp
  40a07c:	80 7f 64 00          	cmpb   $0x0,0x64(%rdi)
  40a080:	75 66                	jne    40a0e8 <_ZN25CircularArray2DWorkerSafeIfE23safePushColumnSemaphoreEPf+0x78>
  40a082:	8b 43 58             	mov    0x58(%rbx),%eax
  40a085:	85 c0                	test   %eax,%eax
  40a087:	74 47                	je     40a0d0 <_ZN25CircularArray2DWorkerSafeIfE23safePushColumnSemaphoreEPf+0x60>
  40a089:	83 f8 01             	cmp    $0x1,%eax
  40a08c:	75 3a                	jne    40a0c8 <_ZN25CircularArray2DWorkerSafeIfE23safePushColumnSemaphoreEPf+0x58>
  40a08e:	48 8d 3d f3 c5 20 00 	lea    0x20c5f3(%rip),%rdi        # 616688 <freeSpace>
  40a095:	be 01 00 00 00       	mov    $0x1,%esi
  40a09a:	e8 81 b9 ff ff       	callq  405a20 <_ZN10QSemaphore10tryAcquireEi@plt>
  40a09f:	84 c0                	test   %al,%al
  40a0a1:	74 7d                	je     40a120 <_ZN25CircularArray2DWorkerSafeIfE23safePushColumnSemaphoreEPf+0xb0>
  40a0a3:	48 89 ee             	mov    %rbp,%rsi
  40a0a6:	48 89 df             	mov    %rbx,%rdi
  40a0a9:	e8 e2 e0 ff ff       	callq  408190 <_ZN21CircularArray2DWorkerIfE10pushColumnEPf>
  40a0ae:	48 83 c4 08          	add    $0x8,%rsp
  40a0b2:	48 8d 3d c7 c5 20 00 	lea    0x20c5c7(%rip),%rdi        # 616680 <usedSpace>
  40a0b9:	be 01 00 00 00       	mov    $0x1,%esi
  40a0be:	5b                   	pop    %rbx
  40a0bf:	5d                   	pop    %rbp
  40a0c0:	e9 3b b4 ff ff       	jmpq   405500 <_ZN10QSemaphore7releaseEi@plt>
  40a0c5:	0f 1f 00             	nopl   (%rax)
  40a0c8:	48 83 c4 08          	add    $0x8,%rsp
  40a0cc:	5b                   	pop    %rbx
  40a0cd:	5d                   	pop    %rbp
  40a0ce:	c3                   	retq   
  40a0cf:	90                   	nop
  40a0d0:	48 8d 3d b1 c5 20 00 	lea    0x20c5b1(%rip),%rdi        # 616688 <freeSpace>
  40a0d7:	be 01 00 00 00       	mov    $0x1,%esi
  40a0dc:	e8 ef b7 ff ff       	callq  4058d0 <_ZN10QSemaphore7acquireEi@plt>
  40a0e1:	eb c0                	jmp    40a0a3 <_ZN25CircularArray2DWorkerSafeIfE23safePushColumnSemaphoreEPf+0x33>
  40a0e3:	0f 1f 44 00 00       	nopl   0x0(%rax,%rax,1)
  40a0e8:	48 8d 3d 99 c5 20 00 	lea    0x20c599(%rip),%rdi        # 616688 <freeSpace>
  40a0ef:	e8 4c b9 ff ff       	callq  405a40 <_ZNK10QSemaphore9availableEv@plt>
  40a0f4:	85 c0                	test   %eax,%eax
  40a0f6:	75 8a                	jne    40a082 <_ZN25CircularArray2DWorkerSafeIfE23safePushColumnSemaphoreEPf+0x12>
  40a0f8:	48 8d 3d 89 c5 20 00 	lea    0x20c589(%rip),%rdi        # 616688 <freeSpace>
  40a0ff:	be 01 00 00 00       	mov    $0x1,%esi
  40a104:	e8 c7 b7 ff ff       	callq  4058d0 <_ZN10QSemaphore7acquireEi@plt>
  40a109:	48 8d 3d 78 c5 20 00 	lea    0x20c578(%rip),%rdi        # 616688 <freeSpace>
  40a110:	be 01 00 00 00       	mov    $0x1,%esi
  40a115:	e8 e6 b3 ff ff       	callq  405500 <_ZN10QSemaphore7releaseEi@plt>
  40a11a:	e9 63 ff ff ff       	jmpq   40a082 <_ZN25CircularArray2DWorkerSafeIfE23safePushColumnSemaphoreEPf+0x12>
  40a11f:	90                   	nop
  40a120:	48 89 df             	mov    %rbx,%rdi
  40a123:	e8 08 e1 ff ff       	callq  408230 <_ZN21CircularArray2DWorkerIfE26getCurrentColumnWriteIndexEv>
  40a128:	8d 70 ff             	lea    -0x1(%rax),%esi
  40a12b:	48 89 df             	mov    %rbx,%rdi
  40a12e:	e8 2d e1 ff ff       	callq  408260 <_ZN21CircularArray2DWorkerIfE25setCurrentColumnReadIndexEi>
  40a133:	48 8d 3d 46 c5 20 00 	lea    0x20c546(%rip),%rdi        # 616680 <usedSpace>
  40a13a:	e8 01 b9 ff ff       	callq  405a40 <_ZNK10QSemaphore9availableEv@plt>
  40a13f:	48 8d 3d 42 c5 20 00 	lea    0x20c542(%rip),%rdi        # 616688 <freeSpace>
  40a146:	89 c6                	mov    %eax,%esi
  40a148:	89 c3                	mov    %eax,%ebx
  40a14a:	e8 b1 b3 ff ff       	callq  405500 <_ZN10QSemaphore7releaseEi@plt>
  40a14f:	48 83 c4 08          	add    $0x8,%rsp
  40a153:	89 de                	mov    %ebx,%esi
  40a155:	48 8d 3d 24 c5 20 00 	lea    0x20c524(%rip),%rdi        # 616680 <usedSpace>
  40a15c:	5b                   	pop    %rbx
  40a15d:	5d                   	pop    %rbp
  40a15e:	e9 6d b7 ff ff       	jmpq   4058d0 <_ZN10QSemaphore7acquireEi@plt>
  40a163:	66 2e 0f 1f 84 00 00 	nopw   %cs:0x0(%rax,%rax,1)
  40a16a:	00 00 00 
  40a16d:	0f 1f 00             	nopl   (%rax)

000000000040a170 <_ZN25CircularArray2DWorkerSafeIfE14fastPushColumnEPf>:
  40a170:	e9 1b e0 ff ff       	jmpq   408190 <_ZN21CircularArray2DWorkerIfE10pushColumnEPf>
  40a175:	66 2e 0f 1f 84 00 00 	nopw   %cs:0x0(%rax,%rax,1)
  40a17c:	00 00 00 
  40a17f:	90                   	nop

000000000040a180 <_ZN25CircularArray2DWorkerSafeIfE21safePopBlockSemaphoreEP13Array2DWorkerIfE>:
  40a180:	41 54                	push   %r12
  40a182:	ba 32 00 00 00       	mov    $0x32,%edx
  40a187:	49 89 f4             	mov    %rsi,%r12
  40a18a:	be f4 01 00 00       	mov    $0x1f4,%esi
  40a18f:	55                   	push   %rbp
  40a190:	48 89 fd             	mov    %rdi,%rbp
  40a193:	48 8d 3d e6 c4 20 00 	lea    0x20c4e6(%rip),%rdi        # 616680 <usedSpace>
  40a19a:	53                   	push   %rbx
  40a19b:	e8 a0 b2 ff ff       	callq  405440 <_ZN10QSemaphore10tryAcquireEii@plt>
  40a1a0:	84 c0                	test   %al,%al
  40a1a2:	74 41                	je     40a1e5 <_ZN25CircularArray2DWorkerSafeIfE21safePopBlockSemaphoreEP13Array2DWorkerIfE+0x65>
  40a1a4:	31 db                	xor    %ebx,%ebx
  40a1a6:	66 2e 0f 1f 84 00 00 	nopw   %cs:0x0(%rax,%rax,1)
  40a1ad:	00 00 00 
  40a1b0:	48 89 ef             	mov    %rbp,%rdi
  40a1b3:	e8 c8 e0 ff ff       	callq  408280 <_ZN21CircularArray2DWorkerIfE9popColumnEv>
  40a1b8:	89 de                	mov    %ebx,%esi
  40a1ba:	48 89 c2             	mov    %rax,%rdx
  40a1bd:	4c 89 e7             	mov    %r12,%rdi
  40a1c0:	83 c3 01             	add    $0x1,%ebx
  40a1c3:	e8 88 d5 ff ff       	callq  407750 <_ZN13Array2DWorkerIfE9setColumnEiPf>
  40a1c8:	81 fb f4 01 00 00    	cmp    $0x1f4,%ebx
  40a1ce:	75 e0                	jne    40a1b0 <_ZN25CircularArray2DWorkerSafeIfE21safePopBlockSemaphoreEP13Array2DWorkerIfE+0x30>
  40a1d0:	5b                   	pop    %rbx
  40a1d1:	5d                   	pop    %rbp
  40a1d2:	41 5c                	pop    %r12
  40a1d4:	48 8d 3d ad c4 20 00 	lea    0x20c4ad(%rip),%rdi        # 616688 <freeSpace>
  40a1db:	be f4 01 00 00       	mov    $0x1f4,%esi
  40a1e0:	e9 1b b3 ff ff       	jmpq   405500 <_ZN10QSemaphore7releaseEi@plt>
  40a1e5:	5b                   	pop    %rbx
  40a1e6:	5d                   	pop    %rbp
  40a1e7:	41 5c                	pop    %r12
  40a1e9:	c3                   	retq   
  40a1ea:	66 0f 1f 44 00 00    	nopw   0x0(%rax,%rax,1)

000000000040a1f0 <_ZN25CircularArray2DWorkerSafeIfE25getFreeSlotCountSemaphoreEv>:
  40a1f0:	48 8d 3d 91 c4 20 00 	lea    0x20c491(%rip),%rdi        # 616688 <freeSpace>
  40a1f7:	e9 44 b8 ff ff       	jmpq   405a40 <_ZNK10QSemaphore9availableEv@plt>
  40a1fc:	0f 1f 40 00          	nopl   0x0(%rax)

000000000040a200 <_ZN25CircularArray2DWorkerSafeIfE21getFreeSlotCountMutexEv>:
  40a200:	8b 47 60             	mov    0x60(%rdi),%eax
  40a203:	c3                   	retq   
  40a204:	66 2e 0f 1f 84 00 00 	nopw   %cs:0x0(%rax,%rax,1)
  40a20b:	00 00 00 
  40a20e:	66 90                	xchg   %ax,%ax

000000000040a210 <_ZN25CircularArray2DWorkerSafeIfE23getFilledSlotCountMutexEv>:
  40a210:	8b 47 5c             	mov    0x5c(%rdi),%eax
  40a213:	c3                   	retq   
  40a214:	66 2e 0f 1f 84 00 00 	nopw   %cs:0x0(%rax,%rax,1)
  40a21b:	00 00 00 
  40a21e:	66 90                	xchg   %ax,%ax

000000000040a220 <_ZN25CircularArray2DWorkerSafeIfE16getNumFreeSpacesEv>:
  40a220:	8b 47 60             	mov    0x60(%rdi),%eax
  40a223:	c3                   	retq   
  40a224:	66 2e 0f 1f 84 00 00 	nopw   %cs:0x0(%rax,%rax,1)
  40a22b:	00 00 00 
  40a22e:	66 90                	xchg   %ax,%ax

000000000040a230 <_ZN25CircularArray2DWorkerSafeIfE16getNumUsedSpacesEv>:
  40a230:	8b 47 5c             	mov    0x5c(%rdi),%eax
  40a233:	c3                   	retq   
  40a234:	66 2e 0f 1f 84 00 00 	nopw   %cs:0x0(%rax,%rax,1)
  40a23b:	00 00 00 
  40a23e:	66 90                	xchg   %ax,%ax

000000000040a240 <_ZN25CircularArray2DWorkerSafeIfE19modifyNumFreeSpacesEi>:
  40a240:	41 54                	push   %r12
  40a242:	41 89 f4             	mov    %esi,%r12d
  40a245:	55                   	push   %rbp
  40a246:	48 8d 6f 40          	lea    0x40(%rdi),%rbp
  40a24a:	53                   	push   %rbx
  40a24b:	48 89 fb             	mov    %rdi,%rbx
  40a24e:	48 89 ef             	mov    %rbp,%rdi
  40a251:	e8 5a b6 ff ff       	callq  4058b0 <_ZN6QMutex4lockEv@plt>
  40a256:	44 01 63 60          	add    %r12d,0x60(%rbx)
  40a25a:	44 29 63 5c          	sub    %r12d,0x5c(%rbx)
  40a25e:	48 89 ef             	mov    %rbp,%rdi
  40a261:	5b                   	pop    %rbx
  40a262:	5d                   	pop    %rbp
  40a263:	41 5c                	pop    %r12
  40a265:	e9 26 b7 ff ff       	jmpq   405990 <_ZN6QMutex6unlockEv@plt>
  40a26a:	66 0f 1f 44 00 00    	nopw   0x0(%rax,%rax,1)

000000000040a270 <_ZN25CircularArray2DWorkerSafeIfE17safePopBlockMutexEP13Array2DWorkerIfE>:
  40a270:	41 54                	push   %r12
  40a272:	49 89 f4             	mov    %rsi,%r12
  40a275:	55                   	push   %rbp
  40a276:	48 89 fd             	mov    %rdi,%rbp
  40a279:	53                   	push   %rbx
  40a27a:	e8 b1 ff ff ff       	callq  40a230 <_ZN25CircularArray2DWorkerSafeIfE16getNumUsedSpacesEv>
  40a27f:	85 c0                	test   %eax,%eax
  40a281:	74 3f                	je     40a2c2 <_ZN25CircularArray2DWorkerSafeIfE17safePopBlockMutexEP13Array2DWorkerIfE+0x52>
  40a283:	31 db                	xor    %ebx,%ebx
  40a285:	0f 1f 00             	nopl   (%rax)
  40a288:	48 89 ef             	mov    %rbp,%rdi
  40a28b:	e8 f0 df ff ff       	callq  408280 <_ZN21CircularArray2DWorkerIfE9popColumnEv>
  40a290:	89 de                	mov    %ebx,%esi
  40a292:	48 89 c2             	mov    %rax,%rdx
  40a295:	4c 89 e7             	mov    %r12,%rdi
  40a298:	83 c3 01             	add    $0x1,%ebx
  40a29b:	e8 b0 d4 ff ff       	callq  407750 <_ZN13Array2DWorkerIfE9setColumnEiPf>
  40a2a0:	81 fb f4 01 00 00    	cmp    $0x1f4,%ebx
  40a2a6:	75 e0                	jne    40a288 <_ZN25CircularArray2DWorkerSafeIfE17safePopBlockMutexEP13Array2DWorkerIfE+0x18>
  40a2a8:	48 89 ef             	mov    %rbp,%rdi
  40a2ab:	be f4 01 00 00       	mov    $0x1f4,%esi
  40a2b0:	e8 8b ff ff ff       	callq  40a240 <_ZN25CircularArray2DWorkerSafeIfE19modifyNumFreeSpacesEi>
  40a2b5:	5b                   	pop    %rbx
  40a2b6:	48 8d 7d 30          	lea    0x30(%rbp),%rdi
  40a2ba:	5d                   	pop    %rbp
  40a2bb:	41 5c                	pop    %r12
  40a2bd:	e9 3e ad ff ff       	jmpq   405000 <_ZN14QWaitCondition7wakeAllEv@plt>
  40a2c2:	48 8d 75 50          	lea    0x50(%rbp),%rsi
  40a2c6:	48 8d 7d 38          	lea    0x38(%rbp),%rdi
  40a2ca:	48 c7 c2 ff ff ff ff 	mov    $0xffffffffffffffff,%rdx
  40a2d1:	e8 5a b4 ff ff       	callq  405730 <_ZN14QWaitCondition4waitEP6QMutexm@plt>
  40a2d6:	eb ab                	jmp    40a283 <_ZN25CircularArray2DWorkerSafeIfE17safePopBlockMutexEP13Array2DWorkerIfE+0x13>
  40a2d8:	0f 1f 84 00 00 00 00 	nopl   0x0(%rax,%rax,1)
  40a2df:	00 

000000000040a2e0 <_ZN25CircularArray2DWorkerSafeIfE18safePopSingleMutexEP13Array2DWorkerIfE>:
  40a2e0:	55                   	push   %rbp
  40a2e1:	48 89 f5             	mov    %rsi,%rbp
  40a2e4:	53                   	push   %rbx
  40a2e5:	48 89 fb             	mov    %rdi,%rbx
  40a2e8:	48 83 ec 08          	sub    $0x8,%rsp
  40a2ec:	e8 3f ff ff ff       	callq  40a230 <_ZN25CircularArray2DWorkerSafeIfE16getNumUsedSpacesEv>
  40a2f1:	85 c0                	test   %eax,%eax
  40a2f3:	7e 3b                	jle    40a330 <_ZN25CircularArray2DWorkerSafeIfE18safePopSingleMutexEP13Array2DWorkerIfE+0x50>
  40a2f5:	48 89 df             	mov    %rbx,%rdi
  40a2f8:	e8 83 df ff ff       	callq  408280 <_ZN21CircularArray2DWorkerIfE9popColumnEv>
  40a2fd:	48 89 ef             	mov    %rbp,%rdi
  40a300:	48 89 c2             	mov    %rax,%rdx
  40a303:	31 f6                	xor    %esi,%esi
  40a305:	e8 46 d4 ff ff       	callq  407750 <_ZN13Array2DWorkerIfE9setColumnEiPf>
  40a30a:	48 89 df             	mov    %rbx,%rdi
  40a30d:	be 01 00 00 00       	mov    $0x1,%esi
  40a312:	e8 29 ff ff ff       	callq  40a240 <_ZN25CircularArray2DWorkerSafeIfE19modifyNumFreeSpacesEi>
  40a317:	48 83 c4 08          	add    $0x8,%rsp
  40a31b:	48 8d 7b 30          	lea    0x30(%rbx),%rdi
  40a31f:	5b                   	pop    %rbx
  40a320:	5d                   	pop    %rbp
  40a321:	e9 da ac ff ff       	jmpq   405000 <_ZN14QWaitCondition7wakeAllEv@plt>
  40a326:	66 2e 0f 1f 84 00 00 	nopw   %cs:0x0(%rax,%rax,1)
  40a32d:	00 00 00 
  40a330:	48 83 c4 08          	add    $0x8,%rsp
  40a334:	5b                   	pop    %rbx
  40a335:	5d                   	pop    %rbp
  40a336:	c3                   	retq   
  40a337:	66 0f 1f 84 00 00 00 	nopw   0x0(%rax,%rax,1)
  40a33e:	00 00 

000000000040a340 <_ZN25CircularArray2DWorkerSafeIfE15resetFreeSpacesEv>:
  40a340:	55                   	push   %rbp
  40a341:	48 8d 6f 40          	lea    0x40(%rdi),%rbp
  40a345:	53                   	push   %rbx
  40a346:	48 89 fb             	mov    %rdi,%rbx
  40a349:	48 89 ef             	mov    %rbp,%rdi
  40a34c:	48 83 ec 08          	sub    $0x8,%rsp
  40a350:	e8 5b b5 ff ff       	callq  4058b0 <_ZN6QMutex4lockEv@plt>
  40a355:	48 89 df             	mov    %rbx,%rdi
  40a358:	e8 d3 d1 ff ff       	callq  407530 <_ZN13Array2DWorkerIfE14getColumnCountEv>
  40a35d:	c7 43 5c 00 00 00 00 	movl   $0x0,0x5c(%rbx)
  40a364:	89 43 60             	mov    %eax,0x60(%rbx)
  40a367:	48 83 c4 08          	add    $0x8,%rsp
  40a36b:	5b                   	pop    %rbx
  40a36c:	48 89 ef             	mov    %rbp,%rdi
  40a36f:	5d                   	pop    %rbp
  40a370:	e9 1b b6 ff ff       	jmpq   405990 <_ZN6QMutex6unlockEv@plt>
  40a375:	66 2e 0f 1f 84 00 00 	nopw   %cs:0x0(%rax,%rax,1)
  40a37c:	00 00 00 
  40a37f:	90                   	nop

000000000040a380 <_ZN25CircularArray2DWorkerSafeIfE19safePushColumnMutexEPf>:
  40a380:	55                   	push   %rbp
  40a381:	48 89 f5             	mov    %rsi,%rbp
  40a384:	53                   	push   %rbx
  40a385:	48 89 fb             	mov    %rdi,%rbx
  40a388:	48 83 ec 08          	sub    $0x8,%rsp
  40a38c:	80 7f 64 00          	cmpb   $0x0,0x64(%rdi)
  40a390:	75 6e                	jne    40a400 <_ZN25CircularArray2DWorkerSafeIfE19safePushColumnMutexEPf+0x80>
  40a392:	8b 43 58             	mov    0x58(%rbx),%eax
  40a395:	85 c0                	test   %eax,%eax
  40a397:	74 47                	je     40a3e0 <_ZN25CircularArray2DWorkerSafeIfE19safePushColumnMutexEPf+0x60>
  40a399:	83 f8 01             	cmp    $0x1,%eax
  40a39c:	75 37                	jne    40a3d5 <_ZN25CircularArray2DWorkerSafeIfE19safePushColumnMutexEPf+0x55>
  40a39e:	48 89 df             	mov    %rbx,%rdi
  40a3a1:	e8 7a fe ff ff       	callq  40a220 <_ZN25CircularArray2DWorkerSafeIfE16getNumFreeSpacesEv>
  40a3a6:	85 c0                	test   %eax,%eax
  40a3a8:	0f 8e 92 00 00 00    	jle    40a440 <_ZN25CircularArray2DWorkerSafeIfE19safePushColumnMutexEPf+0xc0>
  40a3ae:	be ff ff ff ff       	mov    $0xffffffff,%esi
  40a3b3:	48 89 df             	mov    %rbx,%rdi
  40a3b6:	e8 85 fe ff ff       	callq  40a240 <_ZN25CircularArray2DWorkerSafeIfE19modifyNumFreeSpacesEi>
  40a3bb:	48 89 ee             	mov    %rbp,%rsi
  40a3be:	48 89 df             	mov    %rbx,%rdi
  40a3c1:	e8 ca dd ff ff       	callq  408190 <_ZN21CircularArray2DWorkerIfE10pushColumnEPf>
  40a3c6:	48 89 df             	mov    %rbx,%rdi
  40a3c9:	e8 52 fe ff ff       	callq  40a220 <_ZN25CircularArray2DWorkerSafeIfE16getNumFreeSpacesEv>
  40a3ce:	3d f4 01 00 00       	cmp    $0x1f4,%eax
  40a3d3:	7f 53                	jg     40a428 <_ZN25CircularArray2DWorkerSafeIfE19safePushColumnMutexEPf+0xa8>
  40a3d5:	48 83 c4 08          	add    $0x8,%rsp
  40a3d9:	5b                   	pop    %rbx
  40a3da:	5d                   	pop    %rbp
  40a3db:	c3                   	retq   
  40a3dc:	0f 1f 40 00          	nopl   0x0(%rax)
  40a3e0:	48 89 df             	mov    %rbx,%rdi
  40a3e3:	be ff ff ff ff       	mov    $0xffffffff,%esi
  40a3e8:	e8 53 fe ff ff       	callq  40a240 <_ZN25CircularArray2DWorkerSafeIfE19modifyNumFreeSpacesEi>
  40a3ed:	48 83 c4 08          	add    $0x8,%rsp
  40a3f1:	48 89 df             	mov    %rbx,%rdi
  40a3f4:	48 89 ee             	mov    %rbp,%rsi
  40a3f7:	5b                   	pop    %rbx
  40a3f8:	5d                   	pop    %rbp
  40a3f9:	e9 92 dd ff ff       	jmpq   408190 <_ZN21CircularArray2DWorkerIfE10pushColumnEPf>
  40a3fe:	66 90                	xchg   %ax,%ax
  40a400:	e8 1b fe ff ff       	callq  40a220 <_ZN25CircularArray2DWorkerSafeIfE16getNumFreeSpacesEv>
  40a405:	85 c0                	test   %eax,%eax
  40a407:	75 89                	jne    40a392 <_ZN25CircularArray2DWorkerSafeIfE19safePushColumnMutexEPf+0x12>
  40a409:	48 8d 73 48          	lea    0x48(%rbx),%rsi
  40a40d:	48 8d 7b 30          	lea    0x30(%rbx),%rdi
  40a411:	48 c7 c2 ff ff ff ff 	mov    $0xffffffffffffffff,%rdx
  40a418:	e8 13 b3 ff ff       	callq  405730 <_ZN14QWaitCondition4waitEP6QMutexm@plt>
  40a41d:	e9 70 ff ff ff       	jmpq   40a392 <_ZN25CircularArray2DWorkerSafeIfE19safePushColumnMutexEPf+0x12>
  40a422:	66 0f 1f 44 00 00    	nopw   0x0(%rax,%rax,1)
  40a428:	48 83 c4 08          	add    $0x8,%rsp
  40a42c:	48 8d 7b 38          	lea    0x38(%rbx),%rdi
  40a430:	5b                   	pop    %rbx
  40a431:	5d                   	pop    %rbp
  40a432:	e9 c9 ab ff ff       	jmpq   405000 <_ZN14QWaitCondition7wakeAllEv@plt>
  40a437:	66 0f 1f 84 00 00 00 	nopw   0x0(%rax,%rax,1)
  40a43e:	00 00 
  40a440:	48 83 c4 08          	add    $0x8,%rsp
  40a444:	48 89 df             	mov    %rbx,%rdi
  40a447:	5b                   	pop    %rbx
  40a448:	5d                   	pop    %rbp
  40a449:	e9 f2 fe ff ff       	jmpq   40a340 <_ZN25CircularArray2DWorkerSafeIfE15resetFreeSpacesEv>
  40a44e:	66 90                	xchg   %ax,%ax

000000000040a450 <_ZN25CircularArray2DWorkerSafeIdEC1ENS0_8priorityEbii>:
  40a450:	41 57                	push   %r15
  40a452:	41 89 f7             	mov    %esi,%r15d
  40a455:	89 ce                	mov    %ecx,%esi
  40a457:	41 56                	push   %r14
  40a459:	41 89 d6             	mov    %edx,%r14d
  40a45c:	44 89 c2             	mov    %r8d,%edx
  40a45f:	41 55                	push   %r13
  40a461:	41 54                	push   %r12
  40a463:	55                   	push   %rbp
  40a464:	44 89 c5             	mov    %r8d,%ebp
  40a467:	53                   	push   %rbx
  40a468:	48 89 fb             	mov    %rdi,%rbx
  40a46b:	48 83 ec 18          	sub    $0x18,%rsp
  40a46f:	e8 cc e0 ff ff       	callq  408540 <_ZN21CircularArray2DWorkerIdEC1Eii>
  40a474:	48 8d 43 30          	lea    0x30(%rbx),%rax
  40a478:	48 89 c7             	mov    %rax,%rdi
  40a47b:	48 89 04 24          	mov    %rax,(%rsp)
  40a47f:	e8 8c b0 ff ff       	callq  405510 <_ZN14QWaitConditionC1Ev@plt>
  40a484:	48 8d 43 38          	lea    0x38(%rbx),%rax
  40a488:	48 89 c7             	mov    %rax,%rdi
  40a48b:	48 89 44 24 08       	mov    %rax,0x8(%rsp)
  40a490:	e8 7b b0 ff ff       	callq  405510 <_ZN14QWaitConditionC1Ev@plt>
  40a495:	4c 8d 63 40          	lea    0x40(%rbx),%r12
  40a499:	31 f6                	xor    %esi,%esi
  40a49b:	4c 89 e7             	mov    %r12,%rdi
  40a49e:	e8 dd aa ff ff       	callq  404f80 <_ZN6QMutexC1ENS_13RecursionModeE@plt>
  40a4a3:	4c 8d 6b 48          	lea    0x48(%rbx),%r13
  40a4a7:	31 f6                	xor    %esi,%esi
  40a4a9:	4c 89 ef             	mov    %r13,%rdi
  40a4ac:	e8 cf aa ff ff       	callq  404f80 <_ZN6QMutexC1ENS_13RecursionModeE@plt>
  40a4b1:	48 8d 7b 50          	lea    0x50(%rbx),%rdi
  40a4b5:	31 f6                	xor    %esi,%esi
  40a4b7:	e8 c4 aa ff ff       	callq  404f80 <_ZN6QMutexC1ENS_13RecursionModeE@plt>
  40a4bc:	44 89 7b 58          	mov    %r15d,0x58(%rbx)
  40a4c0:	89 6b 60             	mov    %ebp,0x60(%rbx)
  40a4c3:	44 88 73 64          	mov    %r14b,0x64(%rbx)
  40a4c7:	c7 43 5c 00 00 00 00 	movl   $0x0,0x5c(%rbx)
  40a4ce:	c6 43 65 00          	movb   $0x0,0x65(%rbx)
  40a4d2:	48 83 c4 18          	add    $0x18,%rsp
  40a4d6:	5b                   	pop    %rbx
  40a4d7:	5d                   	pop    %rbp
  40a4d8:	41 5c                	pop    %r12
  40a4da:	41 5d                	pop    %r13
  40a4dc:	41 5e                	pop    %r14
  40a4de:	41 5f                	pop    %r15
  40a4e0:	c3                   	retq   
  40a4e1:	48 89 c5             	mov    %rax,%rbp
  40a4e4:	48 89 df             	mov    %rbx,%rdi
  40a4e7:	e8 84 e0 ff ff       	callq  408570 <_ZN21CircularArray2DWorkerIdED1Ev>
  40a4ec:	48 89 ef             	mov    %rbp,%rdi
  40a4ef:	e8 2c b0 ff ff       	callq  405520 <_Unwind_Resume@plt>
  40a4f4:	4c 89 ef             	mov    %r13,%rdi
  40a4f7:	48 89 c5             	mov    %rax,%rbp
  40a4fa:	e8 b1 b0 ff ff       	callq  4055b0 <_ZN6QMutexD1Ev@plt>
  40a4ff:	4c 89 e7             	mov    %r12,%rdi
  40a502:	e8 a9 b0 ff ff       	callq  4055b0 <_ZN6QMutexD1Ev@plt>
  40a507:	48 8b 7c 24 08       	mov    0x8(%rsp),%rdi
  40a50c:	e8 5f b4 ff ff       	callq  405970 <_ZN14QWaitConditionD1Ev@plt>
  40a511:	48 8b 3c 24          	mov    (%rsp),%rdi
  40a515:	e8 56 b4 ff ff       	callq  405970 <_ZN14QWaitConditionD1Ev@plt>
  40a51a:	eb c8                	jmp    40a4e4 <_ZN25CircularArray2DWorkerSafeIdEC1ENS0_8priorityEbii+0x94>
  40a51c:	48 89 c5             	mov    %rax,%rbp
  40a51f:	eb de                	jmp    40a4ff <_ZN25CircularArray2DWorkerSafeIdEC1ENS0_8priorityEbii+0xaf>
  40a521:	48 89 c5             	mov    %rax,%rbp
  40a524:	eb e1                	jmp    40a507 <_ZN25CircularArray2DWorkerSafeIdEC1ENS0_8priorityEbii+0xb7>
  40a526:	48 89 c5             	mov    %rax,%rbp
  40a529:	eb e6                	jmp    40a511 <_ZN25CircularArray2DWorkerSafeIdEC1ENS0_8priorityEbii+0xc1>
  40a52b:	0f 1f 44 00 00       	nopl   0x0(%rax,%rax,1)

000000000040a530 <_ZN25CircularArray2DWorkerSafeIdED1Ev>:
  40a530:	55                   	push   %rbp
  40a531:	53                   	push   %rbx
  40a532:	48 89 fb             	mov    %rdi,%rbx
  40a535:	48 8d 7f 50          	lea    0x50(%rdi),%rdi
  40a539:	48 83 ec 08          	sub    $0x8,%rsp
  40a53d:	e8 6e b0 ff ff       	callq  4055b0 <_ZN6QMutexD1Ev@plt>
  40a542:	48 8d 7b 48          	lea    0x48(%rbx),%rdi
  40a546:	e8 65 b0 ff ff       	callq  4055b0 <_ZN6QMutexD1Ev@plt>
  40a54b:	48 8d 7b 40          	lea    0x40(%rbx),%rdi
  40a54f:	e8 5c b0 ff ff       	callq  4055b0 <_ZN6QMutexD1Ev@plt>
  40a554:	48 8d 7b 38          	lea    0x38(%rbx),%rdi
  40a558:	e8 13 b4 ff ff       	callq  405970 <_ZN14QWaitConditionD1Ev@plt>
  40a55d:	48 8d 7b 30          	lea    0x30(%rbx),%rdi
  40a561:	e8 0a b4 ff ff       	callq  405970 <_ZN14QWaitConditionD1Ev@plt>
  40a566:	48 83 c4 08          	add    $0x8,%rsp
  40a56a:	48 89 df             	mov    %rbx,%rdi
  40a56d:	5b                   	pop    %rbx
  40a56e:	5d                   	pop    %rbp
  40a56f:	e9 fc df ff ff       	jmpq   408570 <_ZN21CircularArray2DWorkerIdED1Ev>
  40a574:	48 8d 7b 48          	lea    0x48(%rbx),%rdi
  40a578:	48 89 c5             	mov    %rax,%rbp
  40a57b:	e8 30 b0 ff ff       	callq  4055b0 <_ZN6QMutexD1Ev@plt>
  40a580:	48 8d 7b 40          	lea    0x40(%rbx),%rdi
  40a584:	e8 27 b0 ff ff       	callq  4055b0 <_ZN6QMutexD1Ev@plt>
  40a589:	48 8d 7b 38          	lea    0x38(%rbx),%rdi
  40a58d:	e8 de b3 ff ff       	callq  405970 <_ZN14QWaitConditionD1Ev@plt>
  40a592:	48 8d 7b 30          	lea    0x30(%rbx),%rdi
  40a596:	e8 d5 b3 ff ff       	callq  405970 <_ZN14QWaitConditionD1Ev@plt>
  40a59b:	48 89 df             	mov    %rbx,%rdi
  40a59e:	e8 cd df ff ff       	callq  408570 <_ZN21CircularArray2DWorkerIdED1Ev>
  40a5a3:	48 89 ef             	mov    %rbp,%rdi
  40a5a6:	e8 75 af ff ff       	callq  405520 <_Unwind_Resume@plt>
  40a5ab:	48 89 c5             	mov    %rax,%rbp
  40a5ae:	eb eb                	jmp    40a59b <_ZN25CircularArray2DWorkerSafeIdED1Ev+0x6b>
  40a5b0:	48 89 c5             	mov    %rax,%rbp
  40a5b3:	eb dd                	jmp    40a592 <_ZN25CircularArray2DWorkerSafeIdED1Ev+0x62>
  40a5b5:	48 89 c5             	mov    %rax,%rbp
  40a5b8:	eb cf                	jmp    40a589 <_ZN25CircularArray2DWorkerSafeIdED1Ev+0x59>
  40a5ba:	48 89 c5             	mov    %rax,%rbp
  40a5bd:	eb c1                	jmp    40a580 <_ZN25CircularArray2DWorkerSafeIdED1Ev+0x50>
  40a5bf:	90                   	nop

000000000040a5c0 <_ZN25CircularArray2DWorkerSafeIdE23safePushColumnSemaphoreEPd>:
  40a5c0:	55                   	push   %rbp
  40a5c1:	48 89 f5             	mov    %rsi,%rbp
  40a5c4:	53                   	push   %rbx
  40a5c5:	48 89 fb             	mov    %rdi,%rbx
  40a5c8:	48 83 ec 08          	sub    $0x8,%rsp
  40a5cc:	80 7f 64 00          	cmpb   $0x0,0x64(%rdi)
  40a5d0:	75 66                	jne    40a638 <_ZN25CircularArray2DWorkerSafeIdE23safePushColumnSemaphoreEPd+0x78>
  40a5d2:	8b 43 58             	mov    0x58(%rbx),%eax
  40a5d5:	85 c0                	test   %eax,%eax
  40a5d7:	74 47                	je     40a620 <_ZN25CircularArray2DWorkerSafeIdE23safePushColumnSemaphoreEPd+0x60>
  40a5d9:	83 f8 01             	cmp    $0x1,%eax
  40a5dc:	75 3a                	jne    40a618 <_ZN25CircularArray2DWorkerSafeIdE23safePushColumnSemaphoreEPd+0x58>
  40a5de:	48 8d 3d a3 c0 20 00 	lea    0x20c0a3(%rip),%rdi        # 616688 <freeSpace>
  40a5e5:	be 01 00 00 00       	mov    $0x1,%esi
  40a5ea:	e8 31 b4 ff ff       	callq  405a20 <_ZN10QSemaphore10tryAcquireEi@plt>
  40a5ef:	84 c0                	test   %al,%al
  40a5f1:	74 7d                	je     40a670 <_ZN25CircularArray2DWorkerSafeIdE23safePushColumnSemaphoreEPd+0xb0>
  40a5f3:	48 89 ee             	mov    %rbp,%rsi
  40a5f6:	48 89 df             	mov    %rbx,%rdi
  40a5f9:	e8 92 df ff ff       	callq  408590 <_ZN21CircularArray2DWorkerIdE10pushColumnEPd>
  40a5fe:	48 83 c4 08          	add    $0x8,%rsp
  40a602:	48 8d 3d 77 c0 20 00 	lea    0x20c077(%rip),%rdi        # 616680 <usedSpace>
  40a609:	be 01 00 00 00       	mov    $0x1,%esi
  40a60e:	5b                   	pop    %rbx
  40a60f:	5d                   	pop    %rbp
  40a610:	e9 eb ae ff ff       	jmpq   405500 <_ZN10QSemaphore7releaseEi@plt>
  40a615:	0f 1f 00             	nopl   (%rax)
  40a618:	48 83 c4 08          	add    $0x8,%rsp
  40a61c:	5b                   	pop    %rbx
  40a61d:	5d                   	pop    %rbp
  40a61e:	c3                   	retq   
  40a61f:	90                   	nop
  40a620:	48 8d 3d 61 c0 20 00 	lea    0x20c061(%rip),%rdi        # 616688 <freeSpace>
  40a627:	be 01 00 00 00       	mov    $0x1,%esi
  40a62c:	e8 9f b2 ff ff       	callq  4058d0 <_ZN10QSemaphore7acquireEi@plt>
  40a631:	eb c0                	jmp    40a5f3 <_ZN25CircularArray2DWorkerSafeIdE23safePushColumnSemaphoreEPd+0x33>
  40a633:	0f 1f 44 00 00       	nopl   0x0(%rax,%rax,1)
  40a638:	48 8d 3d 49 c0 20 00 	lea    0x20c049(%rip),%rdi        # 616688 <freeSpace>
  40a63f:	e8 fc b3 ff ff       	callq  405a40 <_ZNK10QSemaphore9availableEv@plt>
  40a644:	85 c0                	test   %eax,%eax
  40a646:	75 8a                	jne    40a5d2 <_ZN25CircularArray2DWorkerSafeIdE23safePushColumnSemaphoreEPd+0x12>
  40a648:	48 8d 3d 39 c0 20 00 	lea    0x20c039(%rip),%rdi        # 616688 <freeSpace>
  40a64f:	be 01 00 00 00       	mov    $0x1,%esi
  40a654:	e8 77 b2 ff ff       	callq  4058d0 <_ZN10QSemaphore7acquireEi@plt>
  40a659:	48 8d 3d 28 c0 20 00 	lea    0x20c028(%rip),%rdi        # 616688 <freeSpace>
  40a660:	be 01 00 00 00       	mov    $0x1,%esi
  40a665:	e8 96 ae ff ff       	callq  405500 <_ZN10QSemaphore7releaseEi@plt>
  40a66a:	e9 63 ff ff ff       	jmpq   40a5d2 <_ZN25CircularArray2DWorkerSafeIdE23safePushColumnSemaphoreEPd+0x12>
  40a66f:	90                   	nop
  40a670:	48 89 df             	mov    %rbx,%rdi
  40a673:	e8 b8 df ff ff       	callq  408630 <_ZN21CircularArray2DWorkerIdE26getCurrentColumnWriteIndexEv>
  40a678:	8d 70 ff             	lea    -0x1(%rax),%esi
  40a67b:	48 89 df             	mov    %rbx,%rdi
  40a67e:	e8 dd df ff ff       	callq  408660 <_ZN21CircularArray2DWorkerIdE25setCurrentColumnReadIndexEi>
  40a683:	48 8d 3d f6 bf 20 00 	lea    0x20bff6(%rip),%rdi        # 616680 <usedSpace>
  40a68a:	e8 b1 b3 ff ff       	callq  405a40 <_ZNK10QSemaphore9availableEv@plt>
  40a68f:	48 8d 3d f2 bf 20 00 	lea    0x20bff2(%rip),%rdi        # 616688 <freeSpace>
  40a696:	89 c6                	mov    %eax,%esi
  40a698:	89 c3                	mov    %eax,%ebx
  40a69a:	e8 61 ae ff ff       	callq  405500 <_ZN10QSemaphore7releaseEi@plt>
  40a69f:	48 83 c4 08          	add    $0x8,%rsp
  40a6a3:	89 de                	mov    %ebx,%esi
  40a6a5:	48 8d 3d d4 bf 20 00 	lea    0x20bfd4(%rip),%rdi        # 616680 <usedSpace>
  40a6ac:	5b                   	pop    %rbx
  40a6ad:	5d                   	pop    %rbp
  40a6ae:	e9 1d b2 ff ff       	jmpq   4058d0 <_ZN10QSemaphore7acquireEi@plt>
  40a6b3:	66 2e 0f 1f 84 00 00 	nopw   %cs:0x0(%rax,%rax,1)
  40a6ba:	00 00 00 
  40a6bd:	0f 1f 00             	nopl   (%rax)

000000000040a6c0 <_ZN25CircularArray2DWorkerSafeIdE14fastPushColumnEPd>:
  40a6c0:	e9 cb de ff ff       	jmpq   408590 <_ZN21CircularArray2DWorkerIdE10pushColumnEPd>
  40a6c5:	66 2e 0f 1f 84 00 00 	nopw   %cs:0x0(%rax,%rax,1)
  40a6cc:	00 00 00 
  40a6cf:	90                   	nop

000000000040a6d0 <_ZN25CircularArray2DWorkerSafeIdE21safePopBlockSemaphoreEP13Array2DWorkerIdE>:
  40a6d0:	41 54                	push   %r12
  40a6d2:	ba 32 00 00 00       	mov    $0x32,%edx
  40a6d7:	49 89 f4             	mov    %rsi,%r12
  40a6da:	be f4 01 00 00       	mov    $0x1f4,%esi
  40a6df:	55                   	push   %rbp
  40a6e0:	48 89 fd             	mov    %rdi,%rbp
  40a6e3:	48 8d 3d 96 bf 20 00 	lea    0x20bf96(%rip),%rdi        # 616680 <usedSpace>
  40a6ea:	53                   	push   %rbx
  40a6eb:	e8 50 ad ff ff       	callq  405440 <_ZN10QSemaphore10tryAcquireEii@plt>
  40a6f0:	84 c0                	test   %al,%al
  40a6f2:	74 41                	je     40a735 <_ZN25CircularArray2DWorkerSafeIdE21safePopBlockSemaphoreEP13Array2DWorkerIdE+0x65>
  40a6f4:	31 db                	xor    %ebx,%ebx
  40a6f6:	66 2e 0f 1f 84 00 00 	nopw   %cs:0x0(%rax,%rax,1)
  40a6fd:	00 00 00 
  40a700:	48 89 ef             	mov    %rbp,%rdi
  40a703:	e8 78 df ff ff       	callq  408680 <_ZN21CircularArray2DWorkerIdE9popColumnEv>
  40a708:	89 de                	mov    %ebx,%esi
  40a70a:	48 89 c2             	mov    %rax,%rdx
  40a70d:	4c 89 e7             	mov    %r12,%rdi
  40a710:	83 c3 01             	add    $0x1,%ebx
  40a713:	e8 b8 d4 ff ff       	callq  407bd0 <_ZN13Array2DWorkerIdE9setColumnEiPd>
  40a718:	81 fb f4 01 00 00    	cmp    $0x1f4,%ebx
  40a71e:	75 e0                	jne    40a700 <_ZN25CircularArray2DWorkerSafeIdE21safePopBlockSemaphoreEP13Array2DWorkerIdE+0x30>
  40a720:	5b                   	pop    %rbx
  40a721:	5d                   	pop    %rbp
  40a722:	41 5c                	pop    %r12
  40a724:	48 8d 3d 5d bf 20 00 	lea    0x20bf5d(%rip),%rdi        # 616688 <freeSpace>
  40a72b:	be f4 01 00 00       	mov    $0x1f4,%esi
  40a730:	e9 cb ad ff ff       	jmpq   405500 <_ZN10QSemaphore7releaseEi@plt>
  40a735:	5b                   	pop    %rbx
  40a736:	5d                   	pop    %rbp
  40a737:	41 5c                	pop    %r12
  40a739:	c3                   	retq   
  40a73a:	66 0f 1f 44 00 00    	nopw   0x0(%rax,%rax,1)

000000000040a740 <_ZN25CircularArray2DWorkerSafeIdE25getFreeSlotCountSemaphoreEv>:
  40a740:	48 8d 3d 41 bf 20 00 	lea    0x20bf41(%rip),%rdi        # 616688 <freeSpace>
  40a747:	e9 f4 b2 ff ff       	jmpq   405a40 <_ZNK10QSemaphore9availableEv@plt>
  40a74c:	0f 1f 40 00          	nopl   0x0(%rax)

000000000040a750 <_ZN25CircularArray2DWorkerSafeIdE21getFreeSlotCountMutexEv>:
  40a750:	8b 47 60             	mov    0x60(%rdi),%eax
  40a753:	c3                   	retq   
  40a754:	66 2e 0f 1f 84 00 00 	nopw   %cs:0x0(%rax,%rax,1)
  40a75b:	00 00 00 
  40a75e:	66 90                	xchg   %ax,%ax

000000000040a760 <_ZN25CircularArray2DWorkerSafeIdE23getFilledSlotCountMutexEv>:
  40a760:	8b 47 5c             	mov    0x5c(%rdi),%eax
  40a763:	c3                   	retq   
  40a764:	66 2e 0f 1f 84 00 00 	nopw   %cs:0x0(%rax,%rax,1)
  40a76b:	00 00 00 
  40a76e:	66 90                	xchg   %ax,%ax

000000000040a770 <_ZN25CircularArray2DWorkerSafeIdE16getNumFreeSpacesEv>:
  40a770:	8b 47 60             	mov    0x60(%rdi),%eax
  40a773:	c3                   	retq   
  40a774:	66 2e 0f 1f 84 00 00 	nopw   %cs:0x0(%rax,%rax,1)
  40a77b:	00 00 00 
  40a77e:	66 90                	xchg   %ax,%ax

000000000040a780 <_ZN25CircularArray2DWorkerSafeIdE16getNumUsedSpacesEv>:
  40a780:	8b 47 5c             	mov    0x5c(%rdi),%eax
  40a783:	c3                   	retq   
  40a784:	66 2e 0f 1f 84 00 00 	nopw   %cs:0x0(%rax,%rax,1)
  40a78b:	00 00 00 
  40a78e:	66 90                	xchg   %ax,%ax

000000000040a790 <_ZN25CircularArray2DWorkerSafeIdE19modifyNumFreeSpacesEi>:
  40a790:	41 54                	push   %r12
  40a792:	41 89 f4             	mov    %esi,%r12d
  40a795:	55                   	push   %rbp
  40a796:	48 8d 6f 40          	lea    0x40(%rdi),%rbp
  40a79a:	53                   	push   %rbx
  40a79b:	48 89 fb             	mov    %rdi,%rbx
  40a79e:	48 89 ef             	mov    %rbp,%rdi
  40a7a1:	e8 0a b1 ff ff       	callq  4058b0 <_ZN6QMutex4lockEv@plt>
  40a7a6:	44 01 63 60          	add    %r12d,0x60(%rbx)
  40a7aa:	44 29 63 5c          	sub    %r12d,0x5c(%rbx)
  40a7ae:	48 89 ef             	mov    %rbp,%rdi
  40a7b1:	5b                   	pop    %rbx
  40a7b2:	5d                   	pop    %rbp
  40a7b3:	41 5c                	pop    %r12
  40a7b5:	e9 d6 b1 ff ff       	jmpq   405990 <_ZN6QMutex6unlockEv@plt>
  40a7ba:	66 0f 1f 44 00 00    	nopw   0x0(%rax,%rax,1)

000000000040a7c0 <_ZN25CircularArray2DWorkerSafeIdE17safePopBlockMutexEP13Array2DWorkerIdE>:
  40a7c0:	41 54                	push   %r12
  40a7c2:	49 89 f4             	mov    %rsi,%r12
  40a7c5:	55                   	push   %rbp
  40a7c6:	48 89 fd             	mov    %rdi,%rbp
  40a7c9:	53                   	push   %rbx
  40a7ca:	e8 b1 ff ff ff       	callq  40a780 <_ZN25CircularArray2DWorkerSafeIdE16getNumUsedSpacesEv>
  40a7cf:	85 c0                	test   %eax,%eax
  40a7d1:	74 3f                	je     40a812 <_ZN25CircularArray2DWorkerSafeIdE17safePopBlockMutexEP13Array2DWorkerIdE+0x52>
  40a7d3:	31 db                	xor    %ebx,%ebx
  40a7d5:	0f 1f 00             	nopl   (%rax)
  40a7d8:	48 89 ef             	mov    %rbp,%rdi
  40a7db:	e8 a0 de ff ff       	callq  408680 <_ZN21CircularArray2DWorkerIdE9popColumnEv>
  40a7e0:	89 de                	mov    %ebx,%esi
  40a7e2:	48 89 c2             	mov    %rax,%rdx
  40a7e5:	4c 89 e7             	mov    %r12,%rdi
  40a7e8:	83 c3 01             	add    $0x1,%ebx
  40a7eb:	e8 e0 d3 ff ff       	callq  407bd0 <_ZN13Array2DWorkerIdE9setColumnEiPd>
  40a7f0:	81 fb f4 01 00 00    	cmp    $0x1f4,%ebx
  40a7f6:	75 e0                	jne    40a7d8 <_ZN25CircularArray2DWorkerSafeIdE17safePopBlockMutexEP13Array2DWorkerIdE+0x18>
  40a7f8:	48 89 ef             	mov    %rbp,%rdi
  40a7fb:	be f4 01 00 00       	mov    $0x1f4,%esi
  40a800:	e8 8b ff ff ff       	callq  40a790 <_ZN25CircularArray2DWorkerSafeIdE19modifyNumFreeSpacesEi>
  40a805:	5b                   	pop    %rbx
  40a806:	48 8d 7d 30          	lea    0x30(%rbp),%rdi
  40a80a:	5d                   	pop    %rbp
  40a80b:	41 5c                	pop    %r12
  40a80d:	e9 ee a7 ff ff       	jmpq   405000 <_ZN14QWaitCondition7wakeAllEv@plt>
  40a812:	48 8d 75 50          	lea    0x50(%rbp),%rsi
  40a816:	48 8d 7d 38          	lea    0x38(%rbp),%rdi
  40a81a:	48 c7 c2 ff ff ff ff 	mov    $0xffffffffffffffff,%rdx
  40a821:	e8 0a af ff ff       	callq  405730 <_ZN14QWaitCondition4waitEP6QMutexm@plt>
  40a826:	eb ab                	jmp    40a7d3 <_ZN25CircularArray2DWorkerSafeIdE17safePopBlockMutexEP13Array2DWorkerIdE+0x13>
  40a828:	0f 1f 84 00 00 00 00 	nopl   0x0(%rax,%rax,1)
  40a82f:	00 

000000000040a830 <_ZN25CircularArray2DWorkerSafeIdE18safePopSingleMutexEP13Array2DWorkerIdE>:
  40a830:	55                   	push   %rbp
  40a831:	48 89 f5             	mov    %rsi,%rbp
  40a834:	53                   	push   %rbx
  40a835:	48 89 fb             	mov    %rdi,%rbx
  40a838:	48 83 ec 08          	sub    $0x8,%rsp
  40a83c:	e8 3f ff ff ff       	callq  40a780 <_ZN25CircularArray2DWorkerSafeIdE16getNumUsedSpacesEv>
  40a841:	85 c0                	test   %eax,%eax
  40a843:	7e 3b                	jle    40a880 <_ZN25CircularArray2DWorkerSafeIdE18safePopSingleMutexEP13Array2DWorkerIdE+0x50>
  40a845:	48 89 df             	mov    %rbx,%rdi
  40a848:	e8 33 de ff ff       	callq  408680 <_ZN21CircularArray2DWorkerIdE9popColumnEv>
  40a84d:	48 89 ef             	mov    %rbp,%rdi
  40a850:	48 89 c2             	mov    %rax,%rdx
  40a853:	31 f6                	xor    %esi,%esi
  40a855:	e8 76 d3 ff ff       	callq  407bd0 <_ZN13Array2DWorkerIdE9setColumnEiPd>
  40a85a:	48 89 df             	mov    %rbx,%rdi
  40a85d:	be 01 00 00 00       	mov    $0x1,%esi
  40a862:	e8 29 ff ff ff       	callq  40a790 <_ZN25CircularArray2DWorkerSafeIdE19modifyNumFreeSpacesEi>
  40a867:	48 83 c4 08          	add    $0x8,%rsp
  40a86b:	48 8d 7b 30          	lea    0x30(%rbx),%rdi
  40a86f:	5b                   	pop    %rbx
  40a870:	5d                   	pop    %rbp
  40a871:	e9 8a a7 ff ff       	jmpq   405000 <_ZN14QWaitCondition7wakeAllEv@plt>
  40a876:	66 2e 0f 1f 84 00 00 	nopw   %cs:0x0(%rax,%rax,1)
  40a87d:	00 00 00 
  40a880:	48 83 c4 08          	add    $0x8,%rsp
  40a884:	5b                   	pop    %rbx
  40a885:	5d                   	pop    %rbp
  40a886:	c3                   	retq   
  40a887:	66 0f 1f 84 00 00 00 	nopw   0x0(%rax,%rax,1)
  40a88e:	00 00 

000000000040a890 <_ZN25CircularArray2DWorkerSafeIdE15resetFreeSpacesEv>:
  40a890:	55                   	push   %rbp
  40a891:	48 8d 6f 40          	lea    0x40(%rdi),%rbp
  40a895:	53                   	push   %rbx
  40a896:	48 89 fb             	mov    %rdi,%rbx
  40a899:	48 89 ef             	mov    %rbp,%rdi
  40a89c:	48 83 ec 08          	sub    $0x8,%rsp
  40a8a0:	e8 0b b0 ff ff       	callq  4058b0 <_ZN6QMutex4lockEv@plt>
  40a8a5:	48 89 df             	mov    %rbx,%rdi
  40a8a8:	e8 03 d1 ff ff       	callq  4079b0 <_ZN13Array2DWorkerIdE14getColumnCountEv>
  40a8ad:	c7 43 5c 00 00 00 00 	movl   $0x0,0x5c(%rbx)
  40a8b4:	89 43 60             	mov    %eax,0x60(%rbx)
  40a8b7:	48 83 c4 08          	add    $0x8,%rsp
  40a8bb:	5b                   	pop    %rbx
  40a8bc:	48 89 ef             	mov    %rbp,%rdi
  40a8bf:	5d                   	pop    %rbp
  40a8c0:	e9 cb b0 ff ff       	jmpq   405990 <_ZN6QMutex6unlockEv@plt>
  40a8c5:	66 2e 0f 1f 84 00 00 	nopw   %cs:0x0(%rax,%rax,1)
  40a8cc:	00 00 00 
  40a8cf:	90                   	nop

000000000040a8d0 <_ZN25CircularArray2DWorkerSafeIdE19safePushColumnMutexEPd>:
  40a8d0:	55                   	push   %rbp
  40a8d1:	48 89 f5             	mov    %rsi,%rbp
  40a8d4:	53                   	push   %rbx
  40a8d5:	48 89 fb             	mov    %rdi,%rbx
  40a8d8:	48 83 ec 08          	sub    $0x8,%rsp
  40a8dc:	80 7f 64 00          	cmpb   $0x0,0x64(%rdi)
  40a8e0:	75 6e                	jne    40a950 <_ZN25CircularArray2DWorkerSafeIdE19safePushColumnMutexEPd+0x80>
  40a8e2:	8b 43 58             	mov    0x58(%rbx),%eax
  40a8e5:	85 c0                	test   %eax,%eax
  40a8e7:	74 47                	je     40a930 <_ZN25CircularArray2DWorkerSafeIdE19safePushColumnMutexEPd+0x60>
  40a8e9:	83 f8 01             	cmp    $0x1,%eax
  40a8ec:	75 37                	jne    40a925 <_ZN25CircularArray2DWorkerSafeIdE19safePushColumnMutexEPd+0x55>
  40a8ee:	48 89 df             	mov    %rbx,%rdi
  40a8f1:	e8 7a fe ff ff       	callq  40a770 <_ZN25CircularArray2DWorkerSafeIdE16getNumFreeSpacesEv>
  40a8f6:	85 c0                	test   %eax,%eax
  40a8f8:	0f 8e 92 00 00 00    	jle    40a990 <_ZN25CircularArray2DWorkerSafeIdE19safePushColumnMutexEPd+0xc0>
  40a8fe:	be ff ff ff ff       	mov    $0xffffffff,%esi
  40a903:	48 89 df             	mov    %rbx,%rdi
  40a906:	e8 85 fe ff ff       	callq  40a790 <_ZN25CircularArray2DWorkerSafeIdE19modifyNumFreeSpacesEi>
  40a90b:	48 89 ee             	mov    %rbp,%rsi
  40a90e:	48 89 df             	mov    %rbx,%rdi
  40a911:	e8 7a dc ff ff       	callq  408590 <_ZN21CircularArray2DWorkerIdE10pushColumnEPd>
  40a916:	48 89 df             	mov    %rbx,%rdi
  40a919:	e8 52 fe ff ff       	callq  40a770 <_ZN25CircularArray2DWorkerSafeIdE16getNumFreeSpacesEv>
  40a91e:	3d f4 01 00 00       	cmp    $0x1f4,%eax
  40a923:	7f 53                	jg     40a978 <_ZN25CircularArray2DWorkerSafeIdE19safePushColumnMutexEPd+0xa8>
  40a925:	48 83 c4 08          	add    $0x8,%rsp
  40a929:	5b                   	pop    %rbx
  40a92a:	5d                   	pop    %rbp
  40a92b:	c3                   	retq   
  40a92c:	0f 1f 40 00          	nopl   0x0(%rax)
  40a930:	48 89 df             	mov    %rbx,%rdi
  40a933:	be ff ff ff ff       	mov    $0xffffffff,%esi
  40a938:	e8 53 fe ff ff       	callq  40a790 <_ZN25CircularArray2DWorkerSafeIdE19modifyNumFreeSpacesEi>
  40a93d:	48 83 c4 08          	add    $0x8,%rsp
  40a941:	48 89 df             	mov    %rbx,%rdi
  40a944:	48 89 ee             	mov    %rbp,%rsi
  40a947:	5b                   	pop    %rbx
  40a948:	5d                   	pop    %rbp
  40a949:	e9 42 dc ff ff       	jmpq   408590 <_ZN21CircularArray2DWorkerIdE10pushColumnEPd>
  40a94e:	66 90                	xchg   %ax,%ax
  40a950:	e8 1b fe ff ff       	callq  40a770 <_ZN25CircularArray2DWorkerSafeIdE16getNumFreeSpacesEv>
  40a955:	85 c0                	test   %eax,%eax
  40a957:	75 89                	jne    40a8e2 <_ZN25CircularArray2DWorkerSafeIdE19safePushColumnMutexEPd+0x12>
  40a959:	48 8d 73 48          	lea    0x48(%rbx),%rsi
  40a95d:	48 8d 7b 30          	lea    0x30(%rbx),%rdi
  40a961:	48 c7 c2 ff ff ff ff 	mov    $0xffffffffffffffff,%rdx
  40a968:	e8 c3 ad ff ff       	callq  405730 <_ZN14QWaitCondition4waitEP6QMutexm@plt>
  40a96d:	e9 70 ff ff ff       	jmpq   40a8e2 <_ZN25CircularArray2DWorkerSafeIdE19safePushColumnMutexEPd+0x12>
  40a972:	66 0f 1f 44 00 00    	nopw   0x0(%rax,%rax,1)
  40a978:	48 83 c4 08          	add    $0x8,%rsp
  40a97c:	48 8d 7b 38          	lea    0x38(%rbx),%rdi
  40a980:	5b                   	pop    %rbx
  40a981:	5d                   	pop    %rbp
  40a982:	e9 79 a6 ff ff       	jmpq   405000 <_ZN14QWaitCondition7wakeAllEv@plt>
  40a987:	66 0f 1f 84 00 00 00 	nopw   0x0(%rax,%rax,1)
  40a98e:	00 00 
  40a990:	48 83 c4 08          	add    $0x8,%rsp
  40a994:	48 89 df             	mov    %rbx,%rdi
  40a997:	5b                   	pop    %rbx
  40a998:	5d                   	pop    %rbp
  40a999:	e9 f2 fe ff ff       	jmpq   40a890 <_ZN25CircularArray2DWorkerSafeIdE15resetFreeSpacesEv>
  40a99e:	66 90                	xchg   %ax,%ax

000000000040a9a0 <_ZN14ProducerUnsafe3runEv>:
  40a9a0:	41 57                	push   %r15
  40a9a2:	41 56                	push   %r14
  40a9a4:	45 31 f6             	xor    %r14d,%r14d
  40a9a7:	41 55                	push   %r13
  40a9a9:	41 54                	push   %r12
  40a9ab:	49 89 fc             	mov    %rdi,%r12
  40a9ae:	31 ff                	xor    %edi,%edi
  40a9b0:	55                   	push   %rbp
  40a9b1:	bd 6b ca 5f 6b       	mov    $0x6b5fca6b,%ebp
  40a9b6:	53                   	push   %rbx
  40a9b7:	48 81 ec 28 04 00 00 	sub    $0x428,%rsp
  40a9be:	e8 2d ac ff ff       	callq  4055f0 <time@plt>
  40a9c3:	f2 48 0f 2a f0       	cvtsi2sd %rax,%xmm6
  40a9c8:	31 ff                	xor    %edi,%edi
  40a9ca:	f2 0f 10 2d 7e 42 00 	movsd  0x427e(%rip),%xmm5        # 40ec50 <_ZTS14CustomColorMap+0xb0>
  40a9d1:	00 
  40a9d2:	48 8d 5c 24 20       	lea    0x20(%rsp),%rbx
  40a9d7:	f2 0f 59 ee          	mulsd  %xmm6,%xmm5
  40a9db:	f2 0f 11 6c 24 10    	movsd  %xmm5,0x10(%rsp)
  40a9e1:	e8 0a ac ff ff       	callq  4055f0 <time@plt>
  40a9e6:	4c 8b 2d eb b5 20 00 	mov    0x20b5eb(%rip),%r13        # 615fd8 <_DYNAMIC+0x248>
  40a9ed:	f3 0f 10 0d 63 42 00 	movss  0x4263(%rip),%xmm1        # 40ec58 <_ZTS14CustomColorMap+0xb8>
  40a9f4:	00 
  40a9f5:	0f 1f 00             	nopl   (%rax)
  40a9f8:	31 d2                	xor    %edx,%edx
  40a9fa:	66 0f 1f 44 00 00    	nopw   0x0(%rax,%rax,1)
  40aa00:	f3 0f 2a c2          	cvtsi2ss %edx,%xmm0
  40aa04:	f3 0f 59 c1          	mulss  %xmm1,%xmm0
  40aa08:	f3 0f 11 04 93       	movss  %xmm0,(%rbx,%rdx,4)
  40aa0d:	48 83 c2 01          	add    $0x1,%rdx
  40aa11:	48 81 fa 00 01 00 00 	cmp    $0x100,%rdx
  40aa18:	75 e6                	jne    40aa00 <_ZN14ProducerUnsafe3runEv+0x60>
  40aa1a:	49 8b 7c 24 10       	mov    0x10(%r12),%rdi
  40aa1f:	41 83 c6 01          	add    $0x1,%r14d
  40aa23:	48 89 de             	mov    %rbx,%rsi
  40aa26:	f3 0f 11 4c 24 08    	movss  %xmm1,0x8(%rsp)
  40aa2c:	e8 0f 06 00 00       	callq  40b040 <_ZN29CircularArray2DWorkerThreadedIfE14fastPushColumnEPf>
  40aa31:	44 89 f0             	mov    %r14d,%eax
  40aa34:	f3 0f 10 4c 24 08    	movss  0x8(%rsp),%xmm1
  40aa3a:	f7 ed                	imul   %ebp
  40aa3c:	44 89 f0             	mov    %r14d,%eax
  40aa3f:	c1 f8 1f             	sar    $0x1f,%eax
  40aa42:	c1 fa 15             	sar    $0x15,%edx
  40aa45:	29 c2                	sub    %eax,%edx
  40aa47:	69 d2 40 4b 4c 00    	imul   $0x4c4b40,%edx,%edx
  40aa4d:	41 39 d6             	cmp    %edx,%r14d
  40aa50:	75 a6                	jne    40a9f8 <_ZN14ProducerUnsafe3runEv+0x58>
  40aa52:	31 ff                	xor    %edi,%edi
  40aa54:	f3 0f 11 4c 24 1c    	movss  %xmm1,0x1c(%rsp)
  40aa5a:	e8 91 ab ff ff       	callq  4055f0 <time@plt>
  40aa5f:	f2 48 0f 2a d0       	cvtsi2sd %rax,%xmm2
  40aa64:	48 8d 35 bd 41 00 00 	lea    0x41bd(%rip),%rsi        # 40ec28 <_ZTS14CustomColorMap+0x88>
  40aa6b:	ba 17 00 00 00       	mov    $0x17,%edx
  40aa70:	4c 89 ef             	mov    %r13,%rdi
  40aa73:	f2 0f 59 15 d5 41 00 	mulsd  0x41d5(%rip),%xmm2        # 40ec50 <_ZTS14CustomColorMap+0xb0>
  40aa7a:	00 
  40aa7b:	f2 0f 5c 54 24 10    	subsd  0x10(%rsp),%xmm2
  40aa81:	f2 0f 11 54 24 08    	movsd  %xmm2,0x8(%rsp)
  40aa87:	e8 84 ae ff ff       	callq  405910 <_ZSt16__ostream_insertIcSt11char_traitsIcEERSt13basic_ostreamIT_T0_ES6_PKS3_l@plt>
  40aa8c:	f2 0f 10 54 24 08    	movsd  0x8(%rsp),%xmm2
  40aa92:	4c 89 ef             	mov    %r13,%rdi
  40aa95:	66 0f 28 c2          	movapd %xmm2,%xmm0
  40aa99:	e8 d2 ab ff ff       	callq  405670 <_ZNSo9_M_insertIdEERSoT_@plt>
  40aa9e:	48 8d 35 9b 41 00 00 	lea    0x419b(%rip),%rsi        # 40ec40 <_ZTS14CustomColorMap+0xa0>
  40aaa5:	49 89 c7             	mov    %rax,%r15
  40aaa8:	ba 03 00 00 00       	mov    $0x3,%edx
  40aaad:	48 89 c7             	mov    %rax,%rdi
  40aab0:	e8 5b ae ff ff       	callq  405910 <_ZSt16__ostream_insertIcSt11char_traitsIcEERSt13basic_ostreamIT_T0_ES6_PKS3_l@plt>
  40aab5:	49 8b 07             	mov    (%r15),%rax
  40aab8:	f2 0f 10 54 24 08    	movsd  0x8(%rsp),%xmm2
  40aabe:	f3 0f 10 4c 24 1c    	movss  0x1c(%rsp),%xmm1
  40aac4:	48 8b 40 e8          	mov    -0x18(%rax),%rax
  40aac8:	49 8b 84 07 f0 00 00 	mov    0xf0(%r15,%rax,1),%rax
  40aacf:	00 
  40aad0:	48 85 c0             	test   %rax,%rax
  40aad3:	0f 84 5a 01 00 00    	je     40ac33 <_ZN14ProducerUnsafe3runEv+0x293>
  40aad9:	80 78 38 00          	cmpb   $0x0,0x38(%rax)
  40aadd:	0f 84 e2 00 00 00    	je     40abc5 <_ZN14ProducerUnsafe3runEv+0x225>
  40aae3:	0f b6 40 43          	movzbl 0x43(%rax),%eax
  40aae7:	0f be f0             	movsbl %al,%esi
  40aaea:	4c 89 ff             	mov    %r15,%rdi
  40aaed:	f3 0f 11 4c 24 10    	movss  %xmm1,0x10(%rsp)
  40aaf3:	f2 0f 11 54 24 08    	movsd  %xmm2,0x8(%rsp)
  40aaf9:	e8 32 a9 ff ff       	callq  405430 <_ZNSo3putEc@plt>
  40aafe:	48 89 c7             	mov    %rax,%rdi
  40ab01:	e8 aa a8 ff ff       	callq  4053b0 <_ZNSo5flushEv@plt>
  40ab06:	48 8d 35 8c 41 00 00 	lea    0x418c(%rip),%rsi        # 40ec99 <_ZTS14CustomColorMap+0xf9>
  40ab0d:	ba 10 00 00 00       	mov    $0x10,%edx
  40ab12:	4c 89 ef             	mov    %r13,%rdi
  40ab15:	e8 f6 ad ff ff       	callq  405910 <_ZSt16__ostream_insertIcSt11char_traitsIcEERSt13basic_ostreamIT_T0_ES6_PKS3_l@plt>
  40ab1a:	f2 0f 10 54 24 08    	movsd  0x8(%rsp),%xmm2
  40ab20:	b8 00 05 00 00       	mov    $0x500,%eax
  40ab25:	99                   	cltd   
  40ab26:	4c 89 ef             	mov    %r13,%rdi
  40ab29:	f2 0f 5e 15 1f 41 00 	divsd  0x411f(%rip),%xmm2        # 40ec50 <_ZTS14CustomColorMap+0xb0>
  40ab30:	00 
  40ab31:	f2 0f 2c ca          	cvttsd2si %xmm2,%ecx
  40ab35:	f7 f9                	idiv   %ecx
  40ab37:	f2 0f 2a c0          	cvtsi2sd %eax,%xmm0
  40ab3b:	e8 30 ab ff ff       	callq  405670 <_ZNSo9_M_insertIdEERSoT_@plt>
  40ab40:	48 8d 35 fd 40 00 00 	lea    0x40fd(%rip),%rsi        # 40ec44 <_ZTS14CustomColorMap+0xa4>
  40ab47:	49 89 c7             	mov    %rax,%r15
  40ab4a:	ba 04 00 00 00       	mov    $0x4,%edx
  40ab4f:	48 89 c7             	mov    %rax,%rdi
  40ab52:	e8 b9 ad ff ff       	callq  405910 <_ZSt16__ostream_insertIcSt11char_traitsIcEERSt13basic_ostreamIT_T0_ES6_PKS3_l@plt>
  40ab57:	49 8b 07             	mov    (%r15),%rax
  40ab5a:	48 8b 40 e8          	mov    -0x18(%rax),%rax
  40ab5e:	49 8b 84 07 f0 00 00 	mov    0xf0(%r15,%rax,1),%rax
  40ab65:	00 
  40ab66:	48 85 c0             	test   %rax,%rax
  40ab69:	0f 84 c4 00 00 00    	je     40ac33 <_ZN14ProducerUnsafe3runEv+0x293>
  40ab6f:	80 78 38 00          	cmpb   $0x0,0x38(%rax)
  40ab73:	f3 0f 10 4c 24 10    	movss  0x10(%rsp),%xmm1
  40ab79:	0f 84 83 00 00 00    	je     40ac02 <_ZN14ProducerUnsafe3runEv+0x262>
  40ab7f:	0f b6 40 43          	movzbl 0x43(%rax),%eax
  40ab83:	0f be f0             	movsbl %al,%esi
  40ab86:	4c 89 ff             	mov    %r15,%rdi
  40ab89:	f3 0f 11 4c 24 08    	movss  %xmm1,0x8(%rsp)
  40ab8f:	e8 9c a8 ff ff       	callq  405430 <_ZNSo3putEc@plt>
  40ab94:	48 89 c7             	mov    %rax,%rdi
  40ab97:	e8 14 a8 ff ff       	callq  4053b0 <_ZNSo5flushEv@plt>
  40ab9c:	31 ff                	xor    %edi,%edi
  40ab9e:	e8 4d aa ff ff       	callq  4055f0 <time@plt>
  40aba3:	f2 48 0f 2a e0       	cvtsi2sd %rax,%xmm4
  40aba8:	f2 0f 10 1d a0 40 00 	movsd  0x40a0(%rip),%xmm3        # 40ec50 <_ZTS14CustomColorMap+0xb0>
  40abaf:	00 
  40abb0:	f3 0f 10 4c 24 08    	movss  0x8(%rsp),%xmm1
  40abb6:	f2 0f 59 dc          	mulsd  %xmm4,%xmm3
  40abba:	f2 0f 11 5c 24 10    	movsd  %xmm3,0x10(%rsp)
  40abc0:	e9 33 fe ff ff       	jmpq   40a9f8 <_ZN14ProducerUnsafe3runEv+0x58>
  40abc5:	48 89 c7             	mov    %rax,%rdi
  40abc8:	f3 0f 11 4c 24 1c    	movss  %xmm1,0x1c(%rsp)
  40abce:	48 89 44 24 08       	mov    %rax,0x8(%rsp)
  40abd3:	f2 0f 11 54 24 10    	movsd  %xmm2,0x10(%rsp)
  40abd9:	e8 c2 a7 ff ff       	callq  4053a0 <_ZNKSt5ctypeIcE13_M_widen_initEv@plt>
  40abde:	48 8b 44 24 08       	mov    0x8(%rsp),%rax
  40abe3:	be 0a 00 00 00       	mov    $0xa,%esi
  40abe8:	48 8b 10             	mov    (%rax),%rdx
  40abeb:	48 89 c7             	mov    %rax,%rdi
  40abee:	ff 52 30             	callq  *0x30(%rdx)
  40abf1:	f3 0f 10 4c 24 1c    	movss  0x1c(%rsp),%xmm1
  40abf7:	f2 0f 10 54 24 10    	movsd  0x10(%rsp),%xmm2
  40abfd:	e9 e5 fe ff ff       	jmpq   40aae7 <_ZN14ProducerUnsafe3runEv+0x147>
  40ac02:	48 89 c7             	mov    %rax,%rdi
  40ac05:	f3 0f 11 4c 24 10    	movss  %xmm1,0x10(%rsp)
  40ac0b:	48 89 44 24 08       	mov    %rax,0x8(%rsp)
  40ac10:	e8 8b a7 ff ff       	callq  4053a0 <_ZNKSt5ctypeIcE13_M_widen_initEv@plt>
  40ac15:	48 8b 44 24 08       	mov    0x8(%rsp),%rax
  40ac1a:	be 0a 00 00 00       	mov    $0xa,%esi
  40ac1f:	48 8b 10             	mov    (%rax),%rdx
  40ac22:	48 89 c7             	mov    %rax,%rdi
  40ac25:	ff 52 30             	callq  *0x30(%rdx)
  40ac28:	f3 0f 10 4c 24 10    	movss  0x10(%rsp),%xmm1
  40ac2e:	e9 50 ff ff ff       	jmpq   40ab83 <_ZN14ProducerUnsafe3runEv+0x1e3>
  40ac33:	e8 d8 a5 ff ff       	callq  405210 <_ZSt16__throw_bad_castv@plt>
  40ac38:	0f 1f 84 00 00 00 00 	nopl   0x0(%rax,%rax,1)
  40ac3f:	00 

000000000040ac40 <_ZN14ProducerUnsafeC1EP7QObject>:
  40ac40:	53                   	push   %rbx
  40ac41:	48 89 fb             	mov    %rdi,%rbx
  40ac44:	e8 47 ac ff ff       	callq  405890 <_ZN7QThreadC2EP7QObject@plt>
  40ac49:	48 8d 05 f0 ad 20 00 	lea    0x20adf0(%rip),%rax        # 615a40 <_ZTV14ProducerUnsafe>
  40ac50:	48 83 c0 10          	add    $0x10,%rax
  40ac54:	48 89 03             	mov    %rax,(%rbx)
  40ac57:	5b                   	pop    %rbx
  40ac58:	c3                   	retq   
  40ac59:	90                   	nop
  40ac5a:	66 0f 1f 44 00 00    	nopw   0x0(%rax,%rax,1)

000000000040ac60 <_ZN14ProducerUnsafeC1EP7QObjectP29CircularArray2DWorkerThreadedIfE>:
  40ac60:	55                   	push   %rbp
  40ac61:	48 89 d5             	mov    %rdx,%rbp
  40ac64:	53                   	push   %rbx
  40ac65:	48 89 fb             	mov    %rdi,%rbx
  40ac68:	48 83 ec 08          	sub    $0x8,%rsp
  40ac6c:	e8 1f ac ff ff       	callq  405890 <_ZN7QThreadC2EP7QObject@plt>
  40ac71:	48 8d 05 c8 ad 20 00 	lea    0x20adc8(%rip),%rax        # 615a40 <_ZTV14ProducerUnsafe>
  40ac78:	48 89 6b 10          	mov    %rbp,0x10(%rbx)
  40ac7c:	48 83 c0 10          	add    $0x10,%rax
  40ac80:	48 89 03             	mov    %rax,(%rbx)
  40ac83:	48 83 c4 08          	add    $0x8,%rsp
  40ac87:	5b                   	pop    %rbx
  40ac88:	5d                   	pop    %rbp
  40ac89:	c3                   	retq   
  40ac8a:	66 0f 1f 44 00 00    	nopw   0x0(%rax,%rax,1)

000000000040ac90 <_ZN14ConsumerUnsafe3runEv>:
  40ac90:	41 54                	push   %r12
  40ac92:	55                   	push   %rbp
  40ac93:	48 89 fd             	mov    %rdi,%rbp
  40ac96:	bf 20 00 00 00       	mov    $0x20,%edi
  40ac9b:	53                   	push   %rbx
  40ac9c:	48 83 ec 30          	sub    $0x30,%rsp
  40aca0:	e8 bb a3 ff ff       	callq  405060 <_Znwm@plt>
  40aca5:	ba f4 01 00 00       	mov    $0x1f4,%edx
  40acaa:	be 00 01 00 00       	mov    $0x100,%esi
  40acaf:	48 89 c7             	mov    %rax,%rdi
  40acb2:	48 89 c3             	mov    %rax,%rbx
  40acb5:	e8 56 0a 00 00       	callq  40b710 <_ZN15Array2DSpectrumIfEC1Eii>
  40acba:	31 ff                	xor    %edi,%edi
  40acbc:	31 db                	xor    %ebx,%ebx
  40acbe:	41 bc d3 4d 62 10    	mov    $0x10624dd3,%r12d
  40acc4:	e8 27 a9 ff ff       	callq  4055f0 <time@plt>
  40acc9:	48 89 44 24 20       	mov    %rax,0x20(%rsp)
  40acce:	df 6c 24 20          	fildll 0x20(%rsp)
  40acd2:	d8 0d 9c 3f 00 00    	fmuls  0x3f9c(%rip)        # 40ec74 <_ZTS14CustomColorMap+0xd4>
  40acd8:	db 7c 24 10          	fstpt  0x10(%rsp)
  40acdc:	eb 0a                	jmp    40ace8 <_ZN14ConsumerUnsafe3runEv+0x58>
  40acde:	66 90                	xchg   %ax,%ax
  40ace0:	81 fb 40 4b 4c 00    	cmp    $0x4c4b40,%ebx
  40ace6:	74 4e                	je     40ad36 <_ZN14ConsumerUnsafe3runEv+0xa6>
  40ace8:	48 8b 75 10          	mov    0x10(%rbp),%rsi
  40acec:	48 8b 7d 18          	mov    0x18(%rbp),%rdi
  40acf0:	81 c3 f4 01 00 00    	add    $0x1f4,%ebx
  40acf6:	ba f4 01 00 00       	mov    $0x1f4,%edx
  40acfb:	e8 e0 e1 ff ff       	callq  408ee0 <_ZN15SpectrogramDataIfE24fastAddDataSectionMemCpyEP31CircularArray2DSpectrumThreadedIfEi>
  40ad00:	89 d8                	mov    %ebx,%eax
  40ad02:	41 f7 ec             	imul   %r12d
  40ad05:	89 d8                	mov    %ebx,%eax
  40ad07:	c1 f8 1f             	sar    $0x1f,%eax
  40ad0a:	c1 fa 05             	sar    $0x5,%edx
  40ad0d:	29 c2                	sub    %eax,%edx
  40ad0f:	69 d2 f4 01 00 00    	imul   $0x1f4,%edx,%edx
  40ad15:	39 d3                	cmp    %edx,%ebx
  40ad17:	75 c7                	jne    40ace0 <_ZN14ConsumerUnsafe3runEv+0x50>
  40ad19:	48 8b 75 18          	mov    0x18(%rbp),%rsi
  40ad1d:	48 8b 7d 20          	mov    0x20(%rbp),%rdi
  40ad21:	e8 ea e7 ff ff       	callq  409510 <_ZN15SpectrogramPlot11pushNewDataEP15SpectrogramDataIfE>
  40ad26:	48 89 ef             	mov    %rbp,%rdi
  40ad29:	e8 22 38 00 00       	callq  40e550 <_ZN14ConsumerUnsafe17spectDataReceivedEv>
  40ad2e:	81 fb 40 4b 4c 00    	cmp    $0x4c4b40,%ebx
  40ad34:	75 b2                	jne    40ace8 <_ZN14ConsumerUnsafe3runEv+0x58>
  40ad36:	31 ff                	xor    %edi,%edi
  40ad38:	e8 b3 a8 ff ff       	callq  4055f0 <time@plt>
  40ad3d:	48 89 44 24 20       	mov    %rax,0x20(%rsp)
  40ad42:	48 8b 1d 8f b2 20 00 	mov    0x20b28f(%rip),%rbx        # 615fd8 <_DYNAMIC+0x248>
  40ad49:	48 8d 35 0c 3f 00 00 	lea    0x3f0c(%rip),%rsi        # 40ec5c <_ZTS14CustomColorMap+0xbc>
  40ad50:	df 6c 24 20          	fildll 0x20(%rsp)
  40ad54:	ba 17 00 00 00       	mov    $0x17,%edx
  40ad59:	48 89 df             	mov    %rbx,%rdi
  40ad5c:	d8 0d 12 3f 00 00    	fmuls  0x3f12(%rip)        # 40ec74 <_ZTS14CustomColorMap+0xd4>
  40ad62:	db 6c 24 10          	fldt   0x10(%rsp)
  40ad66:	de e9                	fsubrp %st,%st(1)
  40ad68:	db 7c 24 10          	fstpt  0x10(%rsp)
  40ad6c:	e8 9f ab ff ff       	callq  405910 <_ZSt16__ostream_insertIcSt11char_traitsIcEERSt13basic_ostreamIT_T0_ES6_PKS3_l@plt>
  40ad71:	48 89 df             	mov    %rbx,%rdi
  40ad74:	db 6c 24 10          	fldt   0x10(%rsp)
  40ad78:	db 3c 24             	fstpt  (%rsp)
  40ad7b:	e8 c0 a2 ff ff       	callq  405040 <_ZNSo9_M_insertIeEERSoT_@plt>
  40ad80:	48 8d 35 b9 3e 00 00 	lea    0x3eb9(%rip),%rsi        # 40ec40 <_ZTS14CustomColorMap+0xa0>
  40ad87:	48 89 c5             	mov    %rax,%rbp
  40ad8a:	ba 03 00 00 00       	mov    $0x3,%edx
  40ad8f:	48 89 c7             	mov    %rax,%rdi
  40ad92:	e8 79 ab ff ff       	callq  405910 <_ZSt16__ostream_insertIcSt11char_traitsIcEERSt13basic_ostreamIT_T0_ES6_PKS3_l@plt>
  40ad97:	48 8b 45 00          	mov    0x0(%rbp),%rax
  40ad9b:	db 6c 24 10          	fldt   0x10(%rsp)
  40ad9f:	48 8b 40 e8          	mov    -0x18(%rax),%rax
  40ada3:	4c 8b a4 05 f0 00 00 	mov    0xf0(%rbp,%rax,1),%r12
  40adaa:	00 
  40adab:	4d 85 e4             	test   %r12,%r12
  40adae:	0f 84 09 01 00 00    	je     40aebd <_ZN14ConsumerUnsafe3runEv+0x22d>
  40adb4:	41 80 7c 24 38 00    	cmpb   $0x0,0x38(%r12)
  40adba:	0f 84 c0 00 00 00    	je     40ae80 <_ZN14ConsumerUnsafe3runEv+0x1f0>
  40adc0:	41 0f b6 44 24 43    	movzbl 0x43(%r12),%eax
  40adc6:	db 7c 24 10          	fstpt  0x10(%rsp)
  40adca:	0f be f0             	movsbl %al,%esi
  40adcd:	48 89 ef             	mov    %rbp,%rdi
  40add0:	e8 5b a6 ff ff       	callq  405430 <_ZNSo3putEc@plt>
  40add5:	48 89 c7             	mov    %rax,%rdi
  40add8:	e8 d3 a5 ff ff       	callq  4053b0 <_ZNSo5flushEv@plt>
  40addd:	48 8d 35 b5 3e 00 00 	lea    0x3eb5(%rip),%rsi        # 40ec99 <_ZTS14CustomColorMap+0xf9>
  40ade4:	48 89 df             	mov    %rbx,%rdi
  40ade7:	ba 10 00 00 00       	mov    $0x10,%edx
  40adec:	e8 1f ab ff ff       	callq  405910 <_ZSt16__ostream_insertIcSt11char_traitsIcEERSt13basic_ostreamIT_T0_ES6_PKS3_l@plt>
  40adf1:	d9 7c 24 2e          	fnstcw 0x2e(%rsp)
  40adf5:	db 6c 24 10          	fldt   0x10(%rsp)
  40adf9:	0f b7 44 24 2e       	movzwl 0x2e(%rsp),%eax
  40adfe:	48 89 df             	mov    %rbx,%rdi
  40ae01:	80 cc 0c             	or     $0xc,%ah
  40ae04:	66 89 44 24 2c       	mov    %ax,0x2c(%rsp)
  40ae09:	b8 00 05 00 00       	mov    $0x500,%eax
  40ae0e:	99                   	cltd   
  40ae0f:	d8 35 5f 3e 00 00    	fdivs  0x3e5f(%rip)        # 40ec74 <_ZTS14CustomColorMap+0xd4>
  40ae15:	d9 6c 24 2c          	fldcw  0x2c(%rsp)
  40ae19:	db 5c 24 28          	fistpl 0x28(%rsp)
  40ae1d:	d9 6c 24 2e          	fldcw  0x2e(%rsp)
  40ae21:	8b 4c 24 28          	mov    0x28(%rsp),%ecx
  40ae25:	f7 f9                	idiv   %ecx
  40ae27:	f2 0f 2a c0          	cvtsi2sd %eax,%xmm0
  40ae2b:	e8 40 a8 ff ff       	callq  405670 <_ZNSo9_M_insertIdEERSoT_@plt>
  40ae30:	48 8d 35 0d 3e 00 00 	lea    0x3e0d(%rip),%rsi        # 40ec44 <_ZTS14CustomColorMap+0xa4>
  40ae37:	48 89 c3             	mov    %rax,%rbx
  40ae3a:	ba 04 00 00 00       	mov    $0x4,%edx
  40ae3f:	48 89 c7             	mov    %rax,%rdi
  40ae42:	e8 c9 aa ff ff       	callq  405910 <_ZSt16__ostream_insertIcSt11char_traitsIcEERSt13basic_ostreamIT_T0_ES6_PKS3_l@plt>
  40ae47:	48 8b 03             	mov    (%rbx),%rax
  40ae4a:	48 8b 40 e8          	mov    -0x18(%rax),%rax
  40ae4e:	48 8b ac 03 f0 00 00 	mov    0xf0(%rbx,%rax,1),%rbp
  40ae55:	00 
  40ae56:	48 85 ed             	test   %rbp,%rbp
  40ae59:	74 64                	je     40aebf <_ZN14ConsumerUnsafe3runEv+0x22f>
  40ae5b:	80 7d 38 00          	cmpb   $0x0,0x38(%rbp)
  40ae5f:	74 43                	je     40aea4 <_ZN14ConsumerUnsafe3runEv+0x214>
  40ae61:	0f b6 45 43          	movzbl 0x43(%rbp),%eax
  40ae65:	48 89 df             	mov    %rbx,%rdi
  40ae68:	0f be f0             	movsbl %al,%esi
  40ae6b:	e8 c0 a5 ff ff       	callq  405430 <_ZNSo3putEc@plt>
  40ae70:	48 83 c4 30          	add    $0x30,%rsp
  40ae74:	48 89 c7             	mov    %rax,%rdi
  40ae77:	5b                   	pop    %rbx
  40ae78:	5d                   	pop    %rbp
  40ae79:	41 5c                	pop    %r12
  40ae7b:	e9 30 a5 ff ff       	jmpq   4053b0 <_ZNSo5flushEv@plt>
  40ae80:	db 7c 24 10          	fstpt  0x10(%rsp)
  40ae84:	4c 89 e7             	mov    %r12,%rdi
  40ae87:	e8 14 a5 ff ff       	callq  4053a0 <_ZNKSt5ctypeIcE13_M_widen_initEv@plt>
  40ae8c:	49 8b 04 24          	mov    (%r12),%rax
  40ae90:	be 0a 00 00 00       	mov    $0xa,%esi
  40ae95:	4c 89 e7             	mov    %r12,%rdi
  40ae98:	ff 50 30             	callq  *0x30(%rax)
  40ae9b:	db 6c 24 10          	fldt   0x10(%rsp)
  40ae9f:	e9 22 ff ff ff       	jmpq   40adc6 <_ZN14ConsumerUnsafe3runEv+0x136>
  40aea4:	48 89 ef             	mov    %rbp,%rdi
  40aea7:	e8 f4 a4 ff ff       	callq  4053a0 <_ZNKSt5ctypeIcE13_M_widen_initEv@plt>
  40aeac:	48 8b 45 00          	mov    0x0(%rbp),%rax
  40aeb0:	be 0a 00 00 00       	mov    $0xa,%esi
  40aeb5:	48 89 ef             	mov    %rbp,%rdi
  40aeb8:	ff 50 30             	callq  *0x30(%rax)
  40aebb:	eb a8                	jmp    40ae65 <_ZN14ConsumerUnsafe3runEv+0x1d5>
  40aebd:	dd d8                	fstp   %st(0)
  40aebf:	e8 4c a3 ff ff       	callq  405210 <_ZSt16__throw_bad_castv@plt>
  40aec4:	48 89 c5             	mov    %rax,%rbp
  40aec7:	48 89 df             	mov    %rbx,%rdi
  40aeca:	e8 51 a5 ff ff       	callq  405420 <_ZdlPv@plt>
  40aecf:	48 89 ef             	mov    %rbp,%rdi
  40aed2:	e8 49 a6 ff ff       	callq  405520 <_Unwind_Resume@plt>
  40aed7:	90                   	nop
  40aed8:	0f 1f 84 00 00 00 00 	nopl   0x0(%rax,%rax,1)
  40aedf:	00 

000000000040aee0 <_ZN14ConsumerUnsafeC1EP7QObject>:
  40aee0:	53                   	push   %rbx
  40aee1:	48 89 fb             	mov    %rdi,%rbx
  40aee4:	e8 a7 a9 ff ff       	callq  405890 <_ZN7QThreadC2EP7QObject@plt>
  40aee9:	48 8d 05 30 ac 20 00 	lea    0x20ac30(%rip),%rax        # 615b20 <_ZTV14ConsumerUnsafe>
  40aef0:	48 83 c0 10          	add    $0x10,%rax
  40aef4:	48 89 03             	mov    %rax,(%rbx)
  40aef7:	5b                   	pop    %rbx
  40aef8:	c3                   	retq   
  40aef9:	90                   	nop
  40aefa:	66 0f 1f 44 00 00    	nopw   0x0(%rax,%rax,1)

000000000040af00 <_ZN14ConsumerUnsafeC1EP7QObjectP31CircularArray2DSpectrumThreadedIfEP15SpectrogramDataIfEP15SpectrogramPlot>:
  40af00:	41 55                	push   %r13
  40af02:	49 89 d5             	mov    %rdx,%r13
  40af05:	41 54                	push   %r12
  40af07:	4d 89 c4             	mov    %r8,%r12
  40af0a:	55                   	push   %rbp
  40af0b:	48 89 cd             	mov    %rcx,%rbp
  40af0e:	53                   	push   %rbx
  40af0f:	48 89 fb             	mov    %rdi,%rbx
  40af12:	48 83 ec 08          	sub    $0x8,%rsp
  40af16:	e8 75 a9 ff ff       	callq  405890 <_ZN7QThreadC2EP7QObject@plt>
  40af1b:	48 8d 05 fe ab 20 00 	lea    0x20abfe(%rip),%rax        # 615b20 <_ZTV14ConsumerUnsafe>
  40af22:	4c 89 6b 10          	mov    %r13,0x10(%rbx)
  40af26:	48 89 ef             	mov    %rbp,%rdi
  40af29:	48 89 6b 18          	mov    %rbp,0x18(%rbx)
  40af2d:	48 83 c0 10          	add    $0x10,%rax
  40af31:	48 89 03             	mov    %rax,(%rbx)
  40af34:	e8 b7 df ff ff       	callq  408ef0 <_ZN15SpectrogramDataIfE9resetDataEv>
  40af39:	4c 89 63 20          	mov    %r12,0x20(%rbx)
  40af3d:	48 83 c4 08          	add    $0x8,%rsp
  40af41:	5b                   	pop    %rbx
  40af42:	5d                   	pop    %rbp
  40af43:	41 5c                	pop    %r12
  40af45:	41 5d                	pop    %r13
  40af47:	c3                   	retq   
  40af48:	48 89 c5             	mov    %rax,%rbp
  40af4b:	48 89 df             	mov    %rbx,%rdi
  40af4e:	e8 3d ab ff ff       	callq  405a90 <_ZN7QThreadD2Ev@plt>
  40af53:	48 89 ef             	mov    %rbp,%rdi
  40af56:	e8 c5 a5 ff ff       	callq  405520 <_Unwind_Resume@plt>
  40af5b:	0f 1f 44 00 00       	nopl   0x0(%rax,%rax,1)

000000000040af60 <_ZN29CircularArray2DWorkerThreadedIiEC1Eii>:
  40af60:	55                   	push   %rbp
  40af61:	89 d5                	mov    %edx,%ebp
  40af63:	53                   	push   %rbx
  40af64:	48 89 fb             	mov    %rdi,%rbx
  40af67:	48 83 ec 08          	sub    $0x8,%rsp
  40af6b:	e8 d0 cd ff ff       	callq  407d40 <_ZN21CircularArray2DWorkerIiEC1Eii>
  40af70:	89 6b 30             	mov    %ebp,0x30(%rbx)
  40af73:	c7 43 2c 00 00 00 00 	movl   $0x0,0x2c(%rbx)
  40af7a:	48 83 c4 08          	add    $0x8,%rsp
  40af7e:	5b                   	pop    %rbx
  40af7f:	5d                   	pop    %rbp
  40af80:	c3                   	retq   
  40af81:	66 2e 0f 1f 84 00 00 	nopw   %cs:0x0(%rax,%rax,1)
  40af88:	00 00 00 
  40af8b:	0f 1f 44 00 00       	nopl   0x0(%rax,%rax,1)

000000000040af90 <_ZN29CircularArray2DWorkerThreadedIiED1Ev>:
  40af90:	e9 db cd ff ff       	jmpq   407d70 <_ZN21CircularArray2DWorkerIiED1Ev>
  40af95:	66 2e 0f 1f 84 00 00 	nopw   %cs:0x0(%rax,%rax,1)
  40af9c:	00 00 00 
  40af9f:	90                   	nop

000000000040afa0 <_ZN29CircularArray2DWorkerThreadedIiE16getNumFreeSpacesEv>:
  40afa0:	8b 47 30             	mov    0x30(%rdi),%eax
  40afa3:	c3                   	retq   
  40afa4:	66 2e 0f 1f 84 00 00 	nopw   %cs:0x0(%rax,%rax,1)
  40afab:	00 00 00 
  40afae:	66 90                	xchg   %ax,%ax

000000000040afb0 <_ZN29CircularArray2DWorkerThreadedIiE16getNumUsedSpacesEv>:
  40afb0:	8b 47 2c             	mov    0x2c(%rdi),%eax
  40afb3:	c3                   	retq   
  40afb4:	66 2e 0f 1f 84 00 00 	nopw   %cs:0x0(%rax,%rax,1)
  40afbb:	00 00 00 
  40afbe:	66 90                	xchg   %ax,%ax

000000000040afc0 <_ZN29CircularArray2DWorkerThreadedIiE14fastPushColumnEPi>:
  40afc0:	53                   	push   %rbx
  40afc1:	48 89 fb             	mov    %rdi,%rbx
  40afc4:	e8 c7 cd ff ff       	callq  407d90 <_ZN21CircularArray2DWorkerIiE10pushColumnEPi>
  40afc9:	83 43 2c 01          	addl   $0x1,0x2c(%rbx)
  40afcd:	5b                   	pop    %rbx
  40afce:	c3                   	retq   
  40afcf:	90                   	nop

000000000040afd0 <_ZN29CircularArray2DWorkerThreadedIiE12fastPopBlockEP13Array2DWorkerIiEi>:
  40afd0:	48 89 f0             	mov    %rsi,%rax
  40afd3:	89 d6                	mov    %edx,%esi
  40afd5:	48 89 c2             	mov    %rax,%rdx
  40afd8:	e9 23 cf ff ff       	jmpq   407f00 <_ZN21CircularArray2DWorkerIiE16popColumnSectionEiP13Array2DWorkerIiE>
  40afdd:	0f 1f 00             	nopl   (%rax)

000000000040afe0 <_ZN29CircularArray2DWorkerThreadedIfEC1Eii>:
  40afe0:	55                   	push   %rbp
  40afe1:	89 d5                	mov    %edx,%ebp
  40afe3:	53                   	push   %rbx
  40afe4:	48 89 fb             	mov    %rdi,%rbx
  40afe7:	48 83 ec 08          	sub    $0x8,%rsp
  40afeb:	e8 50 d1 ff ff       	callq  408140 <_ZN21CircularArray2DWorkerIfEC1Eii>
  40aff0:	89 6b 30             	mov    %ebp,0x30(%rbx)
  40aff3:	c7 43 2c 00 00 00 00 	movl   $0x0,0x2c(%rbx)
  40affa:	48 83 c4 08          	add    $0x8,%rsp
  40affe:	5b                   	pop    %rbx
  40afff:	5d                   	pop    %rbp
  40b000:	c3                   	retq   
  40b001:	66 2e 0f 1f 84 00 00 	nopw   %cs:0x0(%rax,%rax,1)
  40b008:	00 00 00 
  40b00b:	0f 1f 44 00 00       	nopl   0x0(%rax,%rax,1)

000000000040b010 <_ZN29CircularArray2DWorkerThreadedIfED1Ev>:
  40b010:	e9 5b d1 ff ff       	jmpq   408170 <_ZN21CircularArray2DWorkerIfED1Ev>
  40b015:	66 2e 0f 1f 84 00 00 	nopw   %cs:0x0(%rax,%rax,1)
  40b01c:	00 00 00 
  40b01f:	90                   	nop

000000000040b020 <_ZN29CircularArray2DWorkerThreadedIfE16getNumFreeSpacesEv>:
  40b020:	8b 47 30             	mov    0x30(%rdi),%eax
  40b023:	c3                   	retq   
  40b024:	66 2e 0f 1f 84 00 00 	nopw   %cs:0x0(%rax,%rax,1)
  40b02b:	00 00 00 
  40b02e:	66 90                	xchg   %ax,%ax

000000000040b030 <_ZN29CircularArray2DWorkerThreadedIfE16getNumUsedSpacesEv>:
  40b030:	8b 47 2c             	mov    0x2c(%rdi),%eax
  40b033:	c3                   	retq   
  40b034:	66 2e 0f 1f 84 00 00 	nopw   %cs:0x0(%rax,%rax,1)
  40b03b:	00 00 00 
  40b03e:	66 90                	xchg   %ax,%ax

000000000040b040 <_ZN29CircularArray2DWorkerThreadedIfE14fastPushColumnEPf>:
  40b040:	53                   	push   %rbx
  40b041:	48 89 fb             	mov    %rdi,%rbx
  40b044:	e8 47 d1 ff ff       	callq  408190 <_ZN21CircularArray2DWorkerIfE10pushColumnEPf>
  40b049:	83 43 2c 01          	addl   $0x1,0x2c(%rbx)
  40b04d:	5b                   	pop    %rbx
  40b04e:	c3                   	retq   
  40b04f:	90                   	nop

000000000040b050 <_ZN29CircularArray2DWorkerThreadedIfE12fastPopBlockEP13Array2DWorkerIfEi>:
  40b050:	48 89 f0             	mov    %rsi,%rax
  40b053:	89 d6                	mov    %edx,%esi
  40b055:	48 89 c2             	mov    %rax,%rdx
  40b058:	e9 a3 d2 ff ff       	jmpq   408300 <_ZN21CircularArray2DWorkerIfE16popColumnSectionEiP13Array2DWorkerIfE>
  40b05d:	0f 1f 00             	nopl   (%rax)

000000000040b060 <_ZN29CircularArray2DWorkerThreadedIdEC1Eii>:
  40b060:	55                   	push   %rbp
  40b061:	89 d5                	mov    %edx,%ebp
  40b063:	53                   	push   %rbx
  40b064:	48 89 fb             	mov    %rdi,%rbx
  40b067:	48 83 ec 08          	sub    $0x8,%rsp
  40b06b:	e8 d0 d4 ff ff       	callq  408540 <_ZN21CircularArray2DWorkerIdEC1Eii>
  40b070:	89 6b 30             	mov    %ebp,0x30(%rbx)
  40b073:	c7 43 2c 00 00 00 00 	movl   $0x0,0x2c(%rbx)
  40b07a:	48 83 c4 08          	add    $0x8,%rsp
  40b07e:	5b                   	pop    %rbx
  40b07f:	5d                   	pop    %rbp
  40b080:	c3                   	retq   
  40b081:	66 2e 0f 1f 84 00 00 	nopw   %cs:0x0(%rax,%rax,1)
  40b088:	00 00 00 
  40b08b:	0f 1f 44 00 00       	nopl   0x0(%rax,%rax,1)

000000000040b090 <_ZN29CircularArray2DWorkerThreadedIdED1Ev>:
  40b090:	e9 db d4 ff ff       	jmpq   408570 <_ZN21CircularArray2DWorkerIdED1Ev>
  40b095:	66 2e 0f 1f 84 00 00 	nopw   %cs:0x0(%rax,%rax,1)
  40b09c:	00 00 00 
  40b09f:	90                   	nop

000000000040b0a0 <_ZN29CircularArray2DWorkerThreadedIdE16getNumFreeSpacesEv>:
  40b0a0:	8b 47 30             	mov    0x30(%rdi),%eax
  40b0a3:	c3                   	retq   
  40b0a4:	66 2e 0f 1f 84 00 00 	nopw   %cs:0x0(%rax,%rax,1)
  40b0ab:	00 00 00 
  40b0ae:	66 90                	xchg   %ax,%ax

000000000040b0b0 <_ZN29CircularArray2DWorkerThreadedIdE16getNumUsedSpacesEv>:
  40b0b0:	8b 47 2c             	mov    0x2c(%rdi),%eax
  40b0b3:	c3                   	retq   
  40b0b4:	66 2e 0f 1f 84 00 00 	nopw   %cs:0x0(%rax,%rax,1)
  40b0bb:	00 00 00 
  40b0be:	66 90                	xchg   %ax,%ax

000000000040b0c0 <_ZN29CircularArray2DWorkerThreadedIdE14fastPushColumnEPd>:
  40b0c0:	53                   	push   %rbx
  40b0c1:	48 89 fb             	mov    %rdi,%rbx
  40b0c4:	e8 c7 d4 ff ff       	callq  408590 <_ZN21CircularArray2DWorkerIdE10pushColumnEPd>
  40b0c9:	83 43 2c 01          	addl   $0x1,0x2c(%rbx)
  40b0cd:	5b                   	pop    %rbx
  40b0ce:	c3                   	retq   
  40b0cf:	90                   	nop

000000000040b0d0 <_ZN29CircularArray2DWorkerThreadedIdE12fastPopBlockEP13Array2DWorkerIdEi>:
  40b0d0:	48 89 f0             	mov    %rsi,%rax
  40b0d3:	89 d6                	mov    %edx,%esi
  40b0d5:	48 89 c2             	mov    %rax,%rdx
  40b0d8:	e9 23 d6 ff ff       	jmpq   408700 <_ZN21CircularArray2DWorkerIdE16popColumnSectionEiP13Array2DWorkerIdE>
  40b0dd:	0f 1f 00             	nopl   (%rax)

000000000040b0e0 <_ZN15Array2DSpectrumIiEC1Ev>:
  40b0e0:	48 c7 07 00 00 00 00 	movq   $0x0,(%rdi)
  40b0e7:	c7 47 08 00 00 00 00 	movl   $0x0,0x8(%rdi)
  40b0ee:	c7 47 0c 00 00 00 00 	movl   $0x0,0xc(%rdi)
  40b0f5:	48 c7 47 10 00 00 00 	movq   $0x0,0x10(%rdi)
  40b0fc:	00 
  40b0fd:	48 c7 47 18 00 00 00 	movq   $0x0,0x18(%rdi)
  40b104:	00 
  40b105:	c3                   	retq   
  40b106:	66 2e 0f 1f 84 00 00 	nopw   %cs:0x0(%rax,%rax,1)
  40b10d:	00 00 00 

000000000040b110 <_ZN15Array2DSpectrumIiEC1Eii>:
  40b110:	41 56                	push   %r14
  40b112:	4c 63 f2             	movslq %edx,%r14
  40b115:	41 55                	push   %r13
  40b117:	4c 63 ee             	movslq %esi,%r13
  40b11a:	44 89 e8             	mov    %r13d,%eax
  40b11d:	41 54                	push   %r12
  40b11f:	49 bc 00 00 00 00 00 	movabs $0x1fc0000000000000,%r12
  40b126:	00 c0 1f 
  40b129:	41 0f af c6          	imul   %r14d,%eax
  40b12d:	55                   	push   %rbp
  40b12e:	48 c7 c5 ff ff ff ff 	mov    $0xffffffffffffffff,%rbp
  40b135:	48 98                	cltq   
  40b137:	53                   	push   %rbx
  40b138:	48 89 fb             	mov    %rdi,%rbx
  40b13b:	44 89 6f 08          	mov    %r13d,0x8(%rdi)
  40b13f:	44 89 77 0c          	mov    %r14d,0xc(%rdi)
  40b143:	48 8d 3c 85 00 00 00 	lea    0x0(,%rax,4),%rdi
  40b14a:	00 
  40b14b:	4c 39 e0             	cmp    %r12,%rax
  40b14e:	48 0f 47 fd          	cmova  %rbp,%rdi
  40b152:	e8 09 a2 ff ff       	callq  405360 <_Znam@plt>
  40b157:	4a 8d 3c ad 00 00 00 	lea    0x0(,%r13,4),%rdi
  40b15e:	00 
  40b15f:	4d 39 e5             	cmp    %r12,%r13
  40b162:	48 89 03             	mov    %rax,(%rbx)
  40b165:	48 0f 47 fd          	cmova  %rbp,%rdi
  40b169:	e8 f2 a1 ff ff       	callq  405360 <_Znam@plt>
  40b16e:	4a 8d 3c b5 00 00 00 	lea    0x0(,%r14,4),%rdi
  40b175:	00 
  40b176:	4d 39 e6             	cmp    %r12,%r14
  40b179:	48 89 43 10          	mov    %rax,0x10(%rbx)
  40b17d:	48 0f 47 fd          	cmova  %rbp,%rdi
  40b181:	e8 da a1 ff ff       	callq  405360 <_Znam@plt>
  40b186:	48 89 43 18          	mov    %rax,0x18(%rbx)
  40b18a:	5b                   	pop    %rbx
  40b18b:	5d                   	pop    %rbp
  40b18c:	41 5c                	pop    %r12
  40b18e:	41 5d                	pop    %r13
  40b190:	41 5e                	pop    %r14
  40b192:	c3                   	retq   
  40b193:	66 2e 0f 1f 84 00 00 	nopw   %cs:0x0(%rax,%rax,1)
  40b19a:	00 00 00 
  40b19d:	0f 1f 00             	nopl   (%rax)

000000000040b1a0 <_ZN15Array2DSpectrumIiED1Ev>:
  40b1a0:	53                   	push   %rbx
  40b1a1:	48 89 fb             	mov    %rdi,%rbx
  40b1a4:	48 8b 3f             	mov    (%rdi),%rdi
  40b1a7:	48 85 ff             	test   %rdi,%rdi
  40b1aa:	74 05                	je     40b1b1 <_ZN15Array2DSpectrumIiED1Ev+0x11>
  40b1ac:	e8 af a0 ff ff       	callq  405260 <_ZdaPv@plt>
  40b1b1:	48 8b 7b 10          	mov    0x10(%rbx),%rdi
  40b1b5:	48 85 ff             	test   %rdi,%rdi
  40b1b8:	74 05                	je     40b1bf <_ZN15Array2DSpectrumIiED1Ev+0x1f>
  40b1ba:	e8 a1 a0 ff ff       	callq  405260 <_ZdaPv@plt>
  40b1bf:	48 8b 7b 18          	mov    0x18(%rbx),%rdi
  40b1c3:	48 85 ff             	test   %rdi,%rdi
  40b1c6:	74 05                	je     40b1cd <_ZN15Array2DSpectrumIiED1Ev+0x2d>
  40b1c8:	e8 93 a0 ff ff       	callq  405260 <_ZdaPv@plt>
  40b1cd:	c7 43 08 00 00 00 00 	movl   $0x0,0x8(%rbx)
  40b1d4:	c7 43 0c 00 00 00 00 	movl   $0x0,0xc(%rbx)
  40b1db:	5b                   	pop    %rbx
  40b1dc:	c3                   	retq   
  40b1dd:	0f 1f 00             	nopl   (%rax)

000000000040b1e0 <_ZN15Array2DSpectrumIiE15getChannelCountEv>:
  40b1e0:	8b 47 08             	mov    0x8(%rdi),%eax
  40b1e3:	c3                   	retq   
  40b1e4:	66 2e 0f 1f 84 00 00 	nopw   %cs:0x0(%rax,%rax,1)
  40b1eb:	00 00 00 
  40b1ee:	66 90                	xchg   %ax,%ax

000000000040b1f0 <_ZN15Array2DSpectrumIiE14getSampleCountEv>:
  40b1f0:	8b 47 0c             	mov    0xc(%rdi),%eax
  40b1f3:	c3                   	retq   
  40b1f4:	66 2e 0f 1f 84 00 00 	nopw   %cs:0x0(%rax,%rax,1)
  40b1fb:	00 00 00 
  40b1fe:	66 90                	xchg   %ax,%ax

000000000040b200 <_ZN15Array2DSpectrumIiE10getRawDataEv>:
  40b200:	48 8b 07             	mov    (%rdi),%rax
  40b203:	c3                   	retq   
  40b204:	66 2e 0f 1f 84 00 00 	nopw   %cs:0x0(%rax,%rax,1)
  40b20b:	00 00 00 
  40b20e:	66 90                	xchg   %ax,%ax

000000000040b210 <_ZNK15Array2DSpectrumIiE2atEii>:
  40b210:	eb fe                	jmp    40b210 <_ZNK15Array2DSpectrumIiE2atEii>
  40b212:	66 2e 0f 1f 84 00 00 	nopw   %cs:0x0(%rax,%rax,1)
  40b219:	00 00 00 
  40b21c:	0f 1f 40 00          	nopl   0x0(%rax)

000000000040b220 <_ZN15Array2DSpectrumIiE10loadMemCpyEPS0_>:
  40b220:	48 89 f8             	mov    %rdi,%rax
  40b223:	48 8b 36             	mov    (%rsi),%rsi
  40b226:	48 8b 3f             	mov    (%rdi),%rdi
  40b229:	8b 50 08             	mov    0x8(%rax),%edx
  40b22c:	0f af 50 0c          	imul   0xc(%rax),%edx
  40b230:	48 63 d2             	movslq %edx,%rdx
  40b233:	48 c1 e2 02          	shl    $0x2,%rdx
  40b237:	e9 84 9d ff ff       	jmpq   404fc0 <memcpy@plt>
  40b23c:	0f 1f 40 00          	nopl   0x0(%rax)

000000000040b240 <_ZN15Array2DSpectrumIiE11integrationEiPS0_>:
  40b240:	41 56                	push   %r14
  40b242:	41 55                	push   %r13
  40b244:	41 89 f5             	mov    %esi,%r13d
  40b247:	41 54                	push   %r12
  40b249:	55                   	push   %rbp
  40b24a:	48 89 fd             	mov    %rdi,%rbp
  40b24d:	53                   	push   %rbx
  40b24e:	8b 47 0c             	mov    0xc(%rdi),%eax
  40b251:	48 8b 1a             	mov    (%rdx),%rbx
  40b254:	4c 8b 27             	mov    (%rdi),%r12
  40b257:	99                   	cltd   
  40b258:	f7 fe                	idiv   %esi
  40b25a:	8b 57 08             	mov    0x8(%rdi),%edx
  40b25d:	31 f6                	xor    %esi,%esi
  40b25f:	48 89 df             	mov    %rbx,%rdi
  40b262:	0f af d0             	imul   %eax,%edx
  40b265:	41 89 c6             	mov    %eax,%r14d
  40b268:	48 63 d2             	movslq %edx,%rdx
  40b26b:	48 c1 e2 02          	shl    $0x2,%rdx
  40b26f:	e8 4c 9f ff ff       	callq  4051c0 <memset@plt>
  40b274:	45 85 f6             	test   %r14d,%r14d
  40b277:	74 57                	je     40b2d0 <_ZN15Array2DSpectrumIiE11integrationEiPS0_+0x90>
  40b279:	45 31 c9             	xor    %r9d,%r9d
  40b27c:	31 f6                	xor    %esi,%esi
  40b27e:	45 85 ed             	test   %r13d,%r13d
  40b281:	74 42                	je     40b2c5 <_ZN15Array2DSpectrumIiE11integrationEiPS0_+0x85>
  40b283:	8b 4d 08             	mov    0x8(%rbp),%ecx
  40b286:	31 ff                	xor    %edi,%edi
  40b288:	0f 1f 84 00 00 00 00 	nopl   0x0(%rax,%rax,1)
  40b28f:	00 
  40b290:	42 8d 04 0f          	lea    (%rdi,%r9,1),%eax
  40b294:	31 d2                	xor    %edx,%edx
  40b296:	0f af c1             	imul   %ecx,%eax
  40b299:	85 c9                	test   %ecx,%ecx
  40b29b:	48 98                	cltq   
  40b29d:	74 1e                	je     40b2bd <_ZN15Array2DSpectrumIiE11integrationEiPS0_+0x7d>
  40b29f:	90                   	nop
  40b2a0:	0f af ce             	imul   %esi,%ecx
  40b2a3:	41 89 d0             	mov    %edx,%r8d
  40b2a6:	49 01 c0             	add    %rax,%r8
  40b2a9:	47 8b 04 84          	mov    (%r12,%r8,4),%r8d
  40b2ad:	01 d1                	add    %edx,%ecx
  40b2af:	83 c2 01             	add    $0x1,%edx
  40b2b2:	44 01 04 8b          	add    %r8d,(%rbx,%rcx,4)
  40b2b6:	8b 4d 08             	mov    0x8(%rbp),%ecx
  40b2b9:	39 d1                	cmp    %edx,%ecx
  40b2bb:	77 e3                	ja     40b2a0 <_ZN15Array2DSpectrumIiE11integrationEiPS0_+0x60>
  40b2bd:	83 c7 01             	add    $0x1,%edi
  40b2c0:	44 39 ef             	cmp    %r13d,%edi
  40b2c3:	75 cb                	jne    40b290 <_ZN15Array2DSpectrumIiE11integrationEiPS0_+0x50>
  40b2c5:	83 c6 01             	add    $0x1,%esi
  40b2c8:	45 01 e9             	add    %r13d,%r9d
  40b2cb:	44 39 f6             	cmp    %r14d,%esi
  40b2ce:	75 ae                	jne    40b27e <_ZN15Array2DSpectrumIiE11integrationEiPS0_+0x3e>
  40b2d0:	5b                   	pop    %rbx
  40b2d1:	5d                   	pop    %rbp
  40b2d2:	41 5c                	pop    %r12
  40b2d4:	41 5d                	pop    %r13
  40b2d6:	41 5e                	pop    %r14
  40b2d8:	c3                   	retq   
  40b2d9:	0f 1f 80 00 00 00 00 	nopl   0x0(%rax)

000000000040b2e0 <_ZNK15Array2DSpectrumIiE11getLocationEii>:
  40b2e0:	0f af 57 08          	imul   0x8(%rdi),%edx
  40b2e4:	8d 04 32             	lea    (%rdx,%rsi,1),%eax
  40b2e7:	c3                   	retq   
  40b2e8:	0f 1f 84 00 00 00 00 	nopl   0x0(%rax,%rax,1)
  40b2ef:	00 

000000000040b2f0 <_ZN15Array2DSpectrumIiE2atEii>:
  40b2f0:	53                   	push   %rbx
  40b2f1:	48 8b 1f             	mov    (%rdi),%rbx
  40b2f4:	e8 e7 ff ff ff       	callq  40b2e0 <_ZNK15Array2DSpectrumIiE11getLocationEii>
  40b2f9:	48 98                	cltq   
  40b2fb:	8b 04 83             	mov    (%rbx,%rax,4),%eax
  40b2fe:	5b                   	pop    %rbx
  40b2ff:	c3                   	retq   

000000000040b300 <_ZN15Array2DSpectrumIiE20getChannelsForSampleEi>:
  40b300:	41 55                	push   %r13
  40b302:	41 89 f5             	mov    %esi,%r13d
  40b305:	41 54                	push   %r12
  40b307:	55                   	push   %rbp
  40b308:	48 89 fd             	mov    %rdi,%rbp
  40b30b:	53                   	push   %rbx
  40b30c:	31 db                	xor    %ebx,%ebx
  40b30e:	48 83 ec 08          	sub    $0x8,%rsp
  40b312:	8b 47 08             	mov    0x8(%rdi),%eax
  40b315:	85 c0                	test   %eax,%eax
  40b317:	7e 2c                	jle    40b345 <_ZN15Array2DSpectrumIiE20getChannelsForSampleEi+0x45>
  40b319:	0f 1f 80 00 00 00 00 	nopl   0x0(%rax)
  40b320:	48 8b 45 10          	mov    0x10(%rbp),%rax
  40b324:	89 de                	mov    %ebx,%esi
  40b326:	44 89 ea             	mov    %r13d,%edx
  40b329:	48 89 ef             	mov    %rbp,%rdi
  40b32c:	4c 8d 24 98          	lea    (%rax,%rbx,4),%r12
  40b330:	e8 bb ff ff ff       	callq  40b2f0 <_ZN15Array2DSpectrumIiE2atEii>
  40b335:	41 89 04 24          	mov    %eax,(%r12)
  40b339:	8d 43 01             	lea    0x1(%rbx),%eax
  40b33c:	48 83 c3 01          	add    $0x1,%rbx
  40b340:	39 45 08             	cmp    %eax,0x8(%rbp)
  40b343:	7f db                	jg     40b320 <_ZN15Array2DSpectrumIiE20getChannelsForSampleEi+0x20>
  40b345:	48 8b 45 10          	mov    0x10(%rbp),%rax
  40b349:	48 83 c4 08          	add    $0x8,%rsp
  40b34d:	5b                   	pop    %rbx
  40b34e:	5d                   	pop    %rbp
  40b34f:	41 5c                	pop    %r12
  40b351:	41 5d                	pop    %r13
  40b353:	c3                   	retq   
  40b354:	66 2e 0f 1f 84 00 00 	nopw   %cs:0x0(%rax,%rax,1)
  40b35b:	00 00 00 
  40b35e:	66 90                	xchg   %ax,%ax

000000000040b360 <_ZN15Array2DSpectrumIiE20getSamplesForChannelEi>:
  40b360:	41 55                	push   %r13
  40b362:	41 89 f5             	mov    %esi,%r13d
  40b365:	41 54                	push   %r12
  40b367:	55                   	push   %rbp
  40b368:	48 89 fd             	mov    %rdi,%rbp
  40b36b:	53                   	push   %rbx
  40b36c:	31 db                	xor    %ebx,%ebx
  40b36e:	48 83 ec 08          	sub    $0x8,%rsp
  40b372:	8b 47 0c             	mov    0xc(%rdi),%eax
  40b375:	85 c0                	test   %eax,%eax
  40b377:	7e 2c                	jle    40b3a5 <_ZN15Array2DSpectrumIiE20getSamplesForChannelEi+0x45>
  40b379:	0f 1f 80 00 00 00 00 	nopl   0x0(%rax)
  40b380:	48 8b 45 18          	mov    0x18(%rbp),%rax
  40b384:	89 da                	mov    %ebx,%edx
  40b386:	44 89 ee             	mov    %r13d,%esi
  40b389:	48 89 ef             	mov    %rbp,%rdi
  40b38c:	4c 8d 24 98          	lea    (%rax,%rbx,4),%r12
  40b390:	e8 5b ff ff ff       	callq  40b2f0 <_ZN15Array2DSpectrumIiE2atEii>
  40b395:	41 89 04 24          	mov    %eax,(%r12)
  40b399:	8d 43 01             	lea    0x1(%rbx),%eax
  40b39c:	48 83 c3 01          	add    $0x1,%rbx
  40b3a0:	39 45 0c             	cmp    %eax,0xc(%rbp)
  40b3a3:	7f db                	jg     40b380 <_ZN15Array2DSpectrumIiE20getSamplesForChannelEi+0x20>
  40b3a5:	48 8b 45 18          	mov    0x18(%rbp),%rax
  40b3a9:	48 83 c4 08          	add    $0x8,%rsp
  40b3ad:	5b                   	pop    %rbx
  40b3ae:	5d                   	pop    %rbp
  40b3af:	41 5c                	pop    %r12
  40b3b1:	41 5d                	pop    %r13
  40b3b3:	c3                   	retq   
  40b3b4:	66 2e 0f 1f 84 00 00 	nopw   %cs:0x0(%rax,%rax,1)
  40b3bb:	00 00 00 
  40b3be:	66 90                	xchg   %ax,%ax

000000000040b3c0 <_ZN15Array2DSpectrumIiE8toStringEv>:
  40b3c0:	41 55                	push   %r13
  40b3c2:	45 31 ed             	xor    %r13d,%r13d
  40b3c5:	41 54                	push   %r12
  40b3c7:	55                   	push   %rbp
  40b3c8:	48 89 fd             	mov    %rdi,%rbp
  40b3cb:	48 89 ef             	mov    %rbp,%rdi
  40b3ce:	53                   	push   %rbx
  40b3cf:	48 83 ec 08          	sub    $0x8,%rsp
  40b3d3:	e8 18 fe ff ff       	callq  40b1f0 <_ZN15Array2DSpectrumIiE14getSampleCountEv>
  40b3d8:	41 39 c5             	cmp    %eax,%r13d
  40b3db:	0f 8d 98 00 00 00    	jge    40b479 <_ZN15Array2DSpectrumIiE8toStringEv+0xb9>
  40b3e1:	0f 1f 80 00 00 00 00 	nopl   0x0(%rax)
  40b3e8:	31 db                	xor    %ebx,%ebx
  40b3ea:	4c 8b 25 e7 ab 20 00 	mov    0x20abe7(%rip),%r12        # 615fd8 <_DYNAMIC+0x248>
  40b3f1:	eb 33                	jmp    40b426 <_ZN15Array2DSpectrumIiE8toStringEv+0x66>
  40b3f3:	0f 1f 44 00 00       	nopl   0x0(%rax,%rax,1)
  40b3f8:	44 89 ea             	mov    %r13d,%edx
  40b3fb:	89 de                	mov    %ebx,%esi
  40b3fd:	48 89 ef             	mov    %rbp,%rdi
  40b400:	e8 eb fe ff ff       	callq  40b2f0 <_ZN15Array2DSpectrumIiE2atEii>
  40b405:	4c 89 e7             	mov    %r12,%rdi
  40b408:	89 c6                	mov    %eax,%esi
  40b40a:	83 c3 01             	add    $0x1,%ebx
  40b40d:	e8 de 9d ff ff       	callq  4051f0 <_ZNSolsEi@plt>
  40b412:	48 8d 35 0b 37 00 00 	lea    0x370b(%rip),%rsi        # 40eb24 <_IO_stdin_used+0xe4>
  40b419:	ba 01 00 00 00       	mov    $0x1,%edx
  40b41e:	48 89 c7             	mov    %rax,%rdi
  40b421:	e8 ea a4 ff ff       	callq  405910 <_ZSt16__ostream_insertIcSt11char_traitsIcEERSt13basic_ostreamIT_T0_ES6_PKS3_l@plt>
  40b426:	48 89 ef             	mov    %rbp,%rdi
  40b429:	e8 b2 fd ff ff       	callq  40b1e0 <_ZN15Array2DSpectrumIiE15getChannelCountEv>
  40b42e:	39 c3                	cmp    %eax,%ebx
  40b430:	7c c6                	jl     40b3f8 <_ZN15Array2DSpectrumIiE8toStringEv+0x38>
  40b432:	49 8b 04 24          	mov    (%r12),%rax
  40b436:	48 8b 40 e8          	mov    -0x18(%rax),%rax
  40b43a:	4a 8b 9c 20 f0 00 00 	mov    0xf0(%rax,%r12,1),%rbx
  40b441:	00 
  40b442:	48 85 db             	test   %rbx,%rbx
  40b445:	74 59                	je     40b4a0 <_ZN15Array2DSpectrumIiE8toStringEv+0xe0>
  40b447:	80 7b 38 00          	cmpb   $0x0,0x38(%rbx)
  40b44b:	74 3b                	je     40b488 <_ZN15Array2DSpectrumIiE8toStringEv+0xc8>
  40b44d:	0f b6 43 43          	movzbl 0x43(%rbx),%eax
  40b451:	0f be f0             	movsbl %al,%esi
  40b454:	4c 89 e7             	mov    %r12,%rdi
  40b457:	41 83 c5 01          	add    $0x1,%r13d
  40b45b:	e8 d0 9f ff ff       	callq  405430 <_ZNSo3putEc@plt>
  40b460:	48 89 c7             	mov    %rax,%rdi
  40b463:	e8 48 9f ff ff       	callq  4053b0 <_ZNSo5flushEv@plt>
  40b468:	48 89 ef             	mov    %rbp,%rdi
  40b46b:	e8 80 fd ff ff       	callq  40b1f0 <_ZN15Array2DSpectrumIiE14getSampleCountEv>
  40b470:	41 39 c5             	cmp    %eax,%r13d
  40b473:	0f 8c 6f ff ff ff    	jl     40b3e8 <_ZN15Array2DSpectrumIiE8toStringEv+0x28>
  40b479:	48 83 c4 08          	add    $0x8,%rsp
  40b47d:	5b                   	pop    %rbx
  40b47e:	5d                   	pop    %rbp
  40b47f:	41 5c                	pop    %r12
  40b481:	41 5d                	pop    %r13
  40b483:	c3                   	retq   
  40b484:	0f 1f 40 00          	nopl   0x0(%rax)
  40b488:	48 89 df             	mov    %rbx,%rdi
  40b48b:	e8 10 9f ff ff       	callq  4053a0 <_ZNKSt5ctypeIcE13_M_widen_initEv@plt>
  40b490:	48 8b 03             	mov    (%rbx),%rax
  40b493:	be 0a 00 00 00       	mov    $0xa,%esi
  40b498:	48 89 df             	mov    %rbx,%rdi
  40b49b:	ff 50 30             	callq  *0x30(%rax)
  40b49e:	eb b1                	jmp    40b451 <_ZN15Array2DSpectrumIiE8toStringEv+0x91>
  40b4a0:	e8 6b 9d ff ff       	callq  405210 <_ZSt16__throw_bad_castv@plt>
  40b4a5:	66 2e 0f 1f 84 00 00 	nopw   %cs:0x0(%rax,%rax,1)
  40b4ac:	00 00 00 
  40b4af:	90                   	nop

000000000040b4b0 <_ZN15Array2DSpectrumIiE3setEiii>:
  40b4b0:	55                   	push   %rbp
  40b4b1:	89 cd                	mov    %ecx,%ebp
  40b4b3:	53                   	push   %rbx
  40b4b4:	48 83 ec 08          	sub    $0x8,%rsp
  40b4b8:	48 8b 1f             	mov    (%rdi),%rbx
  40b4bb:	e8 20 fe ff ff       	callq  40b2e0 <_ZNK15Array2DSpectrumIiE11getLocationEii>
  40b4c0:	48 98                	cltq   
  40b4c2:	89 2c 83             	mov    %ebp,(%rbx,%rax,4)
  40b4c5:	48 83 c4 08          	add    $0x8,%rsp
  40b4c9:	5b                   	pop    %rbx
  40b4ca:	5d                   	pop    %rbp
  40b4cb:	c3                   	retq   
  40b4cc:	0f 1f 40 00          	nopl   0x0(%rax)

000000000040b4d0 <_ZN15Array2DSpectrumIiE9setSampleEiPi>:
  40b4d0:	41 55                	push   %r13
  40b4d2:	41 89 f5             	mov    %esi,%r13d
  40b4d5:	41 54                	push   %r12
  40b4d7:	49 89 fc             	mov    %rdi,%r12
  40b4da:	55                   	push   %rbp
  40b4db:	48 89 d5             	mov    %rdx,%rbp
  40b4de:	53                   	push   %rbx
  40b4df:	31 db                	xor    %ebx,%ebx
  40b4e1:	48 83 ec 08          	sub    $0x8,%rsp
  40b4e5:	8b 47 08             	mov    0x8(%rdi),%eax
  40b4e8:	85 c0                	test   %eax,%eax
  40b4ea:	7e 22                	jle    40b50e <_ZN15Array2DSpectrumIiE9setSampleEiPi+0x3e>
  40b4ec:	0f 1f 40 00          	nopl   0x0(%rax)
  40b4f0:	8b 4d 00             	mov    0x0(%rbp),%ecx
  40b4f3:	89 de                	mov    %ebx,%esi
  40b4f5:	44 89 ea             	mov    %r13d,%edx
  40b4f8:	4c 89 e7             	mov    %r12,%rdi
  40b4fb:	83 c3 01             	add    $0x1,%ebx
  40b4fe:	48 83 c5 04          	add    $0x4,%rbp
  40b502:	e8 a9 ff ff ff       	callq  40b4b0 <_ZN15Array2DSpectrumIiE3setEiii>
  40b507:	41 39 5c 24 08       	cmp    %ebx,0x8(%r12)
  40b50c:	7f e2                	jg     40b4f0 <_ZN15Array2DSpectrumIiE9setSampleEiPi+0x20>
  40b50e:	48 83 c4 08          	add    $0x8,%rsp
  40b512:	5b                   	pop    %rbx
  40b513:	5d                   	pop    %rbp
  40b514:	41 5c                	pop    %r12
  40b516:	41 5d                	pop    %r13
  40b518:	c3                   	retq   
  40b519:	0f 1f 80 00 00 00 00 	nopl   0x0(%rax)

000000000040b520 <_ZN15Array2DSpectrumIiE17getSamplesSectionEii>:
  40b520:	41 55                	push   %r13
  40b522:	49 89 f5             	mov    %rsi,%r13
  40b525:	41 54                	push   %r12
  40b527:	41 89 cc             	mov    %ecx,%r12d
  40b52a:	55                   	push   %rbp
  40b52b:	48 89 fd             	mov    %rdi,%rbp
  40b52e:	53                   	push   %rbx
  40b52f:	89 d3                	mov    %edx,%ebx
  40b531:	89 ca                	mov    %ecx,%edx
  40b533:	48 83 ec 08          	sub    $0x8,%rsp
  40b537:	8b 76 08             	mov    0x8(%rsi),%esi
  40b53a:	e8 d1 fb ff ff       	callq  40b110 <_ZN15Array2DSpectrumIiEC1Eii>
  40b53f:	41 39 dc             	cmp    %ebx,%r12d
  40b542:	7e 23                	jle    40b567 <_ZN15Array2DSpectrumIiE17getSamplesSectionEii+0x47>
  40b544:	0f 1f 40 00          	nopl   0x0(%rax)
  40b548:	89 de                	mov    %ebx,%esi
  40b54a:	4c 89 ef             	mov    %r13,%rdi
  40b54d:	e8 ae fd ff ff       	callq  40b300 <_ZN15Array2DSpectrumIiE20getChannelsForSampleEi>
  40b552:	48 89 c2             	mov    %rax,%rdx
  40b555:	89 de                	mov    %ebx,%esi
  40b557:	48 89 ef             	mov    %rbp,%rdi
  40b55a:	e8 71 ff ff ff       	callq  40b4d0 <_ZN15Array2DSpectrumIiE9setSampleEiPi>
  40b55f:	83 c3 01             	add    $0x1,%ebx
  40b562:	44 39 e3             	cmp    %r12d,%ebx
  40b565:	75 e1                	jne    40b548 <_ZN15Array2DSpectrumIiE17getSamplesSectionEii+0x28>
  40b567:	48 83 c4 08          	add    $0x8,%rsp
  40b56b:	48 89 e8             	mov    %rbp,%rax
  40b56e:	5b                   	pop    %rbx
  40b56f:	5d                   	pop    %rbp
  40b570:	41 5c                	pop    %r12
  40b572:	41 5d                	pop    %r13
  40b574:	c3                   	retq   
  40b575:	48 89 c3             	mov    %rax,%rbx
  40b578:	48 89 ef             	mov    %rbp,%rdi
  40b57b:	e8 20 fc ff ff       	callq  40b1a0 <_ZN15Array2DSpectrumIiED1Ev>
  40b580:	48 89 df             	mov    %rbx,%rdi
  40b583:	e8 98 9f ff ff       	callq  405520 <_Unwind_Resume@plt>
  40b588:	0f 1f 84 00 00 00 00 	nopl   0x0(%rax,%rax,1)
  40b58f:	00 

000000000040b590 <_ZN15Array2DSpectrumIiE10setChannelEiPi>:
  40b590:	41 55                	push   %r13
  40b592:	41 89 f5             	mov    %esi,%r13d
  40b595:	41 54                	push   %r12
  40b597:	49 89 fc             	mov    %rdi,%r12
  40b59a:	55                   	push   %rbp
  40b59b:	48 89 d5             	mov    %rdx,%rbp
  40b59e:	53                   	push   %rbx
  40b59f:	31 db                	xor    %ebx,%ebx
  40b5a1:	48 83 ec 08          	sub    $0x8,%rsp
  40b5a5:	8b 47 0c             	mov    0xc(%rdi),%eax
  40b5a8:	85 c0                	test   %eax,%eax
  40b5aa:	7e 22                	jle    40b5ce <_ZN15Array2DSpectrumIiE10setChannelEiPi+0x3e>
  40b5ac:	0f 1f 40 00          	nopl   0x0(%rax)
  40b5b0:	8b 4d 00             	mov    0x0(%rbp),%ecx
  40b5b3:	89 da                	mov    %ebx,%edx
  40b5b5:	44 89 ee             	mov    %r13d,%esi
  40b5b8:	4c 89 e7             	mov    %r12,%rdi
  40b5bb:	83 c3 01             	add    $0x1,%ebx
  40b5be:	48 83 c5 04          	add    $0x4,%rbp
  40b5c2:	e8 e9 fe ff ff       	callq  40b4b0 <_ZN15Array2DSpectrumIiE3setEiii>
  40b5c7:	41 39 5c 24 0c       	cmp    %ebx,0xc(%r12)
  40b5cc:	7f e2                	jg     40b5b0 <_ZN15Array2DSpectrumIiE10setChannelEiPi+0x20>
  40b5ce:	48 83 c4 08          	add    $0x8,%rsp
  40b5d2:	5b                   	pop    %rbx
  40b5d3:	5d                   	pop    %rbp
  40b5d4:	41 5c                	pop    %r12
  40b5d6:	41 5d                	pop    %r13
  40b5d8:	c3                   	retq   
  40b5d9:	0f 1f 80 00 00 00 00 	nopl   0x0(%rax)

000000000040b5e0 <_ZN15Array2DSpectrumIiE18getChannelsSectionEii>:
  40b5e0:	41 55                	push   %r13
  40b5e2:	49 89 f5             	mov    %rsi,%r13
  40b5e5:	41 54                	push   %r12
  40b5e7:	41 89 cc             	mov    %ecx,%r12d
  40b5ea:	55                   	push   %rbp
  40b5eb:	48 89 fd             	mov    %rdi,%rbp
  40b5ee:	53                   	push   %rbx
  40b5ef:	89 d3                	mov    %edx,%ebx
  40b5f1:	48 83 ec 08          	sub    $0x8,%rsp
  40b5f5:	8b 56 0c             	mov    0xc(%rsi),%edx
  40b5f8:	89 ce                	mov    %ecx,%esi
  40b5fa:	e8 11 fb ff ff       	callq  40b110 <_ZN15Array2DSpectrumIiEC1Eii>
  40b5ff:	41 39 dc             	cmp    %ebx,%r12d
  40b602:	7e 23                	jle    40b627 <_ZN15Array2DSpectrumIiE18getChannelsSectionEii+0x47>
  40b604:	0f 1f 40 00          	nopl   0x0(%rax)
  40b608:	89 de                	mov    %ebx,%esi
  40b60a:	4c 89 ef             	mov    %r13,%rdi
  40b60d:	e8 4e fd ff ff       	callq  40b360 <_ZN15Array2DSpectrumIiE20getSamplesForChannelEi>
  40b612:	48 89 c2             	mov    %rax,%rdx
  40b615:	89 de                	mov    %ebx,%esi
  40b617:	48 89 ef             	mov    %rbp,%rdi
  40b61a:	e8 71 ff ff ff       	callq  40b590 <_ZN15Array2DSpectrumIiE10setChannelEiPi>
  40b61f:	83 c3 01             	add    $0x1,%ebx
  40b622:	44 39 e3             	cmp    %r12d,%ebx
  40b625:	75 e1                	jne    40b608 <_ZN15Array2DSpectrumIiE18getChannelsSectionEii+0x28>
  40b627:	48 83 c4 08          	add    $0x8,%rsp
  40b62b:	48 89 e8             	mov    %rbp,%rax
  40b62e:	5b                   	pop    %rbx
  40b62f:	5d                   	pop    %rbp
  40b630:	41 5c                	pop    %r12
  40b632:	41 5d                	pop    %r13
  40b634:	c3                   	retq   
  40b635:	48 89 c3             	mov    %rax,%rbx
  40b638:	48 89 ef             	mov    %rbp,%rdi
  40b63b:	e8 60 fb ff ff       	callq  40b1a0 <_ZN15Array2DSpectrumIiED1Ev>
  40b640:	48 89 df             	mov    %rbx,%rdi
  40b643:	e8 d8 9e ff ff       	callq  405520 <_Unwind_Resume@plt>
  40b648:	0f 1f 84 00 00 00 00 	nopl   0x0(%rax,%rax,1)
  40b64f:	00 

000000000040b650 <_ZN15Array2DSpectrumIiE9transposeEv>:
  40b650:	41 55                	push   %r13
  40b652:	49 89 fd             	mov    %rdi,%r13
  40b655:	41 54                	push   %r12
  40b657:	49 89 f4             	mov    %rsi,%r12
  40b65a:	55                   	push   %rbp
  40b65b:	53                   	push   %rbx
  40b65c:	48 83 ec 08          	sub    $0x8,%rsp
  40b660:	8b 56 08             	mov    0x8(%rsi),%edx
  40b663:	8b 76 0c             	mov    0xc(%rsi),%esi
  40b666:	e8 a5 fa ff ff       	callq  40b110 <_ZN15Array2DSpectrumIiEC1Eii>
  40b66b:	41 8b 54 24 08       	mov    0x8(%r12),%edx
  40b670:	85 d2                	test   %edx,%edx
  40b672:	7e 4a                	jle    40b6be <_ZN15Array2DSpectrumIiE9transposeEv+0x6e>
  40b674:	31 ed                	xor    %ebp,%ebp
  40b676:	66 2e 0f 1f 84 00 00 	nopw   %cs:0x0(%rax,%rax,1)
  40b67d:	00 00 00 
  40b680:	41 8b 44 24 0c       	mov    0xc(%r12),%eax
  40b685:	85 c0                	test   %eax,%eax
  40b687:	7e 2b                	jle    40b6b4 <_ZN15Array2DSpectrumIiE9transposeEv+0x64>
  40b689:	31 db                	xor    %ebx,%ebx
  40b68b:	0f 1f 44 00 00       	nopl   0x0(%rax,%rax,1)
  40b690:	89 da                	mov    %ebx,%edx
  40b692:	89 ee                	mov    %ebp,%esi
  40b694:	4c 89 e7             	mov    %r12,%rdi
  40b697:	e8 54 fc ff ff       	callq  40b2f0 <_ZN15Array2DSpectrumIiE2atEii>
  40b69c:	89 c1                	mov    %eax,%ecx
  40b69e:	89 ea                	mov    %ebp,%edx
  40b6a0:	89 de                	mov    %ebx,%esi
  40b6a2:	4c 89 ef             	mov    %r13,%rdi
  40b6a5:	e8 06 fe ff ff       	callq  40b4b0 <_ZN15Array2DSpectrumIiE3setEiii>
  40b6aa:	83 c3 01             	add    $0x1,%ebx
  40b6ad:	41 39 5c 24 0c       	cmp    %ebx,0xc(%r12)
  40b6b2:	7f dc                	jg     40b690 <_ZN15Array2DSpectrumIiE9transposeEv+0x40>
  40b6b4:	83 c5 01             	add    $0x1,%ebp
  40b6b7:	41 39 6c 24 08       	cmp    %ebp,0x8(%r12)
  40b6bc:	7f c2                	jg     40b680 <_ZN15Array2DSpectrumIiE9transposeEv+0x30>
  40b6be:	48 83 c4 08          	add    $0x8,%rsp
  40b6c2:	4c 89 e8             	mov    %r13,%rax
  40b6c5:	5b                   	pop    %rbx
  40b6c6:	5d                   	pop    %rbp
  40b6c7:	41 5c                	pop    %r12
  40b6c9:	41 5d                	pop    %r13
  40b6cb:	c3                   	retq   
  40b6cc:	48 89 c3             	mov    %rax,%rbx
  40b6cf:	4c 89 ef             	mov    %r13,%rdi
  40b6d2:	e8 c9 fa ff ff       	callq  40b1a0 <_ZN15Array2DSpectrumIiED1Ev>
  40b6d7:	48 89 df             	mov    %rbx,%rdi
  40b6da:	e8 41 9e ff ff       	callq  405520 <_Unwind_Resume@plt>
  40b6df:	90                   	nop

000000000040b6e0 <_ZN15Array2DSpectrumIfEC1Ev>:
  40b6e0:	48 c7 07 00 00 00 00 	movq   $0x0,(%rdi)
  40b6e7:	c7 47 08 00 00 00 00 	movl   $0x0,0x8(%rdi)
  40b6ee:	c7 47 0c 00 00 00 00 	movl   $0x0,0xc(%rdi)
  40b6f5:	48 c7 47 10 00 00 00 	movq   $0x0,0x10(%rdi)
  40b6fc:	00 
  40b6fd:	48 c7 47 18 00 00 00 	movq   $0x0,0x18(%rdi)
  40b704:	00 
  40b705:	c3                   	retq   
  40b706:	66 2e 0f 1f 84 00 00 	nopw   %cs:0x0(%rax,%rax,1)
  40b70d:	00 00 00 

000000000040b710 <_ZN15Array2DSpectrumIfEC1Eii>:
  40b710:	41 56                	push   %r14
  40b712:	4c 63 f2             	movslq %edx,%r14
  40b715:	41 55                	push   %r13
  40b717:	4c 63 ee             	movslq %esi,%r13
  40b71a:	44 89 e8             	mov    %r13d,%eax
  40b71d:	41 54                	push   %r12
  40b71f:	49 bc 00 00 00 00 00 	movabs $0x1fc0000000000000,%r12
  40b726:	00 c0 1f 
  40b729:	41 0f af c6          	imul   %r14d,%eax
  40b72d:	55                   	push   %rbp
  40b72e:	48 c7 c5 ff ff ff ff 	mov    $0xffffffffffffffff,%rbp
  40b735:	48 98                	cltq   
  40b737:	53                   	push   %rbx
  40b738:	48 89 fb             	mov    %rdi,%rbx
  40b73b:	44 89 6f 08          	mov    %r13d,0x8(%rdi)
  40b73f:	44 89 77 0c          	mov    %r14d,0xc(%rdi)
  40b743:	48 8d 3c 85 00 00 00 	lea    0x0(,%rax,4),%rdi
  40b74a:	00 
  40b74b:	4c 39 e0             	cmp    %r12,%rax
  40b74e:	48 0f 47 fd          	cmova  %rbp,%rdi
  40b752:	e8 09 9c ff ff       	callq  405360 <_Znam@plt>
  40b757:	4a 8d 3c ad 00 00 00 	lea    0x0(,%r13,4),%rdi
  40b75e:	00 
  40b75f:	4d 39 e5             	cmp    %r12,%r13
  40b762:	48 89 03             	mov    %rax,(%rbx)
  40b765:	48 0f 47 fd          	cmova  %rbp,%rdi
  40b769:	e8 f2 9b ff ff       	callq  405360 <_Znam@plt>
  40b76e:	4a 8d 3c b5 00 00 00 	lea    0x0(,%r14,4),%rdi
  40b775:	00 
  40b776:	4d 39 e6             	cmp    %r12,%r14
  40b779:	48 89 43 10          	mov    %rax,0x10(%rbx)
  40b77d:	48 0f 47 fd          	cmova  %rbp,%rdi
  40b781:	e8 da 9b ff ff       	callq  405360 <_Znam@plt>
  40b786:	48 89 43 18          	mov    %rax,0x18(%rbx)
  40b78a:	5b                   	pop    %rbx
  40b78b:	5d                   	pop    %rbp
  40b78c:	41 5c                	pop    %r12
  40b78e:	41 5d                	pop    %r13
  40b790:	41 5e                	pop    %r14
  40b792:	c3                   	retq   
  40b793:	66 2e 0f 1f 84 00 00 	nopw   %cs:0x0(%rax,%rax,1)
  40b79a:	00 00 00 
  40b79d:	0f 1f 00             	nopl   (%rax)

000000000040b7a0 <_ZN15Array2DSpectrumIfED1Ev>:
  40b7a0:	53                   	push   %rbx
  40b7a1:	48 89 fb             	mov    %rdi,%rbx
  40b7a4:	48 8b 3f             	mov    (%rdi),%rdi
  40b7a7:	48 85 ff             	test   %rdi,%rdi
  40b7aa:	74 05                	je     40b7b1 <_ZN15Array2DSpectrumIfED1Ev+0x11>
  40b7ac:	e8 af 9a ff ff       	callq  405260 <_ZdaPv@plt>
  40b7b1:	48 8b 7b 10          	mov    0x10(%rbx),%rdi
  40b7b5:	48 85 ff             	test   %rdi,%rdi
  40b7b8:	74 05                	je     40b7bf <_ZN15Array2DSpectrumIfED1Ev+0x1f>
  40b7ba:	e8 a1 9a ff ff       	callq  405260 <_ZdaPv@plt>
  40b7bf:	48 8b 7b 18          	mov    0x18(%rbx),%rdi
  40b7c3:	48 85 ff             	test   %rdi,%rdi
  40b7c6:	74 05                	je     40b7cd <_ZN15Array2DSpectrumIfED1Ev+0x2d>
  40b7c8:	e8 93 9a ff ff       	callq  405260 <_ZdaPv@plt>
  40b7cd:	c7 43 08 00 00 00 00 	movl   $0x0,0x8(%rbx)
  40b7d4:	c7 43 0c 00 00 00 00 	movl   $0x0,0xc(%rbx)
  40b7db:	5b                   	pop    %rbx
  40b7dc:	c3                   	retq   
  40b7dd:	0f 1f 00             	nopl   (%rax)

000000000040b7e0 <_ZN15Array2DSpectrumIfE15getChannelCountEv>:
  40b7e0:	8b 47 08             	mov    0x8(%rdi),%eax
  40b7e3:	c3                   	retq   
  40b7e4:	66 2e 0f 1f 84 00 00 	nopw   %cs:0x0(%rax,%rax,1)
  40b7eb:	00 00 00 
  40b7ee:	66 90                	xchg   %ax,%ax

000000000040b7f0 <_ZN15Array2DSpectrumIfE14getSampleCountEv>:
  40b7f0:	8b 47 0c             	mov    0xc(%rdi),%eax
  40b7f3:	c3                   	retq   
  40b7f4:	66 2e 0f 1f 84 00 00 	nopw   %cs:0x0(%rax,%rax,1)
  40b7fb:	00 00 00 
  40b7fe:	66 90                	xchg   %ax,%ax

000000000040b800 <_ZN15Array2DSpectrumIfE10getRawDataEv>:
  40b800:	48 8b 07             	mov    (%rdi),%rax
  40b803:	c3                   	retq   
  40b804:	66 2e 0f 1f 84 00 00 	nopw   %cs:0x0(%rax,%rax,1)
  40b80b:	00 00 00 
  40b80e:	66 90                	xchg   %ax,%ax

000000000040b810 <_ZNK15Array2DSpectrumIfE2atEii>:
  40b810:	eb fe                	jmp    40b810 <_ZNK15Array2DSpectrumIfE2atEii>
  40b812:	66 2e 0f 1f 84 00 00 	nopw   %cs:0x0(%rax,%rax,1)
  40b819:	00 00 00 
  40b81c:	0f 1f 40 00          	nopl   0x0(%rax)

000000000040b820 <_ZN15Array2DSpectrumIfE10loadMemCpyEPS0_>:
  40b820:	48 89 f8             	mov    %rdi,%rax
  40b823:	48 8b 36             	mov    (%rsi),%rsi
  40b826:	48 8b 3f             	mov    (%rdi),%rdi
  40b829:	8b 50 08             	mov    0x8(%rax),%edx
  40b82c:	0f af 50 0c          	imul   0xc(%rax),%edx
  40b830:	48 63 d2             	movslq %edx,%rdx
  40b833:	48 c1 e2 02          	shl    $0x2,%rdx
  40b837:	e9 84 97 ff ff       	jmpq   404fc0 <memcpy@plt>
  40b83c:	0f 1f 40 00          	nopl   0x0(%rax)

000000000040b840 <_ZN15Array2DSpectrumIfE11integrationEiPS0_>:
  40b840:	41 56                	push   %r14
  40b842:	41 55                	push   %r13
  40b844:	49 89 fd             	mov    %rdi,%r13
  40b847:	41 54                	push   %r12
  40b849:	55                   	push   %rbp
  40b84a:	89 f5                	mov    %esi,%ebp
  40b84c:	53                   	push   %rbx
  40b84d:	8b 47 0c             	mov    0xc(%rdi),%eax
  40b850:	48 8b 1a             	mov    (%rdx),%rbx
  40b853:	4c 8b 27             	mov    (%rdi),%r12
  40b856:	99                   	cltd   
  40b857:	f7 fe                	idiv   %esi
  40b859:	8b 57 08             	mov    0x8(%rdi),%edx
  40b85c:	31 f6                	xor    %esi,%esi
  40b85e:	48 89 df             	mov    %rbx,%rdi
  40b861:	0f af d0             	imul   %eax,%edx
  40b864:	41 89 c6             	mov    %eax,%r14d
  40b867:	48 63 d2             	movslq %edx,%rdx
  40b86a:	48 c1 e2 02          	shl    $0x2,%rdx
  40b86e:	e8 4d 99 ff ff       	callq  4051c0 <memset@plt>
  40b873:	45 85 f6             	test   %r14d,%r14d
  40b876:	74 6c                	je     40b8e4 <_ZN15Array2DSpectrumIfE11integrationEiPS0_+0xa4>
  40b878:	45 31 db             	xor    %r11d,%r11d
  40b87b:	31 ff                	xor    %edi,%edi
  40b87d:	85 ed                	test   %ebp,%ebp
  40b87f:	74 58                	je     40b8d9 <_ZN15Array2DSpectrumIfE11integrationEiPS0_+0x99>
  40b881:	45 8b 45 08          	mov    0x8(%r13),%r8d
  40b885:	41 89 fa             	mov    %edi,%r10d
  40b888:	44 89 de             	mov    %r11d,%esi
  40b88b:	31 c0                	xor    %eax,%eax
  40b88d:	45 0f af d0          	imul   %r8d,%r10d
  40b891:	41 0f af f0          	imul   %r8d,%esi
  40b895:	0f 1f 00             	nopl   (%rax)
  40b898:	45 85 c0             	test   %r8d,%r8d
  40b89b:	74 32                	je     40b8cf <_ZN15Array2DSpectrumIfE11integrationEiPS0_+0x8f>
  40b89d:	48 63 d6             	movslq %esi,%rdx
  40b8a0:	4d 8d 0c 94          	lea    (%r12,%rdx,4),%r9
  40b8a4:	31 d2                	xor    %edx,%edx
  40b8a6:	66 2e 0f 1f 84 00 00 	nopw   %cs:0x0(%rax,%rax,1)
  40b8ad:	00 00 00 
  40b8b0:	41 8d 0c 12          	lea    (%r10,%rdx,1),%ecx
  40b8b4:	48 8d 0c 8b          	lea    (%rbx,%rcx,4),%rcx
  40b8b8:	f3 0f 10 01          	movss  (%rcx),%xmm0
  40b8bc:	f3 41 0f 58 04 91    	addss  (%r9,%rdx,4),%xmm0
  40b8c2:	48 83 c2 01          	add    $0x1,%rdx
  40b8c6:	41 39 d0             	cmp    %edx,%r8d
  40b8c9:	f3 0f 11 01          	movss  %xmm0,(%rcx)
  40b8cd:	77 e1                	ja     40b8b0 <_ZN15Array2DSpectrumIfE11integrationEiPS0_+0x70>
  40b8cf:	83 c0 01             	add    $0x1,%eax
  40b8d2:	44 01 c6             	add    %r8d,%esi
  40b8d5:	39 e8                	cmp    %ebp,%eax
  40b8d7:	75 bf                	jne    40b898 <_ZN15Array2DSpectrumIfE11integrationEiPS0_+0x58>
  40b8d9:	83 c7 01             	add    $0x1,%edi
  40b8dc:	41 01 eb             	add    %ebp,%r11d
  40b8df:	44 39 f7             	cmp    %r14d,%edi
  40b8e2:	75 99                	jne    40b87d <_ZN15Array2DSpectrumIfE11integrationEiPS0_+0x3d>
  40b8e4:	5b                   	pop    %rbx
  40b8e5:	5d                   	pop    %rbp
  40b8e6:	41 5c                	pop    %r12
  40b8e8:	41 5d                	pop    %r13
  40b8ea:	41 5e                	pop    %r14
  40b8ec:	c3                   	retq   
  40b8ed:	0f 1f 00             	nopl   (%rax)

000000000040b8f0 <_ZNK15Array2DSpectrumIfE11getLocationEii>:
  40b8f0:	0f af 57 08          	imul   0x8(%rdi),%edx
  40b8f4:	8d 04 32             	lea    (%rdx,%rsi,1),%eax
  40b8f7:	c3                   	retq   
  40b8f8:	0f 1f 84 00 00 00 00 	nopl   0x0(%rax,%rax,1)
  40b8ff:	00 

000000000040b900 <_ZN15Array2DSpectrumIfE2atEii>:
  40b900:	53                   	push   %rbx
  40b901:	48 8b 1f             	mov    (%rdi),%rbx
  40b904:	e8 e7 ff ff ff       	callq  40b8f0 <_ZNK15Array2DSpectrumIfE11getLocationEii>
  40b909:	48 98                	cltq   
  40b90b:	f3 0f 10 04 83       	movss  (%rbx,%rax,4),%xmm0
  40b910:	5b                   	pop    %rbx
  40b911:	c3                   	retq   
  40b912:	66 2e 0f 1f 84 00 00 	nopw   %cs:0x0(%rax,%rax,1)
  40b919:	00 00 00 
  40b91c:	0f 1f 40 00          	nopl   0x0(%rax)

000000000040b920 <_ZN15Array2DSpectrumIfE20getChannelsForSampleEi>:
  40b920:	41 55                	push   %r13
  40b922:	41 89 f5             	mov    %esi,%r13d
  40b925:	41 54                	push   %r12
  40b927:	55                   	push   %rbp
  40b928:	48 89 fd             	mov    %rdi,%rbp
  40b92b:	53                   	push   %rbx
  40b92c:	31 db                	xor    %ebx,%ebx
  40b92e:	48 83 ec 08          	sub    $0x8,%rsp
  40b932:	8b 47 08             	mov    0x8(%rdi),%eax
  40b935:	85 c0                	test   %eax,%eax
  40b937:	7e 2e                	jle    40b967 <_ZN15Array2DSpectrumIfE20getChannelsForSampleEi+0x47>
  40b939:	0f 1f 80 00 00 00 00 	nopl   0x0(%rax)
  40b940:	48 8b 45 10          	mov    0x10(%rbp),%rax
  40b944:	89 de                	mov    %ebx,%esi
  40b946:	44 89 ea             	mov    %r13d,%edx
  40b949:	48 89 ef             	mov    %rbp,%rdi
  40b94c:	4c 8d 24 98          	lea    (%rax,%rbx,4),%r12
  40b950:	e8 ab ff ff ff       	callq  40b900 <_ZN15Array2DSpectrumIfE2atEii>
  40b955:	8d 43 01             	lea    0x1(%rbx),%eax
  40b958:	48 83 c3 01          	add    $0x1,%rbx
  40b95c:	39 45 08             	cmp    %eax,0x8(%rbp)
  40b95f:	f3 41 0f 11 04 24    	movss  %xmm0,(%r12)
  40b965:	7f d9                	jg     40b940 <_ZN15Array2DSpectrumIfE20getChannelsForSampleEi+0x20>
  40b967:	48 8b 45 10          	mov    0x10(%rbp),%rax
  40b96b:	48 83 c4 08          	add    $0x8,%rsp
  40b96f:	5b                   	pop    %rbx
  40b970:	5d                   	pop    %rbp
  40b971:	41 5c                	pop    %r12
  40b973:	41 5d                	pop    %r13
  40b975:	c3                   	retq   
  40b976:	66 2e 0f 1f 84 00 00 	nopw   %cs:0x0(%rax,%rax,1)
  40b97d:	00 00 00 

000000000040b980 <_ZN15Array2DSpectrumIfE20getSamplesForChannelEi>:
  40b980:	41 55                	push   %r13
  40b982:	41 89 f5             	mov    %esi,%r13d
  40b985:	41 54                	push   %r12
  40b987:	55                   	push   %rbp
  40b988:	48 89 fd             	mov    %rdi,%rbp
  40b98b:	53                   	push   %rbx
  40b98c:	31 db                	xor    %ebx,%ebx
  40b98e:	48 83 ec 08          	sub    $0x8,%rsp
  40b992:	8b 47 0c             	mov    0xc(%rdi),%eax
  40b995:	85 c0                	test   %eax,%eax
  40b997:	7e 2e                	jle    40b9c7 <_ZN15Array2DSpectrumIfE20getSamplesForChannelEi+0x47>
  40b999:	0f 1f 80 00 00 00 00 	nopl   0x0(%rax)
  40b9a0:	48 8b 45 18          	mov    0x18(%rbp),%rax
  40b9a4:	89 da                	mov    %ebx,%edx
  40b9a6:	44 89 ee             	mov    %r13d,%esi
  40b9a9:	48 89 ef             	mov    %rbp,%rdi
  40b9ac:	4c 8d 24 98          	lea    (%rax,%rbx,4),%r12
  40b9b0:	e8 4b ff ff ff       	callq  40b900 <_ZN15Array2DSpectrumIfE2atEii>
  40b9b5:	8d 43 01             	lea    0x1(%rbx),%eax
  40b9b8:	48 83 c3 01          	add    $0x1,%rbx
  40b9bc:	39 45 0c             	cmp    %eax,0xc(%rbp)
  40b9bf:	f3 41 0f 11 04 24    	movss  %xmm0,(%r12)
  40b9c5:	7f d9                	jg     40b9a0 <_ZN15Array2DSpectrumIfE20getSamplesForChannelEi+0x20>
  40b9c7:	48 8b 45 18          	mov    0x18(%rbp),%rax
  40b9cb:	48 83 c4 08          	add    $0x8,%rsp
  40b9cf:	5b                   	pop    %rbx
  40b9d0:	5d                   	pop    %rbp
  40b9d1:	41 5c                	pop    %r12
  40b9d3:	41 5d                	pop    %r13
  40b9d5:	c3                   	retq   
  40b9d6:	66 2e 0f 1f 84 00 00 	nopw   %cs:0x0(%rax,%rax,1)
  40b9dd:	00 00 00 

000000000040b9e0 <_ZN15Array2DSpectrumIfE8toStringEv>:
  40b9e0:	41 55                	push   %r13
  40b9e2:	45 31 ed             	xor    %r13d,%r13d
  40b9e5:	41 54                	push   %r12
  40b9e7:	55                   	push   %rbp
  40b9e8:	48 89 fd             	mov    %rdi,%rbp
  40b9eb:	48 89 ef             	mov    %rbp,%rdi
  40b9ee:	53                   	push   %rbx
  40b9ef:	48 83 ec 08          	sub    $0x8,%rsp
  40b9f3:	e8 f8 fd ff ff       	callq  40b7f0 <_ZN15Array2DSpectrumIfE14getSampleCountEv>
  40b9f8:	41 39 c5             	cmp    %eax,%r13d
  40b9fb:	0f 8d 9c 00 00 00    	jge    40ba9d <_ZN15Array2DSpectrumIfE8toStringEv+0xbd>
  40ba01:	0f 1f 80 00 00 00 00 	nopl   0x0(%rax)
  40ba08:	31 db                	xor    %ebx,%ebx
  40ba0a:	4c 8b 25 c7 a5 20 00 	mov    0x20a5c7(%rip),%r12        # 615fd8 <_DYNAMIC+0x248>
  40ba11:	eb 37                	jmp    40ba4a <_ZN15Array2DSpectrumIfE8toStringEv+0x6a>
  40ba13:	0f 1f 44 00 00       	nopl   0x0(%rax,%rax,1)
  40ba18:	89 de                	mov    %ebx,%esi
  40ba1a:	44 89 ea             	mov    %r13d,%edx
  40ba1d:	48 89 ef             	mov    %rbp,%rdi
  40ba20:	e8 db fe ff ff       	callq  40b900 <_ZN15Array2DSpectrumIfE2atEii>
  40ba25:	0f 14 c0             	unpcklps %xmm0,%xmm0
  40ba28:	4c 89 e7             	mov    %r12,%rdi
  40ba2b:	83 c3 01             	add    $0x1,%ebx
  40ba2e:	0f 5a c0             	cvtps2pd %xmm0,%xmm0
  40ba31:	e8 3a 9c ff ff       	callq  405670 <_ZNSo9_M_insertIdEERSoT_@plt>
  40ba36:	48 8d 35 e7 30 00 00 	lea    0x30e7(%rip),%rsi        # 40eb24 <_IO_stdin_used+0xe4>
  40ba3d:	ba 01 00 00 00       	mov    $0x1,%edx
  40ba42:	48 89 c7             	mov    %rax,%rdi
  40ba45:	e8 c6 9e ff ff       	callq  405910 <_ZSt16__ostream_insertIcSt11char_traitsIcEERSt13basic_ostreamIT_T0_ES6_PKS3_l@plt>
  40ba4a:	48 89 ef             	mov    %rbp,%rdi
  40ba4d:	e8 8e fd ff ff       	callq  40b7e0 <_ZN15Array2DSpectrumIfE15getChannelCountEv>
  40ba52:	39 c3                	cmp    %eax,%ebx
  40ba54:	7c c2                	jl     40ba18 <_ZN15Array2DSpectrumIfE8toStringEv+0x38>
  40ba56:	49 8b 04 24          	mov    (%r12),%rax
  40ba5a:	48 8b 40 e8          	mov    -0x18(%rax),%rax
  40ba5e:	4a 8b 9c 20 f0 00 00 	mov    0xf0(%rax,%r12,1),%rbx
  40ba65:	00 
  40ba66:	48 85 db             	test   %rbx,%rbx
  40ba69:	74 5d                	je     40bac8 <_ZN15Array2DSpectrumIfE8toStringEv+0xe8>
  40ba6b:	80 7b 38 00          	cmpb   $0x0,0x38(%rbx)
  40ba6f:	74 3f                	je     40bab0 <_ZN15Array2DSpectrumIfE8toStringEv+0xd0>
  40ba71:	0f b6 43 43          	movzbl 0x43(%rbx),%eax
  40ba75:	0f be f0             	movsbl %al,%esi
  40ba78:	4c 89 e7             	mov    %r12,%rdi
  40ba7b:	41 83 c5 01          	add    $0x1,%r13d
  40ba7f:	e8 ac 99 ff ff       	callq  405430 <_ZNSo3putEc@plt>
  40ba84:	48 89 c7             	mov    %rax,%rdi
  40ba87:	e8 24 99 ff ff       	callq  4053b0 <_ZNSo5flushEv@plt>
  40ba8c:	48 89 ef             	mov    %rbp,%rdi
  40ba8f:	e8 5c fd ff ff       	callq  40b7f0 <_ZN15Array2DSpectrumIfE14getSampleCountEv>
  40ba94:	41 39 c5             	cmp    %eax,%r13d
  40ba97:	0f 8c 6b ff ff ff    	jl     40ba08 <_ZN15Array2DSpectrumIfE8toStringEv+0x28>
  40ba9d:	48 83 c4 08          	add    $0x8,%rsp
  40baa1:	5b                   	pop    %rbx
  40baa2:	5d                   	pop    %rbp
  40baa3:	41 5c                	pop    %r12
  40baa5:	41 5d                	pop    %r13
  40baa7:	c3                   	retq   
  40baa8:	0f 1f 84 00 00 00 00 	nopl   0x0(%rax,%rax,1)
  40baaf:	00 
  40bab0:	48 89 df             	mov    %rbx,%rdi
  40bab3:	e8 e8 98 ff ff       	callq  4053a0 <_ZNKSt5ctypeIcE13_M_widen_initEv@plt>
  40bab8:	48 8b 03             	mov    (%rbx),%rax
  40babb:	be 0a 00 00 00       	mov    $0xa,%esi
  40bac0:	48 89 df             	mov    %rbx,%rdi
  40bac3:	ff 50 30             	callq  *0x30(%rax)
  40bac6:	eb ad                	jmp    40ba75 <_ZN15Array2DSpectrumIfE8toStringEv+0x95>
  40bac8:	e8 43 97 ff ff       	callq  405210 <_ZSt16__throw_bad_castv@plt>
  40bacd:	0f 1f 00             	nopl   (%rax)

000000000040bad0 <_ZN15Array2DSpectrumIfE3setEiif>:
  40bad0:	53                   	push   %rbx
  40bad1:	48 83 ec 10          	sub    $0x10,%rsp
  40bad5:	48 8b 1f             	mov    (%rdi),%rbx
  40bad8:	f3 0f 11 44 24 0c    	movss  %xmm0,0xc(%rsp)
  40bade:	e8 0d fe ff ff       	callq  40b8f0 <_ZNK15Array2DSpectrumIfE11getLocationEii>
  40bae3:	f3 0f 10 44 24 0c    	movss  0xc(%rsp),%xmm0
  40bae9:	48 98                	cltq   
  40baeb:	f3 0f 11 04 83       	movss  %xmm0,(%rbx,%rax,4)
  40baf0:	48 83 c4 10          	add    $0x10,%rsp
  40baf4:	5b                   	pop    %rbx
  40baf5:	c3                   	retq   
  40baf6:	66 2e 0f 1f 84 00 00 	nopw   %cs:0x0(%rax,%rax,1)
  40bafd:	00 00 00 

000000000040bb00 <_ZN15Array2DSpectrumIfE9setSampleEiPf>:
  40bb00:	41 55                	push   %r13
  40bb02:	41 89 f5             	mov    %esi,%r13d
  40bb05:	41 54                	push   %r12
  40bb07:	49 89 fc             	mov    %rdi,%r12
  40bb0a:	55                   	push   %rbp
  40bb0b:	48 89 d5             	mov    %rdx,%rbp
  40bb0e:	53                   	push   %rbx
  40bb0f:	31 db                	xor    %ebx,%ebx
  40bb11:	48 83 ec 08          	sub    $0x8,%rsp
  40bb15:	8b 47 08             	mov    0x8(%rdi),%eax
  40bb18:	85 c0                	test   %eax,%eax
  40bb1a:	7e 24                	jle    40bb40 <_ZN15Array2DSpectrumIfE9setSampleEiPf+0x40>
  40bb1c:	0f 1f 40 00          	nopl   0x0(%rax)
  40bb20:	f3 0f 10 45 00       	movss  0x0(%rbp),%xmm0
  40bb25:	89 de                	mov    %ebx,%esi
  40bb27:	44 89 ea             	mov    %r13d,%edx
  40bb2a:	4c 89 e7             	mov    %r12,%rdi
  40bb2d:	83 c3 01             	add    $0x1,%ebx
  40bb30:	e8 9b ff ff ff       	callq  40bad0 <_ZN15Array2DSpectrumIfE3setEiif>
  40bb35:	48 83 c5 04          	add    $0x4,%rbp
  40bb39:	41 39 5c 24 08       	cmp    %ebx,0x8(%r12)
  40bb3e:	7f e0                	jg     40bb20 <_ZN15Array2DSpectrumIfE9setSampleEiPf+0x20>
  40bb40:	48 83 c4 08          	add    $0x8,%rsp
  40bb44:	5b                   	pop    %rbx
  40bb45:	5d                   	pop    %rbp
  40bb46:	41 5c                	pop    %r12
  40bb48:	41 5d                	pop    %r13
  40bb4a:	c3                   	retq   
  40bb4b:	0f 1f 44 00 00       	nopl   0x0(%rax,%rax,1)

000000000040bb50 <_ZN15Array2DSpectrumIfE17getSamplesSectionEii>:
  40bb50:	41 55                	push   %r13
  40bb52:	49 89 f5             	mov    %rsi,%r13
  40bb55:	41 54                	push   %r12
  40bb57:	41 89 cc             	mov    %ecx,%r12d
  40bb5a:	55                   	push   %rbp
  40bb5b:	48 89 fd             	mov    %rdi,%rbp
  40bb5e:	53                   	push   %rbx
  40bb5f:	89 d3                	mov    %edx,%ebx
  40bb61:	89 ca                	mov    %ecx,%edx
  40bb63:	48 83 ec 08          	sub    $0x8,%rsp
  40bb67:	8b 76 08             	mov    0x8(%rsi),%esi
  40bb6a:	e8 a1 fb ff ff       	callq  40b710 <_ZN15Array2DSpectrumIfEC1Eii>
  40bb6f:	41 39 dc             	cmp    %ebx,%r12d
  40bb72:	7e 23                	jle    40bb97 <_ZN15Array2DSpectrumIfE17getSamplesSectionEii+0x47>
  40bb74:	0f 1f 40 00          	nopl   0x0(%rax)
  40bb78:	89 de                	mov    %ebx,%esi
  40bb7a:	4c 89 ef             	mov    %r13,%rdi
  40bb7d:	e8 9e fd ff ff       	callq  40b920 <_ZN15Array2DSpectrumIfE20getChannelsForSampleEi>
  40bb82:	48 89 c2             	mov    %rax,%rdx
  40bb85:	89 de                	mov    %ebx,%esi
  40bb87:	48 89 ef             	mov    %rbp,%rdi
  40bb8a:	e8 71 ff ff ff       	callq  40bb00 <_ZN15Array2DSpectrumIfE9setSampleEiPf>
  40bb8f:	83 c3 01             	add    $0x1,%ebx
  40bb92:	44 39 e3             	cmp    %r12d,%ebx
  40bb95:	75 e1                	jne    40bb78 <_ZN15Array2DSpectrumIfE17getSamplesSectionEii+0x28>
  40bb97:	48 83 c4 08          	add    $0x8,%rsp
  40bb9b:	48 89 e8             	mov    %rbp,%rax
  40bb9e:	5b                   	pop    %rbx
  40bb9f:	5d                   	pop    %rbp
  40bba0:	41 5c                	pop    %r12
  40bba2:	41 5d                	pop    %r13
  40bba4:	c3                   	retq   
  40bba5:	48 89 c3             	mov    %rax,%rbx
  40bba8:	48 89 ef             	mov    %rbp,%rdi
  40bbab:	e8 f0 fb ff ff       	callq  40b7a0 <_ZN15Array2DSpectrumIfED1Ev>
  40bbb0:	48 89 df             	mov    %rbx,%rdi
  40bbb3:	e8 68 99 ff ff       	callq  405520 <_Unwind_Resume@plt>
  40bbb8:	0f 1f 84 00 00 00 00 	nopl   0x0(%rax,%rax,1)
  40bbbf:	00 

000000000040bbc0 <_ZN15Array2DSpectrumIfE10setChannelEiPf>:
  40bbc0:	41 55                	push   %r13
  40bbc2:	41 89 f5             	mov    %esi,%r13d
  40bbc5:	41 54                	push   %r12
  40bbc7:	49 89 fc             	mov    %rdi,%r12
  40bbca:	55                   	push   %rbp
  40bbcb:	48 89 d5             	mov    %rdx,%rbp
  40bbce:	53                   	push   %rbx
  40bbcf:	31 db                	xor    %ebx,%ebx
  40bbd1:	48 83 ec 08          	sub    $0x8,%rsp
  40bbd5:	8b 47 0c             	mov    0xc(%rdi),%eax
  40bbd8:	85 c0                	test   %eax,%eax
  40bbda:	7e 24                	jle    40bc00 <_ZN15Array2DSpectrumIfE10setChannelEiPf+0x40>
  40bbdc:	0f 1f 40 00          	nopl   0x0(%rax)
  40bbe0:	f3 0f 10 45 00       	movss  0x0(%rbp),%xmm0
  40bbe5:	89 da                	mov    %ebx,%edx
  40bbe7:	44 89 ee             	mov    %r13d,%esi
  40bbea:	4c 89 e7             	mov    %r12,%rdi
  40bbed:	83 c3 01             	add    $0x1,%ebx
  40bbf0:	e8 db fe ff ff       	callq  40bad0 <_ZN15Array2DSpectrumIfE3setEiif>
  40bbf5:	48 83 c5 04          	add    $0x4,%rbp
  40bbf9:	41 39 5c 24 0c       	cmp    %ebx,0xc(%r12)
  40bbfe:	7f e0                	jg     40bbe0 <_ZN15Array2DSpectrumIfE10setChannelEiPf+0x20>
  40bc00:	48 83 c4 08          	add    $0x8,%rsp
  40bc04:	5b                   	pop    %rbx
  40bc05:	5d                   	pop    %rbp
  40bc06:	41 5c                	pop    %r12
  40bc08:	41 5d                	pop    %r13
  40bc0a:	c3                   	retq   
  40bc0b:	0f 1f 44 00 00       	nopl   0x0(%rax,%rax,1)

000000000040bc10 <_ZN15Array2DSpectrumIfE18getChannelsSectionEii>:
  40bc10:	41 55                	push   %r13
  40bc12:	49 89 f5             	mov    %rsi,%r13
  40bc15:	41 54                	push   %r12
  40bc17:	41 89 cc             	mov    %ecx,%r12d
  40bc1a:	55                   	push   %rbp
  40bc1b:	48 89 fd             	mov    %rdi,%rbp
  40bc1e:	53                   	push   %rbx
  40bc1f:	89 d3                	mov    %edx,%ebx
  40bc21:	48 83 ec 08          	sub    $0x8,%rsp
  40bc25:	8b 56 0c             	mov    0xc(%rsi),%edx
  40bc28:	89 ce                	mov    %ecx,%esi
  40bc2a:	e8 e1 fa ff ff       	callq  40b710 <_ZN15Array2DSpectrumIfEC1Eii>
  40bc2f:	41 39 dc             	cmp    %ebx,%r12d
  40bc32:	7e 23                	jle    40bc57 <_ZN15Array2DSpectrumIfE18getChannelsSectionEii+0x47>
  40bc34:	0f 1f 40 00          	nopl   0x0(%rax)
  40bc38:	89 de                	mov    %ebx,%esi
  40bc3a:	4c 89 ef             	mov    %r13,%rdi
  40bc3d:	e8 3e fd ff ff       	callq  40b980 <_ZN15Array2DSpectrumIfE20getSamplesForChannelEi>
  40bc42:	48 89 c2             	mov    %rax,%rdx
  40bc45:	89 de                	mov    %ebx,%esi
  40bc47:	48 89 ef             	mov    %rbp,%rdi
  40bc4a:	e8 71 ff ff ff       	callq  40bbc0 <_ZN15Array2DSpectrumIfE10setChannelEiPf>
  40bc4f:	83 c3 01             	add    $0x1,%ebx
  40bc52:	44 39 e3             	cmp    %r12d,%ebx
  40bc55:	75 e1                	jne    40bc38 <_ZN15Array2DSpectrumIfE18getChannelsSectionEii+0x28>
  40bc57:	48 83 c4 08          	add    $0x8,%rsp
  40bc5b:	48 89 e8             	mov    %rbp,%rax
  40bc5e:	5b                   	pop    %rbx
  40bc5f:	5d                   	pop    %rbp
  40bc60:	41 5c                	pop    %r12
  40bc62:	41 5d                	pop    %r13
  40bc64:	c3                   	retq   
  40bc65:	48 89 c3             	mov    %rax,%rbx
  40bc68:	48 89 ef             	mov    %rbp,%rdi
  40bc6b:	e8 30 fb ff ff       	callq  40b7a0 <_ZN15Array2DSpectrumIfED1Ev>
  40bc70:	48 89 df             	mov    %rbx,%rdi
  40bc73:	e8 a8 98 ff ff       	callq  405520 <_Unwind_Resume@plt>
  40bc78:	0f 1f 84 00 00 00 00 	nopl   0x0(%rax,%rax,1)
  40bc7f:	00 

000000000040bc80 <_ZN15Array2DSpectrumIfE9transposeEv>:
  40bc80:	41 55                	push   %r13
  40bc82:	49 89 fd             	mov    %rdi,%r13
  40bc85:	41 54                	push   %r12
  40bc87:	49 89 f4             	mov    %rsi,%r12
  40bc8a:	55                   	push   %rbp
  40bc8b:	53                   	push   %rbx
  40bc8c:	48 83 ec 08          	sub    $0x8,%rsp
  40bc90:	8b 56 08             	mov    0x8(%rsi),%edx
  40bc93:	8b 76 0c             	mov    0xc(%rsi),%esi
  40bc96:	e8 75 fa ff ff       	callq  40b710 <_ZN15Array2DSpectrumIfEC1Eii>
  40bc9b:	41 8b 54 24 08       	mov    0x8(%r12),%edx
  40bca0:	85 d2                	test   %edx,%edx
  40bca2:	7e 48                	jle    40bcec <_ZN15Array2DSpectrumIfE9transposeEv+0x6c>
  40bca4:	31 ed                	xor    %ebp,%ebp
  40bca6:	66 2e 0f 1f 84 00 00 	nopw   %cs:0x0(%rax,%rax,1)
  40bcad:	00 00 00 
  40bcb0:	41 8b 44 24 0c       	mov    0xc(%r12),%eax
  40bcb5:	85 c0                	test   %eax,%eax
  40bcb7:	7e 29                	jle    40bce2 <_ZN15Array2DSpectrumIfE9transposeEv+0x62>
  40bcb9:	31 db                	xor    %ebx,%ebx
  40bcbb:	0f 1f 44 00 00       	nopl   0x0(%rax,%rax,1)
  40bcc0:	89 da                	mov    %ebx,%edx
  40bcc2:	89 ee                	mov    %ebp,%esi
  40bcc4:	4c 89 e7             	mov    %r12,%rdi
  40bcc7:	e8 34 fc ff ff       	callq  40b900 <_ZN15Array2DSpectrumIfE2atEii>
  40bccc:	89 ea                	mov    %ebp,%edx
  40bcce:	89 de                	mov    %ebx,%esi
  40bcd0:	4c 89 ef             	mov    %r13,%rdi
  40bcd3:	e8 f8 fd ff ff       	callq  40bad0 <_ZN15Array2DSpectrumIfE3setEiif>
  40bcd8:	83 c3 01             	add    $0x1,%ebx
  40bcdb:	41 39 5c 24 0c       	cmp    %ebx,0xc(%r12)
  40bce0:	7f de                	jg     40bcc0 <_ZN15Array2DSpectrumIfE9transposeEv+0x40>
  40bce2:	83 c5 01             	add    $0x1,%ebp
  40bce5:	41 39 6c 24 08       	cmp    %ebp,0x8(%r12)
  40bcea:	7f c4                	jg     40bcb0 <_ZN15Array2DSpectrumIfE9transposeEv+0x30>
  40bcec:	48 83 c4 08          	add    $0x8,%rsp
  40bcf0:	4c 89 e8             	mov    %r13,%rax
  40bcf3:	5b                   	pop    %rbx
  40bcf4:	5d                   	pop    %rbp
  40bcf5:	41 5c                	pop    %r12
  40bcf7:	41 5d                	pop    %r13
  40bcf9:	c3                   	retq   
  40bcfa:	48 89 c3             	mov    %rax,%rbx
  40bcfd:	4c 89 ef             	mov    %r13,%rdi
  40bd00:	e8 9b fa ff ff       	callq  40b7a0 <_ZN15Array2DSpectrumIfED1Ev>
  40bd05:	48 89 df             	mov    %rbx,%rdi
  40bd08:	e8 13 98 ff ff       	callq  405520 <_Unwind_Resume@plt>
  40bd0d:	0f 1f 00             	nopl   (%rax)

000000000040bd10 <_ZN15Array2DSpectrumIdEC1Ev>:
  40bd10:	48 c7 07 00 00 00 00 	movq   $0x0,(%rdi)
  40bd17:	c7 47 08 00 00 00 00 	movl   $0x0,0x8(%rdi)
  40bd1e:	c7 47 0c 00 00 00 00 	movl   $0x0,0xc(%rdi)
  40bd25:	48 c7 47 10 00 00 00 	movq   $0x0,0x10(%rdi)
  40bd2c:	00 
  40bd2d:	48 c7 47 18 00 00 00 	movq   $0x0,0x18(%rdi)
  40bd34:	00 
  40bd35:	c3                   	retq   
  40bd36:	66 2e 0f 1f 84 00 00 	nopw   %cs:0x0(%rax,%rax,1)
  40bd3d:	00 00 00 

000000000040bd40 <_ZN15Array2DSpectrumIdEC1Eii>:
  40bd40:	41 56                	push   %r14
  40bd42:	4c 63 f2             	movslq %edx,%r14
  40bd45:	41 55                	push   %r13
  40bd47:	4c 63 ee             	movslq %esi,%r13
  40bd4a:	44 89 e8             	mov    %r13d,%eax
  40bd4d:	41 54                	push   %r12
  40bd4f:	49 bc 00 00 00 00 00 	movabs $0xfe0000000000000,%r12
  40bd56:	00 e0 0f 
  40bd59:	41 0f af c6          	imul   %r14d,%eax
  40bd5d:	55                   	push   %rbp
  40bd5e:	48 c7 c5 ff ff ff ff 	mov    $0xffffffffffffffff,%rbp
  40bd65:	48 98                	cltq   
  40bd67:	53                   	push   %rbx
  40bd68:	48 89 fb             	mov    %rdi,%rbx
  40bd6b:	44 89 6f 08          	mov    %r13d,0x8(%rdi)
  40bd6f:	44 89 77 0c          	mov    %r14d,0xc(%rdi)
  40bd73:	48 8d 3c c5 00 00 00 	lea    0x0(,%rax,8),%rdi
  40bd7a:	00 
  40bd7b:	4c 39 e0             	cmp    %r12,%rax
  40bd7e:	48 0f 47 fd          	cmova  %rbp,%rdi
  40bd82:	e8 d9 95 ff ff       	callq  405360 <_Znam@plt>
  40bd87:	4a 8d 3c ed 00 00 00 	lea    0x0(,%r13,8),%rdi
  40bd8e:	00 
  40bd8f:	4d 39 e5             	cmp    %r12,%r13
  40bd92:	48 89 03             	mov    %rax,(%rbx)
  40bd95:	48 0f 47 fd          	cmova  %rbp,%rdi
  40bd99:	e8 c2 95 ff ff       	callq  405360 <_Znam@plt>
  40bd9e:	4a 8d 3c f5 00 00 00 	lea    0x0(,%r14,8),%rdi
  40bda5:	00 
  40bda6:	4d 39 e6             	cmp    %r12,%r14
  40bda9:	48 89 43 10          	mov    %rax,0x10(%rbx)
  40bdad:	48 0f 47 fd          	cmova  %rbp,%rdi
  40bdb1:	e8 aa 95 ff ff       	callq  405360 <_Znam@plt>
  40bdb6:	48 89 43 18          	mov    %rax,0x18(%rbx)
  40bdba:	5b                   	pop    %rbx
  40bdbb:	5d                   	pop    %rbp
  40bdbc:	41 5c                	pop    %r12
  40bdbe:	41 5d                	pop    %r13
  40bdc0:	41 5e                	pop    %r14
  40bdc2:	c3                   	retq   
  40bdc3:	66 2e 0f 1f 84 00 00 	nopw   %cs:0x0(%rax,%rax,1)
  40bdca:	00 00 00 
  40bdcd:	0f 1f 00             	nopl   (%rax)

000000000040bdd0 <_ZN15Array2DSpectrumIdED1Ev>:
  40bdd0:	53                   	push   %rbx
  40bdd1:	48 89 fb             	mov    %rdi,%rbx
  40bdd4:	48 8b 3f             	mov    (%rdi),%rdi
  40bdd7:	48 85 ff             	test   %rdi,%rdi
  40bdda:	74 05                	je     40bde1 <_ZN15Array2DSpectrumIdED1Ev+0x11>
  40bddc:	e8 7f 94 ff ff       	callq  405260 <_ZdaPv@plt>
  40bde1:	48 8b 7b 10          	mov    0x10(%rbx),%rdi
  40bde5:	48 85 ff             	test   %rdi,%rdi
  40bde8:	74 05                	je     40bdef <_ZN15Array2DSpectrumIdED1Ev+0x1f>
  40bdea:	e8 71 94 ff ff       	callq  405260 <_ZdaPv@plt>
  40bdef:	48 8b 7b 18          	mov    0x18(%rbx),%rdi
  40bdf3:	48 85 ff             	test   %rdi,%rdi
  40bdf6:	74 05                	je     40bdfd <_ZN15Array2DSpectrumIdED1Ev+0x2d>
  40bdf8:	e8 63 94 ff ff       	callq  405260 <_ZdaPv@plt>
  40bdfd:	c7 43 08 00 00 00 00 	movl   $0x0,0x8(%rbx)
  40be04:	c7 43 0c 00 00 00 00 	movl   $0x0,0xc(%rbx)
  40be0b:	5b                   	pop    %rbx
  40be0c:	c3                   	retq   
  40be0d:	0f 1f 00             	nopl   (%rax)

000000000040be10 <_ZN15Array2DSpectrumIdE15getChannelCountEv>:
  40be10:	8b 47 08             	mov    0x8(%rdi),%eax
  40be13:	c3                   	retq   
  40be14:	66 2e 0f 1f 84 00 00 	nopw   %cs:0x0(%rax,%rax,1)
  40be1b:	00 00 00 
  40be1e:	66 90                	xchg   %ax,%ax

000000000040be20 <_ZN15Array2DSpectrumIdE14getSampleCountEv>:
  40be20:	8b 47 0c             	mov    0xc(%rdi),%eax
  40be23:	c3                   	retq   
  40be24:	66 2e 0f 1f 84 00 00 	nopw   %cs:0x0(%rax,%rax,1)
  40be2b:	00 00 00 
  40be2e:	66 90                	xchg   %ax,%ax

000000000040be30 <_ZN15Array2DSpectrumIdE10getRawDataEv>:
  40be30:	48 8b 07             	mov    (%rdi),%rax
  40be33:	c3                   	retq   
  40be34:	66 2e 0f 1f 84 00 00 	nopw   %cs:0x0(%rax,%rax,1)
  40be3b:	00 00 00 
  40be3e:	66 90                	xchg   %ax,%ax

000000000040be40 <_ZNK15Array2DSpectrumIdE2atEii>:
  40be40:	eb fe                	jmp    40be40 <_ZNK15Array2DSpectrumIdE2atEii>
  40be42:	66 2e 0f 1f 84 00 00 	nopw   %cs:0x0(%rax,%rax,1)
  40be49:	00 00 00 
  40be4c:	0f 1f 40 00          	nopl   0x0(%rax)

000000000040be50 <_ZN15Array2DSpectrumIdE10loadMemCpyEPS0_>:
  40be50:	48 89 f8             	mov    %rdi,%rax
  40be53:	48 8b 36             	mov    (%rsi),%rsi
  40be56:	48 8b 3f             	mov    (%rdi),%rdi
  40be59:	8b 50 08             	mov    0x8(%rax),%edx
  40be5c:	0f af 50 0c          	imul   0xc(%rax),%edx
  40be60:	48 63 d2             	movslq %edx,%rdx
  40be63:	48 c1 e2 03          	shl    $0x3,%rdx
  40be67:	e9 54 91 ff ff       	jmpq   404fc0 <memcpy@plt>
  40be6c:	0f 1f 40 00          	nopl   0x0(%rax)

000000000040be70 <_ZN15Array2DSpectrumIdE11integrationEiPS0_>:
  40be70:	41 56                	push   %r14
  40be72:	41 55                	push   %r13
  40be74:	49 89 fd             	mov    %rdi,%r13
  40be77:	41 54                	push   %r12
  40be79:	55                   	push   %rbp
  40be7a:	89 f5                	mov    %esi,%ebp
  40be7c:	53                   	push   %rbx
  40be7d:	8b 47 0c             	mov    0xc(%rdi),%eax
  40be80:	48 8b 1a             	mov    (%rdx),%rbx
  40be83:	4c 8b 27             	mov    (%rdi),%r12
  40be86:	99                   	cltd   
  40be87:	f7 fe                	idiv   %esi
  40be89:	8b 57 08             	mov    0x8(%rdi),%edx
  40be8c:	31 f6                	xor    %esi,%esi
  40be8e:	48 89 df             	mov    %rbx,%rdi
  40be91:	0f af d0             	imul   %eax,%edx
  40be94:	41 89 c6             	mov    %eax,%r14d
  40be97:	48 63 d2             	movslq %edx,%rdx
  40be9a:	48 c1 e2 03          	shl    $0x3,%rdx
  40be9e:	e8 1d 93 ff ff       	callq  4051c0 <memset@plt>
  40bea3:	45 85 f6             	test   %r14d,%r14d
  40bea6:	74 6c                	je     40bf14 <_ZN15Array2DSpectrumIdE11integrationEiPS0_+0xa4>
  40bea8:	45 31 db             	xor    %r11d,%r11d
  40beab:	31 ff                	xor    %edi,%edi
  40bead:	85 ed                	test   %ebp,%ebp
  40beaf:	74 58                	je     40bf09 <_ZN15Array2DSpectrumIdE11integrationEiPS0_+0x99>
  40beb1:	45 8b 45 08          	mov    0x8(%r13),%r8d
  40beb5:	41 89 fa             	mov    %edi,%r10d
  40beb8:	44 89 de             	mov    %r11d,%esi
  40bebb:	31 c0                	xor    %eax,%eax
  40bebd:	45 0f af d0          	imul   %r8d,%r10d
  40bec1:	41 0f af f0          	imul   %r8d,%esi
  40bec5:	0f 1f 00             	nopl   (%rax)
  40bec8:	45 85 c0             	test   %r8d,%r8d
  40becb:	74 32                	je     40beff <_ZN15Array2DSpectrumIdE11integrationEiPS0_+0x8f>
  40becd:	48 63 d6             	movslq %esi,%rdx
  40bed0:	4d 8d 0c d4          	lea    (%r12,%rdx,8),%r9
  40bed4:	31 d2                	xor    %edx,%edx
  40bed6:	66 2e 0f 1f 84 00 00 	nopw   %cs:0x0(%rax,%rax,1)
  40bedd:	00 00 00 
  40bee0:	41 8d 0c 12          	lea    (%r10,%rdx,1),%ecx
  40bee4:	48 8d 0c cb          	lea    (%rbx,%rcx,8),%rcx
  40bee8:	f2 0f 10 01          	movsd  (%rcx),%xmm0
  40beec:	f2 41 0f 58 04 d1    	addsd  (%r9,%rdx,8),%xmm0
  40bef2:	48 83 c2 01          	add    $0x1,%rdx
  40bef6:	41 39 d0             	cmp    %edx,%r8d
  40bef9:	f2 0f 11 01          	movsd  %xmm0,(%rcx)
  40befd:	77 e1                	ja     40bee0 <_ZN15Array2DSpectrumIdE11integrationEiPS0_+0x70>
  40beff:	83 c0 01             	add    $0x1,%eax
  40bf02:	44 01 c6             	add    %r8d,%esi
  40bf05:	39 e8                	cmp    %ebp,%eax
  40bf07:	75 bf                	jne    40bec8 <_ZN15Array2DSpectrumIdE11integrationEiPS0_+0x58>
  40bf09:	83 c7 01             	add    $0x1,%edi
  40bf0c:	41 01 eb             	add    %ebp,%r11d
  40bf0f:	44 39 f7             	cmp    %r14d,%edi
  40bf12:	75 99                	jne    40bead <_ZN15Array2DSpectrumIdE11integrationEiPS0_+0x3d>
  40bf14:	5b                   	pop    %rbx
  40bf15:	5d                   	pop    %rbp
  40bf16:	41 5c                	pop    %r12
  40bf18:	41 5d                	pop    %r13
  40bf1a:	41 5e                	pop    %r14
  40bf1c:	c3                   	retq   
  40bf1d:	0f 1f 00             	nopl   (%rax)

000000000040bf20 <_ZNK15Array2DSpectrumIdE11getLocationEii>:
  40bf20:	0f af 57 08          	imul   0x8(%rdi),%edx
  40bf24:	8d 04 32             	lea    (%rdx,%rsi,1),%eax
  40bf27:	c3                   	retq   
  40bf28:	0f 1f 84 00 00 00 00 	nopl   0x0(%rax,%rax,1)
  40bf2f:	00 

000000000040bf30 <_ZN15Array2DSpectrumIdE2atEii>:
  40bf30:	53                   	push   %rbx
  40bf31:	48 8b 1f             	mov    (%rdi),%rbx
  40bf34:	e8 e7 ff ff ff       	callq  40bf20 <_ZNK15Array2DSpectrumIdE11getLocationEii>
  40bf39:	48 98                	cltq   
  40bf3b:	f2 0f 10 04 c3       	movsd  (%rbx,%rax,8),%xmm0
  40bf40:	5b                   	pop    %rbx
  40bf41:	c3                   	retq   
  40bf42:	66 2e 0f 1f 84 00 00 	nopw   %cs:0x0(%rax,%rax,1)
  40bf49:	00 00 00 
  40bf4c:	0f 1f 40 00          	nopl   0x0(%rax)

000000000040bf50 <_ZN15Array2DSpectrumIdE20getChannelsForSampleEi>:
  40bf50:	41 55                	push   %r13
  40bf52:	41 89 f5             	mov    %esi,%r13d
  40bf55:	41 54                	push   %r12
  40bf57:	55                   	push   %rbp
  40bf58:	48 89 fd             	mov    %rdi,%rbp
  40bf5b:	53                   	push   %rbx
  40bf5c:	31 db                	xor    %ebx,%ebx
  40bf5e:	48 83 ec 08          	sub    $0x8,%rsp
  40bf62:	8b 47 08             	mov    0x8(%rdi),%eax
  40bf65:	85 c0                	test   %eax,%eax
  40bf67:	7e 2e                	jle    40bf97 <_ZN15Array2DSpectrumIdE20getChannelsForSampleEi+0x47>
  40bf69:	0f 1f 80 00 00 00 00 	nopl   0x0(%rax)
  40bf70:	48 8b 45 10          	mov    0x10(%rbp),%rax
  40bf74:	89 de                	mov    %ebx,%esi
  40bf76:	44 89 ea             	mov    %r13d,%edx
  40bf79:	48 89 ef             	mov    %rbp,%rdi
  40bf7c:	4c 8d 24 d8          	lea    (%rax,%rbx,8),%r12
  40bf80:	e8 ab ff ff ff       	callq  40bf30 <_ZN15Array2DSpectrumIdE2atEii>
  40bf85:	8d 43 01             	lea    0x1(%rbx),%eax
  40bf88:	48 83 c3 01          	add    $0x1,%rbx
  40bf8c:	39 45 08             	cmp    %eax,0x8(%rbp)
  40bf8f:	f2 41 0f 11 04 24    	movsd  %xmm0,(%r12)
  40bf95:	7f d9                	jg     40bf70 <_ZN15Array2DSpectrumIdE20getChannelsForSampleEi+0x20>
  40bf97:	48 8b 45 10          	mov    0x10(%rbp),%rax
  40bf9b:	48 83 c4 08          	add    $0x8,%rsp
  40bf9f:	5b                   	pop    %rbx
  40bfa0:	5d                   	pop    %rbp
  40bfa1:	41 5c                	pop    %r12
  40bfa3:	41 5d                	pop    %r13
  40bfa5:	c3                   	retq   
  40bfa6:	66 2e 0f 1f 84 00 00 	nopw   %cs:0x0(%rax,%rax,1)
  40bfad:	00 00 00 

000000000040bfb0 <_ZN15Array2DSpectrumIdE20getSamplesForChannelEi>:
  40bfb0:	41 55                	push   %r13
  40bfb2:	41 89 f5             	mov    %esi,%r13d
  40bfb5:	41 54                	push   %r12
  40bfb7:	55                   	push   %rbp
  40bfb8:	48 89 fd             	mov    %rdi,%rbp
  40bfbb:	53                   	push   %rbx
  40bfbc:	31 db                	xor    %ebx,%ebx
  40bfbe:	48 83 ec 08          	sub    $0x8,%rsp
  40bfc2:	8b 47 0c             	mov    0xc(%rdi),%eax
  40bfc5:	85 c0                	test   %eax,%eax
  40bfc7:	7e 2e                	jle    40bff7 <_ZN15Array2DSpectrumIdE20getSamplesForChannelEi+0x47>
  40bfc9:	0f 1f 80 00 00 00 00 	nopl   0x0(%rax)
  40bfd0:	48 8b 45 18          	mov    0x18(%rbp),%rax
  40bfd4:	89 da                	mov    %ebx,%edx
  40bfd6:	44 89 ee             	mov    %r13d,%esi
  40bfd9:	48 89 ef             	mov    %rbp,%rdi
  40bfdc:	4c 8d 24 d8          	lea    (%rax,%rbx,8),%r12
  40bfe0:	e8 4b ff ff ff       	callq  40bf30 <_ZN15Array2DSpectrumIdE2atEii>
  40bfe5:	8d 43 01             	lea    0x1(%rbx),%eax
  40bfe8:	48 83 c3 01          	add    $0x1,%rbx
  40bfec:	39 45 0c             	cmp    %eax,0xc(%rbp)
  40bfef:	f2 41 0f 11 04 24    	movsd  %xmm0,(%r12)
  40bff5:	7f d9                	jg     40bfd0 <_ZN15Array2DSpectrumIdE20getSamplesForChannelEi+0x20>
  40bff7:	48 8b 45 18          	mov    0x18(%rbp),%rax
  40bffb:	48 83 c4 08          	add    $0x8,%rsp
  40bfff:	5b                   	pop    %rbx
  40c000:	5d                   	pop    %rbp
  40c001:	41 5c                	pop    %r12
  40c003:	41 5d                	pop    %r13
  40c005:	c3                   	retq   
  40c006:	66 2e 0f 1f 84 00 00 	nopw   %cs:0x0(%rax,%rax,1)
  40c00d:	00 00 00 

000000000040c010 <_ZN15Array2DSpectrumIdE8toStringEv>:
  40c010:	41 55                	push   %r13
  40c012:	45 31 ed             	xor    %r13d,%r13d
  40c015:	41 54                	push   %r12
  40c017:	55                   	push   %rbp
  40c018:	48 89 fd             	mov    %rdi,%rbp
  40c01b:	48 89 ef             	mov    %rbp,%rdi
  40c01e:	53                   	push   %rbx
  40c01f:	48 83 ec 08          	sub    $0x8,%rsp
  40c023:	e8 f8 fd ff ff       	callq  40be20 <_ZN15Array2DSpectrumIdE14getSampleCountEv>
  40c028:	41 39 c5             	cmp    %eax,%r13d
  40c02b:	0f 8d 96 00 00 00    	jge    40c0c7 <_ZN15Array2DSpectrumIdE8toStringEv+0xb7>
  40c031:	0f 1f 80 00 00 00 00 	nopl   0x0(%rax)
  40c038:	31 db                	xor    %ebx,%ebx
  40c03a:	4c 8b 25 97 9f 20 00 	mov    0x209f97(%rip),%r12        # 615fd8 <_DYNAMIC+0x248>
  40c041:	eb 31                	jmp    40c074 <_ZN15Array2DSpectrumIdE8toStringEv+0x64>
  40c043:	0f 1f 44 00 00       	nopl   0x0(%rax,%rax,1)
  40c048:	89 de                	mov    %ebx,%esi
  40c04a:	44 89 ea             	mov    %r13d,%edx
  40c04d:	48 89 ef             	mov    %rbp,%rdi
  40c050:	e8 db fe ff ff       	callq  40bf30 <_ZN15Array2DSpectrumIdE2atEii>
  40c055:	4c 89 e7             	mov    %r12,%rdi
  40c058:	83 c3 01             	add    $0x1,%ebx
  40c05b:	e8 10 96 ff ff       	callq  405670 <_ZNSo9_M_insertIdEERSoT_@plt>
  40c060:	48 8d 35 bd 2a 00 00 	lea    0x2abd(%rip),%rsi        # 40eb24 <_IO_stdin_used+0xe4>
  40c067:	ba 01 00 00 00       	mov    $0x1,%edx
  40c06c:	48 89 c7             	mov    %rax,%rdi
  40c06f:	e8 9c 98 ff ff       	callq  405910 <_ZSt16__ostream_insertIcSt11char_traitsIcEERSt13basic_ostreamIT_T0_ES6_PKS3_l@plt>
  40c074:	48 89 ef             	mov    %rbp,%rdi
  40c077:	e8 94 fd ff ff       	callq  40be10 <_ZN15Array2DSpectrumIdE15getChannelCountEv>
  40c07c:	39 c3                	cmp    %eax,%ebx
  40c07e:	7c c8                	jl     40c048 <_ZN15Array2DSpectrumIdE8toStringEv+0x38>
  40c080:	49 8b 04 24          	mov    (%r12),%rax
  40c084:	48 8b 40 e8          	mov    -0x18(%rax),%rax
  40c088:	4a 8b 9c 20 f0 00 00 	mov    0xf0(%rax,%r12,1),%rbx
  40c08f:	00 
  40c090:	48 85 db             	test   %rbx,%rbx
  40c093:	74 5b                	je     40c0f0 <_ZN15Array2DSpectrumIdE8toStringEv+0xe0>
  40c095:	80 7b 38 00          	cmpb   $0x0,0x38(%rbx)
  40c099:	74 3d                	je     40c0d8 <_ZN15Array2DSpectrumIdE8toStringEv+0xc8>
  40c09b:	0f b6 43 43          	movzbl 0x43(%rbx),%eax
  40c09f:	0f be f0             	movsbl %al,%esi
  40c0a2:	4c 89 e7             	mov    %r12,%rdi
  40c0a5:	41 83 c5 01          	add    $0x1,%r13d
  40c0a9:	e8 82 93 ff ff       	callq  405430 <_ZNSo3putEc@plt>
  40c0ae:	48 89 c7             	mov    %rax,%rdi
  40c0b1:	e8 fa 92 ff ff       	callq  4053b0 <_ZNSo5flushEv@plt>
  40c0b6:	48 89 ef             	mov    %rbp,%rdi
  40c0b9:	e8 62 fd ff ff       	callq  40be20 <_ZN15Array2DSpectrumIdE14getSampleCountEv>
  40c0be:	41 39 c5             	cmp    %eax,%r13d
  40c0c1:	0f 8c 71 ff ff ff    	jl     40c038 <_ZN15Array2DSpectrumIdE8toStringEv+0x28>
  40c0c7:	48 83 c4 08          	add    $0x8,%rsp
  40c0cb:	5b                   	pop    %rbx
  40c0cc:	5d                   	pop    %rbp
  40c0cd:	41 5c                	pop    %r12
  40c0cf:	41 5d                	pop    %r13
  40c0d1:	c3                   	retq   
  40c0d2:	66 0f 1f 44 00 00    	nopw   0x0(%rax,%rax,1)
  40c0d8:	48 89 df             	mov    %rbx,%rdi
  40c0db:	e8 c0 92 ff ff       	callq  4053a0 <_ZNKSt5ctypeIcE13_M_widen_initEv@plt>
  40c0e0:	48 8b 03             	mov    (%rbx),%rax
  40c0e3:	be 0a 00 00 00       	mov    $0xa,%esi
  40c0e8:	48 89 df             	mov    %rbx,%rdi
  40c0eb:	ff 50 30             	callq  *0x30(%rax)
  40c0ee:	eb af                	jmp    40c09f <_ZN15Array2DSpectrumIdE8toStringEv+0x8f>
  40c0f0:	e8 1b 91 ff ff       	callq  405210 <_ZSt16__throw_bad_castv@plt>
  40c0f5:	66 2e 0f 1f 84 00 00 	nopw   %cs:0x0(%rax,%rax,1)
  40c0fc:	00 00 00 
  40c0ff:	90                   	nop

000000000040c100 <_ZN15Array2DSpectrumIdE3setEiid>:
  40c100:	53                   	push   %rbx
  40c101:	48 83 ec 10          	sub    $0x10,%rsp
  40c105:	48 8b 1f             	mov    (%rdi),%rbx
  40c108:	f2 0f 11 44 24 08    	movsd  %xmm0,0x8(%rsp)
  40c10e:	e8 0d fe ff ff       	callq  40bf20 <_ZNK15Array2DSpectrumIdE11getLocationEii>
  40c113:	f2 0f 10 44 24 08    	movsd  0x8(%rsp),%xmm0
  40c119:	48 98                	cltq   
  40c11b:	f2 0f 11 04 c3       	movsd  %xmm0,(%rbx,%rax,8)
  40c120:	48 83 c4 10          	add    $0x10,%rsp
  40c124:	5b                   	pop    %rbx
  40c125:	c3                   	retq   
  40c126:	66 2e 0f 1f 84 00 00 	nopw   %cs:0x0(%rax,%rax,1)
  40c12d:	00 00 00 

000000000040c130 <_ZN15Array2DSpectrumIdE9setSampleEiPd>:
  40c130:	41 55                	push   %r13
  40c132:	41 89 f5             	mov    %esi,%r13d
  40c135:	41 54                	push   %r12
  40c137:	49 89 fc             	mov    %rdi,%r12
  40c13a:	55                   	push   %rbp
  40c13b:	48 89 d5             	mov    %rdx,%rbp
  40c13e:	53                   	push   %rbx
  40c13f:	31 db                	xor    %ebx,%ebx
  40c141:	48 83 ec 08          	sub    $0x8,%rsp
  40c145:	8b 47 08             	mov    0x8(%rdi),%eax
  40c148:	85 c0                	test   %eax,%eax
  40c14a:	7e 24                	jle    40c170 <_ZN15Array2DSpectrumIdE9setSampleEiPd+0x40>
  40c14c:	0f 1f 40 00          	nopl   0x0(%rax)
  40c150:	f2 0f 10 45 00       	movsd  0x0(%rbp),%xmm0
  40c155:	89 de                	mov    %ebx,%esi
  40c157:	44 89 ea             	mov    %r13d,%edx
  40c15a:	4c 89 e7             	mov    %r12,%rdi
  40c15d:	83 c3 01             	add    $0x1,%ebx
  40c160:	e8 9b ff ff ff       	callq  40c100 <_ZN15Array2DSpectrumIdE3setEiid>
  40c165:	48 83 c5 08          	add    $0x8,%rbp
  40c169:	41 39 5c 24 08       	cmp    %ebx,0x8(%r12)
  40c16e:	7f e0                	jg     40c150 <_ZN15Array2DSpectrumIdE9setSampleEiPd+0x20>
  40c170:	48 83 c4 08          	add    $0x8,%rsp
  40c174:	5b                   	pop    %rbx
  40c175:	5d                   	pop    %rbp
  40c176:	41 5c                	pop    %r12
  40c178:	41 5d                	pop    %r13
  40c17a:	c3                   	retq   
  40c17b:	0f 1f 44 00 00       	nopl   0x0(%rax,%rax,1)

000000000040c180 <_ZN15Array2DSpectrumIdE17getSamplesSectionEii>:
  40c180:	41 55                	push   %r13
  40c182:	49 89 f5             	mov    %rsi,%r13
  40c185:	41 54                	push   %r12
  40c187:	41 89 cc             	mov    %ecx,%r12d
  40c18a:	55                   	push   %rbp
  40c18b:	48 89 fd             	mov    %rdi,%rbp
  40c18e:	53                   	push   %rbx
  40c18f:	89 d3                	mov    %edx,%ebx
  40c191:	89 ca                	mov    %ecx,%edx
  40c193:	48 83 ec 08          	sub    $0x8,%rsp
  40c197:	8b 76 08             	mov    0x8(%rsi),%esi
  40c19a:	e8 a1 fb ff ff       	callq  40bd40 <_ZN15Array2DSpectrumIdEC1Eii>
  40c19f:	41 39 dc             	cmp    %ebx,%r12d
  40c1a2:	7e 23                	jle    40c1c7 <_ZN15Array2DSpectrumIdE17getSamplesSectionEii+0x47>
  40c1a4:	0f 1f 40 00          	nopl   0x0(%rax)
  40c1a8:	89 de                	mov    %ebx,%esi
  40c1aa:	4c 89 ef             	mov    %r13,%rdi
  40c1ad:	e8 9e fd ff ff       	callq  40bf50 <_ZN15Array2DSpectrumIdE20getChannelsForSampleEi>
  40c1b2:	48 89 c2             	mov    %rax,%rdx
  40c1b5:	89 de                	mov    %ebx,%esi
  40c1b7:	48 89 ef             	mov    %rbp,%rdi
  40c1ba:	e8 71 ff ff ff       	callq  40c130 <_ZN15Array2DSpectrumIdE9setSampleEiPd>
  40c1bf:	83 c3 01             	add    $0x1,%ebx
  40c1c2:	44 39 e3             	cmp    %r12d,%ebx
  40c1c5:	75 e1                	jne    40c1a8 <_ZN15Array2DSpectrumIdE17getSamplesSectionEii+0x28>
  40c1c7:	48 83 c4 08          	add    $0x8,%rsp
  40c1cb:	48 89 e8             	mov    %rbp,%rax
  40c1ce:	5b                   	pop    %rbx
  40c1cf:	5d                   	pop    %rbp
  40c1d0:	41 5c                	pop    %r12
  40c1d2:	41 5d                	pop    %r13
  40c1d4:	c3                   	retq   
  40c1d5:	48 89 c3             	mov    %rax,%rbx
  40c1d8:	48 89 ef             	mov    %rbp,%rdi
  40c1db:	e8 f0 fb ff ff       	callq  40bdd0 <_ZN15Array2DSpectrumIdED1Ev>
  40c1e0:	48 89 df             	mov    %rbx,%rdi
  40c1e3:	e8 38 93 ff ff       	callq  405520 <_Unwind_Resume@plt>
  40c1e8:	0f 1f 84 00 00 00 00 	nopl   0x0(%rax,%rax,1)
  40c1ef:	00 

000000000040c1f0 <_ZN15Array2DSpectrumIdE10setChannelEiPd>:
  40c1f0:	41 55                	push   %r13
  40c1f2:	41 89 f5             	mov    %esi,%r13d
  40c1f5:	41 54                	push   %r12
  40c1f7:	49 89 fc             	mov    %rdi,%r12
  40c1fa:	55                   	push   %rbp
  40c1fb:	48 89 d5             	mov    %rdx,%rbp
  40c1fe:	53                   	push   %rbx
  40c1ff:	31 db                	xor    %ebx,%ebx
  40c201:	48 83 ec 08          	sub    $0x8,%rsp
  40c205:	8b 47 0c             	mov    0xc(%rdi),%eax
  40c208:	85 c0                	test   %eax,%eax
  40c20a:	7e 24                	jle    40c230 <_ZN15Array2DSpectrumIdE10setChannelEiPd+0x40>
  40c20c:	0f 1f 40 00          	nopl   0x0(%rax)
  40c210:	f2 0f 10 45 00       	movsd  0x0(%rbp),%xmm0
  40c215:	89 da                	mov    %ebx,%edx
  40c217:	44 89 ee             	mov    %r13d,%esi
  40c21a:	4c 89 e7             	mov    %r12,%rdi
  40c21d:	83 c3 01             	add    $0x1,%ebx
  40c220:	e8 db fe ff ff       	callq  40c100 <_ZN15Array2DSpectrumIdE3setEiid>
  40c225:	48 83 c5 08          	add    $0x8,%rbp
  40c229:	41 39 5c 24 0c       	cmp    %ebx,0xc(%r12)
  40c22e:	7f e0                	jg     40c210 <_ZN15Array2DSpectrumIdE10setChannelEiPd+0x20>
  40c230:	48 83 c4 08          	add    $0x8,%rsp
  40c234:	5b                   	pop    %rbx
  40c235:	5d                   	pop    %rbp
  40c236:	41 5c                	pop    %r12
  40c238:	41 5d                	pop    %r13
  40c23a:	c3                   	retq   
  40c23b:	0f 1f 44 00 00       	nopl   0x0(%rax,%rax,1)

000000000040c240 <_ZN15Array2DSpectrumIdE18getChannelsSectionEii>:
  40c240:	41 55                	push   %r13
  40c242:	49 89 f5             	mov    %rsi,%r13
  40c245:	41 54                	push   %r12
  40c247:	41 89 cc             	mov    %ecx,%r12d
  40c24a:	55                   	push   %rbp
  40c24b:	48 89 fd             	mov    %rdi,%rbp
  40c24e:	53                   	push   %rbx
  40c24f:	89 d3                	mov    %edx,%ebx
  40c251:	48 83 ec 08          	sub    $0x8,%rsp
  40c255:	8b 56 0c             	mov    0xc(%rsi),%edx
  40c258:	89 ce                	mov    %ecx,%esi
  40c25a:	e8 e1 fa ff ff       	callq  40bd40 <_ZN15Array2DSpectrumIdEC1Eii>
  40c25f:	41 39 dc             	cmp    %ebx,%r12d
  40c262:	7e 23                	jle    40c287 <_ZN15Array2DSpectrumIdE18getChannelsSectionEii+0x47>
  40c264:	0f 1f 40 00          	nopl   0x0(%rax)
  40c268:	89 de                	mov    %ebx,%esi
  40c26a:	4c 89 ef             	mov    %r13,%rdi
  40c26d:	e8 3e fd ff ff       	callq  40bfb0 <_ZN15Array2DSpectrumIdE20getSamplesForChannelEi>
  40c272:	48 89 c2             	mov    %rax,%rdx
  40c275:	89 de                	mov    %ebx,%esi
  40c277:	48 89 ef             	mov    %rbp,%rdi
  40c27a:	e8 71 ff ff ff       	callq  40c1f0 <_ZN15Array2DSpectrumIdE10setChannelEiPd>
  40c27f:	83 c3 01             	add    $0x1,%ebx
  40c282:	44 39 e3             	cmp    %r12d,%ebx
  40c285:	75 e1                	jne    40c268 <_ZN15Array2DSpectrumIdE18getChannelsSectionEii+0x28>
  40c287:	48 83 c4 08          	add    $0x8,%rsp
  40c28b:	48 89 e8             	mov    %rbp,%rax
  40c28e:	5b                   	pop    %rbx
  40c28f:	5d                   	pop    %rbp
  40c290:	41 5c                	pop    %r12
  40c292:	41 5d                	pop    %r13
  40c294:	c3                   	retq   
  40c295:	48 89 c3             	mov    %rax,%rbx
  40c298:	48 89 ef             	mov    %rbp,%rdi
  40c29b:	e8 30 fb ff ff       	callq  40bdd0 <_ZN15Array2DSpectrumIdED1Ev>
  40c2a0:	48 89 df             	mov    %rbx,%rdi
  40c2a3:	e8 78 92 ff ff       	callq  405520 <_Unwind_Resume@plt>
  40c2a8:	0f 1f 84 00 00 00 00 	nopl   0x0(%rax,%rax,1)
  40c2af:	00 

000000000040c2b0 <_ZN15Array2DSpectrumIdE9transposeEv>:
  40c2b0:	41 55                	push   %r13
  40c2b2:	49 89 fd             	mov    %rdi,%r13
  40c2b5:	41 54                	push   %r12
  40c2b7:	49 89 f4             	mov    %rsi,%r12
  40c2ba:	55                   	push   %rbp
  40c2bb:	53                   	push   %rbx
  40c2bc:	48 83 ec 08          	sub    $0x8,%rsp
  40c2c0:	8b 56 08             	mov    0x8(%rsi),%edx
  40c2c3:	8b 76 0c             	mov    0xc(%rsi),%esi
  40c2c6:	e8 75 fa ff ff       	callq  40bd40 <_ZN15Array2DSpectrumIdEC1Eii>
  40c2cb:	41 8b 54 24 08       	mov    0x8(%r12),%edx
  40c2d0:	85 d2                	test   %edx,%edx
  40c2d2:	7e 48                	jle    40c31c <_ZN15Array2DSpectrumIdE9transposeEv+0x6c>
  40c2d4:	31 ed                	xor    %ebp,%ebp
  40c2d6:	66 2e 0f 1f 84 00 00 	nopw   %cs:0x0(%rax,%rax,1)
  40c2dd:	00 00 00 
  40c2e0:	41 8b 44 24 0c       	mov    0xc(%r12),%eax
  40c2e5:	85 c0                	test   %eax,%eax
  40c2e7:	7e 29                	jle    40c312 <_ZN15Array2DSpectrumIdE9transposeEv+0x62>
  40c2e9:	31 db                	xor    %ebx,%ebx
  40c2eb:	0f 1f 44 00 00       	nopl   0x0(%rax,%rax,1)
  40c2f0:	89 da                	mov    %ebx,%edx
  40c2f2:	89 ee                	mov    %ebp,%esi
  40c2f4:	4c 89 e7             	mov    %r12,%rdi
  40c2f7:	e8 34 fc ff ff       	callq  40bf30 <_ZN15Array2DSpectrumIdE2atEii>
  40c2fc:	89 ea                	mov    %ebp,%edx
  40c2fe:	89 de                	mov    %ebx,%esi
  40c300:	4c 89 ef             	mov    %r13,%rdi
  40c303:	e8 f8 fd ff ff       	callq  40c100 <_ZN15Array2DSpectrumIdE3setEiid>
  40c308:	83 c3 01             	add    $0x1,%ebx
  40c30b:	41 39 5c 24 0c       	cmp    %ebx,0xc(%r12)
  40c310:	7f de                	jg     40c2f0 <_ZN15Array2DSpectrumIdE9transposeEv+0x40>
  40c312:	83 c5 01             	add    $0x1,%ebp
  40c315:	41 39 6c 24 08       	cmp    %ebp,0x8(%r12)
  40c31a:	7f c4                	jg     40c2e0 <_ZN15Array2DSpectrumIdE9transposeEv+0x30>
  40c31c:	48 83 c4 08          	add    $0x8,%rsp
  40c320:	4c 89 e8             	mov    %r13,%rax
  40c323:	5b                   	pop    %rbx
  40c324:	5d                   	pop    %rbp
  40c325:	41 5c                	pop    %r12
  40c327:	41 5d                	pop    %r13
  40c329:	c3                   	retq   
  40c32a:	48 89 c3             	mov    %rax,%rbx
  40c32d:	4c 89 ef             	mov    %r13,%rdi
  40c330:	e8 9b fa ff ff       	callq  40bdd0 <_ZN15Array2DSpectrumIdED1Ev>
  40c335:	48 89 df             	mov    %rbx,%rdi
  40c338:	e8 e3 91 ff ff       	callq  405520 <_Unwind_Resume@plt>
  40c33d:	0f 1f 00             	nopl   (%rax)

000000000040c340 <_ZN23CircularArray2DSpectrumIiEC1Ev>:
  40c340:	55                   	push   %rbp
  40c341:	53                   	push   %rbx
  40c342:	48 89 fb             	mov    %rdi,%rbx
  40c345:	48 83 ec 08          	sub    $0x8,%rsp
  40c349:	e8 92 ed ff ff       	callq  40b0e0 <_ZN15Array2DSpectrumIiEC1Ev>
  40c34e:	c7 43 20 00 00 00 00 	movl   $0x0,0x20(%rbx)
  40c355:	48 89 df             	mov    %rbx,%rdi
  40c358:	e8 93 ee ff ff       	callq  40b1f0 <_ZN15Array2DSpectrumIiE14getSampleCountEv>
  40c35d:	83 e8 01             	sub    $0x1,%eax
  40c360:	c7 43 28 00 00 00 00 	movl   $0x0,0x28(%rbx)
  40c367:	89 43 24             	mov    %eax,0x24(%rbx)
  40c36a:	48 83 c4 08          	add    $0x8,%rsp
  40c36e:	5b                   	pop    %rbx
  40c36f:	5d                   	pop    %rbp
  40c370:	c3                   	retq   
  40c371:	48 89 c5             	mov    %rax,%rbp
  40c374:	48 89 df             	mov    %rbx,%rdi
  40c377:	e8 24 ee ff ff       	callq  40b1a0 <_ZN15Array2DSpectrumIiED1Ev>
  40c37c:	48 89 ef             	mov    %rbp,%rdi
  40c37f:	e8 9c 91 ff ff       	callq  405520 <_Unwind_Resume@plt>
  40c384:	66 2e 0f 1f 84 00 00 	nopw   %cs:0x0(%rax,%rax,1)
  40c38b:	00 00 00 
  40c38e:	66 90                	xchg   %ax,%ax

000000000040c390 <_ZN23CircularArray2DSpectrumIiEC1Eii>:
  40c390:	55                   	push   %rbp
  40c391:	53                   	push   %rbx
  40c392:	48 89 fb             	mov    %rdi,%rbx
  40c395:	48 83 ec 08          	sub    $0x8,%rsp
  40c399:	e8 72 ed ff ff       	callq  40b110 <_ZN15Array2DSpectrumIiEC1Eii>
  40c39e:	c7 43 20 00 00 00 00 	movl   $0x0,0x20(%rbx)
  40c3a5:	48 89 df             	mov    %rbx,%rdi
  40c3a8:	e8 43 ee ff ff       	callq  40b1f0 <_ZN15Array2DSpectrumIiE14getSampleCountEv>
  40c3ad:	83 e8 01             	sub    $0x1,%eax
  40c3b0:	c7 43 28 00 00 00 00 	movl   $0x0,0x28(%rbx)
  40c3b7:	89 43 24             	mov    %eax,0x24(%rbx)
  40c3ba:	48 83 c4 08          	add    $0x8,%rsp
  40c3be:	5b                   	pop    %rbx
  40c3bf:	5d                   	pop    %rbp
  40c3c0:	c3                   	retq   
  40c3c1:	48 89 c5             	mov    %rax,%rbp
  40c3c4:	48 89 df             	mov    %rbx,%rdi
  40c3c7:	e8 d4 ed ff ff       	callq  40b1a0 <_ZN15Array2DSpectrumIiED1Ev>
  40c3cc:	48 89 ef             	mov    %rbp,%rdi
  40c3cf:	e8 4c 91 ff ff       	callq  405520 <_Unwind_Resume@plt>
  40c3d4:	66 2e 0f 1f 84 00 00 	nopw   %cs:0x0(%rax,%rax,1)
  40c3db:	00 00 00 
  40c3de:	66 90                	xchg   %ax,%ax

000000000040c3e0 <_ZN23CircularArray2DSpectrumIiED1Ev>:
  40c3e0:	55                   	push   %rbp
  40c3e1:	53                   	push   %rbx
  40c3e2:	48 89 fb             	mov    %rdi,%rbx
  40c3e5:	48 83 ec 08          	sub    $0x8,%rsp
  40c3e9:	c7 47 20 00 00 00 00 	movl   $0x0,0x20(%rdi)
  40c3f0:	e8 fb ed ff ff       	callq  40b1f0 <_ZN15Array2DSpectrumIiE14getSampleCountEv>
  40c3f5:	83 e8 01             	sub    $0x1,%eax
  40c3f8:	c7 43 28 00 00 00 00 	movl   $0x0,0x28(%rbx)
  40c3ff:	48 89 df             	mov    %rbx,%rdi
  40c402:	89 43 24             	mov    %eax,0x24(%rbx)
  40c405:	48 83 c4 08          	add    $0x8,%rsp
  40c409:	5b                   	pop    %rbx
  40c40a:	5d                   	pop    %rbp
  40c40b:	e9 90 ed ff ff       	jmpq   40b1a0 <_ZN15Array2DSpectrumIiED1Ev>
  40c410:	48 89 c5             	mov    %rax,%rbp
  40c413:	48 89 df             	mov    %rbx,%rdi
  40c416:	e8 85 ed ff ff       	callq  40b1a0 <_ZN15Array2DSpectrumIiED1Ev>
  40c41b:	48 89 ef             	mov    %rbp,%rdi
  40c41e:	e8 fd 90 ff ff       	callq  405520 <_Unwind_Resume@plt>
  40c423:	66 2e 0f 1f 84 00 00 	nopw   %cs:0x0(%rax,%rax,1)
  40c42a:	00 00 00 
  40c42d:	0f 1f 00             	nopl   (%rax)

000000000040c430 <_ZN23CircularArray2DSpectrumIiE18incrementReadIndexEv>:
  40c430:	55                   	push   %rbp
  40c431:	53                   	push   %rbx
  40c432:	48 89 fb             	mov    %rdi,%rbx
  40c435:	48 83 ec 08          	sub    $0x8,%rsp
  40c439:	8b 6f 24             	mov    0x24(%rdi),%ebp
  40c43c:	e8 af ed ff ff       	callq  40b1f0 <_ZN15Array2DSpectrumIiE14getSampleCountEv>
  40c441:	83 e8 01             	sub    $0x1,%eax
  40c444:	39 c5                	cmp    %eax,%ebp
  40c446:	7d 10                	jge    40c458 <_ZN23CircularArray2DSpectrumIiE18incrementReadIndexEv+0x28>
  40c448:	83 43 24 01          	addl   $0x1,0x24(%rbx)
  40c44c:	48 83 c4 08          	add    $0x8,%rsp
  40c450:	5b                   	pop    %rbx
  40c451:	5d                   	pop    %rbp
  40c452:	c3                   	retq   
  40c453:	0f 1f 44 00 00       	nopl   0x0(%rax,%rax,1)
  40c458:	c7 43 24 00 00 00 00 	movl   $0x0,0x24(%rbx)
  40c45f:	48 83 c4 08          	add    $0x8,%rsp
  40c463:	5b                   	pop    %rbx
  40c464:	5d                   	pop    %rbp
  40c465:	c3                   	retq   
  40c466:	66 2e 0f 1f 84 00 00 	nopw   %cs:0x0(%rax,%rax,1)
  40c46d:	00 00 00 

000000000040c470 <_ZN23CircularArray2DSpectrumIiE9popSampleEv>:
  40c470:	53                   	push   %rbx
  40c471:	48 89 fb             	mov    %rdi,%rbx
  40c474:	e8 b7 ff ff ff       	callq  40c430 <_ZN23CircularArray2DSpectrumIiE18incrementReadIndexEv>
  40c479:	8b 73 24             	mov    0x24(%rbx),%esi
  40c47c:	48 89 df             	mov    %rbx,%rdi
  40c47f:	5b                   	pop    %rbx
  40c480:	e9 7b ee ff ff       	jmpq   40b300 <_ZN15Array2DSpectrumIiE20getChannelsForSampleEi>
  40c485:	66 2e 0f 1f 84 00 00 	nopw   %cs:0x0(%rax,%rax,1)
  40c48c:	00 00 00 
  40c48f:	90                   	nop

000000000040c490 <_ZN23CircularArray2DSpectrumIiE11popSpectrumEiP15Array2DSpectrumIiE>:
  40c490:	41 55                	push   %r13
  40c492:	49 89 fd             	mov    %rdi,%r13
  40c495:	41 54                	push   %r12
  40c497:	49 89 d4             	mov    %rdx,%r12
  40c49a:	55                   	push   %rbp
  40c49b:	89 f5                	mov    %esi,%ebp
  40c49d:	53                   	push   %rbx
  40c49e:	31 db                	xor    %ebx,%ebx
  40c4a0:	48 83 ec 08          	sub    $0x8,%rsp
  40c4a4:	85 f6                	test   %esi,%esi
  40c4a6:	7e 24                	jle    40c4cc <_ZN23CircularArray2DSpectrumIiE11popSpectrumEiP15Array2DSpectrumIiE+0x3c>
  40c4a8:	0f 1f 84 00 00 00 00 	nopl   0x0(%rax,%rax,1)
  40c4af:	00 
  40c4b0:	4c 89 ef             	mov    %r13,%rdi
  40c4b3:	e8 b8 ff ff ff       	callq  40c470 <_ZN23CircularArray2DSpectrumIiE9popSampleEv>
  40c4b8:	89 de                	mov    %ebx,%esi
  40c4ba:	48 89 c2             	mov    %rax,%rdx
  40c4bd:	4c 89 e7             	mov    %r12,%rdi
  40c4c0:	83 c3 01             	add    $0x1,%ebx
  40c4c3:	e8 08 f0 ff ff       	callq  40b4d0 <_ZN15Array2DSpectrumIiE9setSampleEiPi>
  40c4c8:	39 eb                	cmp    %ebp,%ebx
  40c4ca:	75 e4                	jne    40c4b0 <_ZN23CircularArray2DSpectrumIiE11popSpectrumEiP15Array2DSpectrumIiE+0x20>
  40c4cc:	48 83 c4 08          	add    $0x8,%rsp
  40c4d0:	5b                   	pop    %rbx
  40c4d1:	5d                   	pop    %rbp
  40c4d2:	41 5c                	pop    %r12
  40c4d4:	41 5d                	pop    %r13
  40c4d6:	c3                   	retq   
  40c4d7:	66 0f 1f 84 00 00 00 	nopw   0x0(%rax,%rax,1)
  40c4de:	00 00 

000000000040c4e0 <_ZN23CircularArray2DSpectrumIiE18decrementReadIndexEv>:
  40c4e0:	8b 47 24             	mov    0x24(%rdi),%eax
  40c4e3:	53                   	push   %rbx
  40c4e4:	48 89 fb             	mov    %rdi,%rbx
  40c4e7:	85 c0                	test   %eax,%eax
  40c4e9:	7e 0d                	jle    40c4f8 <_ZN23CircularArray2DSpectrumIiE18decrementReadIndexEv+0x18>
  40c4eb:	83 e8 01             	sub    $0x1,%eax
  40c4ee:	89 43 24             	mov    %eax,0x24(%rbx)
  40c4f1:	5b                   	pop    %rbx
  40c4f2:	c3                   	retq   
  40c4f3:	0f 1f 44 00 00       	nopl   0x0(%rax,%rax,1)
  40c4f8:	e8 f3 ec ff ff       	callq  40b1f0 <_ZN15Array2DSpectrumIiE14getSampleCountEv>
  40c4fd:	83 e8 01             	sub    $0x1,%eax
  40c500:	89 43 24             	mov    %eax,0x24(%rbx)
  40c503:	5b                   	pop    %rbx
  40c504:	c3                   	retq   
  40c505:	66 2e 0f 1f 84 00 00 	nopw   %cs:0x0(%rax,%rax,1)
  40c50c:	00 00 00 
  40c50f:	90                   	nop

000000000040c510 <_ZN23CircularArray2DSpectrumIiE19incrementWriteIndexEv>:
  40c510:	55                   	push   %rbp
  40c511:	53                   	push   %rbx
  40c512:	48 89 fb             	mov    %rdi,%rbx
  40c515:	48 83 ec 08          	sub    $0x8,%rsp
  40c519:	8b 6f 20             	mov    0x20(%rdi),%ebp
  40c51c:	e8 cf ec ff ff       	callq  40b1f0 <_ZN15Array2DSpectrumIiE14getSampleCountEv>
  40c521:	83 e8 01             	sub    $0x1,%eax
  40c524:	39 c5                	cmp    %eax,%ebp
  40c526:	7d 10                	jge    40c538 <_ZN23CircularArray2DSpectrumIiE19incrementWriteIndexEv+0x28>
  40c528:	83 43 20 01          	addl   $0x1,0x20(%rbx)
  40c52c:	48 83 c4 08          	add    $0x8,%rsp
  40c530:	5b                   	pop    %rbx
  40c531:	5d                   	pop    %rbp
  40c532:	c3                   	retq   
  40c533:	0f 1f 44 00 00       	nopl   0x0(%rax,%rax,1)
  40c538:	c7 43 20 00 00 00 00 	movl   $0x0,0x20(%rbx)
  40c53f:	83 43 28 01          	addl   $0x1,0x28(%rbx)
  40c543:	48 83 c4 08          	add    $0x8,%rsp
  40c547:	5b                   	pop    %rbx
  40c548:	5d                   	pop    %rbp
  40c549:	c3                   	retq   
  40c54a:	66 0f 1f 44 00 00    	nopw   0x0(%rax,%rax,1)

000000000040c550 <_ZN23CircularArray2DSpectrumIiE10pushSampleEPi>:
  40c550:	53                   	push   %rbx
  40c551:	48 89 f2             	mov    %rsi,%rdx
  40c554:	8b 77 20             	mov    0x20(%rdi),%esi
  40c557:	48 89 fb             	mov    %rdi,%rbx
  40c55a:	e8 71 ef ff ff       	callq  40b4d0 <_ZN15Array2DSpectrumIiE9setSampleEiPi>
  40c55f:	48 89 df             	mov    %rbx,%rdi
  40c562:	5b                   	pop    %rbx
  40c563:	e9 a8 ff ff ff       	jmpq   40c510 <_ZN23CircularArray2DSpectrumIiE19incrementWriteIndexEv>
  40c568:	0f 1f 84 00 00 00 00 	nopl   0x0(%rax,%rax,1)
  40c56f:	00 

000000000040c570 <_ZN23CircularArray2DSpectrumIiE12pushSpectrumE15Array2DSpectrumIiE>:
  40c570:	41 54                	push   %r12
  40c572:	49 89 fc             	mov    %rdi,%r12
  40c575:	55                   	push   %rbp
  40c576:	48 89 f5             	mov    %rsi,%rbp
  40c579:	53                   	push   %rbx
  40c57a:	31 db                	xor    %ebx,%ebx
  40c57c:	eb 1a                	jmp    40c598 <_ZN23CircularArray2DSpectrumIiE12pushSpectrumE15Array2DSpectrumIiE+0x28>
  40c57e:	66 90                	xchg   %ax,%ax
  40c580:	89 de                	mov    %ebx,%esi
  40c582:	48 89 ef             	mov    %rbp,%rdi
  40c585:	83 c3 01             	add    $0x1,%ebx
  40c588:	e8 73 ed ff ff       	callq  40b300 <_ZN15Array2DSpectrumIiE20getChannelsForSampleEi>
  40c58d:	4c 89 e7             	mov    %r12,%rdi
  40c590:	48 89 c6             	mov    %rax,%rsi
  40c593:	e8 b8 ff ff ff       	callq  40c550 <_ZN23CircularArray2DSpectrumIiE10pushSampleEPi>
  40c598:	48 89 ef             	mov    %rbp,%rdi
  40c59b:	e8 50 ec ff ff       	callq  40b1f0 <_ZN15Array2DSpectrumIiE14getSampleCountEv>
  40c5a0:	39 c3                	cmp    %eax,%ebx
  40c5a2:	7c dc                	jl     40c580 <_ZN23CircularArray2DSpectrumIiE12pushSpectrumE15Array2DSpectrumIiE+0x10>
  40c5a4:	5b                   	pop    %rbx
  40c5a5:	5d                   	pop    %rbp
  40c5a6:	41 5c                	pop    %r12
  40c5a8:	c3                   	retq   
  40c5a9:	0f 1f 80 00 00 00 00 	nopl   0x0(%rax)

000000000040c5b0 <_ZN23CircularArray2DSpectrumIiE19decrementWriteIndexEv>:
  40c5b0:	8b 47 20             	mov    0x20(%rdi),%eax
  40c5b3:	53                   	push   %rbx
  40c5b4:	48 89 fb             	mov    %rdi,%rbx
  40c5b7:	85 c0                	test   %eax,%eax
  40c5b9:	7e 0d                	jle    40c5c8 <_ZN23CircularArray2DSpectrumIiE19decrementWriteIndexEv+0x18>
  40c5bb:	83 e8 01             	sub    $0x1,%eax
  40c5be:	89 43 20             	mov    %eax,0x20(%rbx)
  40c5c1:	5b                   	pop    %rbx
  40c5c2:	c3                   	retq   
  40c5c3:	0f 1f 44 00 00       	nopl   0x0(%rax,%rax,1)
  40c5c8:	e8 23 ec ff ff       	callq  40b1f0 <_ZN15Array2DSpectrumIiE14getSampleCountEv>
  40c5cd:	83 e8 01             	sub    $0x1,%eax
  40c5d0:	89 43 20             	mov    %eax,0x20(%rbx)
  40c5d3:	5b                   	pop    %rbx
  40c5d4:	c3                   	retq   
  40c5d5:	66 2e 0f 1f 84 00 00 	nopw   %cs:0x0(%rax,%rax,1)
  40c5dc:	00 00 00 
  40c5df:	90                   	nop

000000000040c5e0 <_ZN23CircularArray2DSpectrumIiE26getCurrentSampleWriteIndexEv>:
  40c5e0:	8b 47 20             	mov    0x20(%rdi),%eax
  40c5e3:	c3                   	retq   
  40c5e4:	66 2e 0f 1f 84 00 00 	nopw   %cs:0x0(%rax,%rax,1)
  40c5eb:	00 00 00 
  40c5ee:	66 90                	xchg   %ax,%ax

000000000040c5f0 <_ZN23CircularArray2DSpectrumIiE16pushSpectrumFastEiP15Array2DSpectrumIiE>:
  40c5f0:	41 57                	push   %r15
  40c5f2:	41 56                	push   %r14
  40c5f4:	49 89 d6             	mov    %rdx,%r14
  40c5f7:	41 55                	push   %r13
  40c5f9:	41 89 f5             	mov    %esi,%r13d
  40c5fc:	41 54                	push   %r12
  40c5fe:	55                   	push   %rbp
  40c5ff:	53                   	push   %rbx
  40c600:	48 89 fb             	mov    %rdi,%rbx
  40c603:	48 89 d7             	mov    %rdx,%rdi
  40c606:	48 83 ec 18          	sub    $0x18,%rsp
  40c60a:	e8 d1 eb ff ff       	callq  40b1e0 <_ZN15Array2DSpectrumIiE15getChannelCountEv>
  40c60f:	45 85 ed             	test   %r13d,%r13d
  40c612:	89 44 24 0c          	mov    %eax,0xc(%rsp)
  40c616:	7e 48                	jle    40c660 <_ZN23CircularArray2DSpectrumIiE16pushSpectrumFastEiP15Array2DSpectrumIiE+0x70>
  40c618:	4c 63 e0             	movslq %eax,%r12
  40c61b:	31 ed                	xor    %ebp,%ebp
  40c61d:	45 31 ff             	xor    %r15d,%r15d
  40c620:	49 c1 e4 02          	shl    $0x2,%r12
  40c624:	0f 1f 40 00          	nopl   0x0(%rax)
  40c628:	48 89 df             	mov    %rbx,%rdi
  40c62b:	41 83 c7 01          	add    $0x1,%r15d
  40c62f:	e8 ac ff ff ff       	callq  40c5e0 <_ZN23CircularArray2DSpectrumIiE26getCurrentSampleWriteIndexEv>
  40c634:	0f af 44 24 0c       	imul   0xc(%rsp),%eax
  40c639:	48 8b 13             	mov    (%rbx),%rdx
  40c63c:	48 89 ee             	mov    %rbp,%rsi
  40c63f:	49 03 36             	add    (%r14),%rsi
  40c642:	4c 01 e5             	add    %r12,%rbp
  40c645:	48 98                	cltq   
  40c647:	48 8d 3c 82          	lea    (%rdx,%rax,4),%rdi
  40c64b:	4c 89 e2             	mov    %r12,%rdx
  40c64e:	e8 6d 89 ff ff       	callq  404fc0 <memcpy@plt>
  40c653:	48 89 df             	mov    %rbx,%rdi
  40c656:	e8 b5 fe ff ff       	callq  40c510 <_ZN23CircularArray2DSpectrumIiE19incrementWriteIndexEv>
  40c65b:	45 39 ef             	cmp    %r13d,%r15d
  40c65e:	75 c8                	jne    40c628 <_ZN23CircularArray2DSpectrumIiE16pushSpectrumFastEiP15Array2DSpectrumIiE+0x38>
  40c660:	48 83 c4 18          	add    $0x18,%rsp
  40c664:	5b                   	pop    %rbx
  40c665:	5d                   	pop    %rbp
  40c666:	41 5c                	pop    %r12
  40c668:	41 5d                	pop    %r13
  40c66a:	41 5e                	pop    %r14
  40c66c:	41 5f                	pop    %r15
  40c66e:	c3                   	retq   
  40c66f:	90                   	nop

000000000040c670 <_ZN23CircularArray2DSpectrumIiE25setCurrentSampleReadIndexEi>:
  40c670:	89 77 24             	mov    %esi,0x24(%rdi)
  40c673:	c3                   	retq   
  40c674:	66 2e 0f 1f 84 00 00 	nopw   %cs:0x0(%rax,%rax,1)
  40c67b:	00 00 00 
  40c67e:	66 90                	xchg   %ax,%ax

000000000040c680 <_ZN23CircularArray2DSpectrumIiE25getCurrentSampleReadIndexEv>:
  40c680:	8b 47 24             	mov    0x24(%rdi),%eax
  40c683:	c3                   	retq   
  40c684:	66 2e 0f 1f 84 00 00 	nopw   %cs:0x0(%rax,%rax,1)
  40c68b:	00 00 00 
  40c68e:	66 90                	xchg   %ax,%ax

000000000040c690 <_ZN23CircularArray2DSpectrumIiE15popSpectrumFastEiP15Array2DSpectrumIiE>:
  40c690:	41 57                	push   %r15
  40c692:	49 89 d7             	mov    %rdx,%r15
  40c695:	41 56                	push   %r14
  40c697:	41 55                	push   %r13
  40c699:	41 89 f5             	mov    %esi,%r13d
  40c69c:	41 54                	push   %r12
  40c69e:	55                   	push   %rbp
  40c69f:	53                   	push   %rbx
  40c6a0:	48 89 fb             	mov    %rdi,%rbx
  40c6a3:	48 83 ec 18          	sub    $0x18,%rsp
  40c6a7:	e8 34 eb ff ff       	callq  40b1e0 <_ZN15Array2DSpectrumIiE15getChannelCountEv>
  40c6ac:	45 85 ed             	test   %r13d,%r13d
  40c6af:	89 44 24 0c          	mov    %eax,0xc(%rsp)
  40c6b3:	7e 4b                	jle    40c700 <_ZN23CircularArray2DSpectrumIiE15popSpectrumFastEiP15Array2DSpectrumIiE+0x70>
  40c6b5:	4c 63 e0             	movslq %eax,%r12
  40c6b8:	31 ed                	xor    %ebp,%ebp
  40c6ba:	45 31 f6             	xor    %r14d,%r14d
  40c6bd:	49 c1 e4 02          	shl    $0x2,%r12
  40c6c1:	0f 1f 80 00 00 00 00 	nopl   0x0(%rax)
  40c6c8:	48 89 df             	mov    %rbx,%rdi
  40c6cb:	41 83 c6 01          	add    $0x1,%r14d
  40c6cf:	e8 5c fd ff ff       	callq  40c430 <_ZN23CircularArray2DSpectrumIiE18incrementReadIndexEv>
  40c6d4:	48 89 df             	mov    %rbx,%rdi
  40c6d7:	e8 a4 ff ff ff       	callq  40c680 <_ZN23CircularArray2DSpectrumIiE25getCurrentSampleReadIndexEv>
  40c6dc:	0f af 44 24 0c       	imul   0xc(%rsp),%eax
  40c6e1:	48 8b 13             	mov    (%rbx),%rdx
  40c6e4:	48 89 ef             	mov    %rbp,%rdi
  40c6e7:	49 03 3f             	add    (%r15),%rdi
  40c6ea:	4c 01 e5             	add    %r12,%rbp
  40c6ed:	48 98                	cltq   
  40c6ef:	48 8d 34 82          	lea    (%rdx,%rax,4),%rsi
  40c6f3:	4c 89 e2             	mov    %r12,%rdx
  40c6f6:	e8 c5 88 ff ff       	callq  404fc0 <memcpy@plt>
  40c6fb:	45 39 ee             	cmp    %r13d,%r14d
  40c6fe:	75 c8                	jne    40c6c8 <_ZN23CircularArray2DSpectrumIiE15popSpectrumFastEiP15Array2DSpectrumIiE+0x38>
  40c700:	48 83 c4 18          	add    $0x18,%rsp
  40c704:	5b                   	pop    %rbx
  40c705:	5d                   	pop    %rbp
  40c706:	41 5c                	pop    %r12
  40c708:	41 5d                	pop    %r13
  40c70a:	41 5e                	pop    %r14
  40c70c:	41 5f                	pop    %r15
  40c70e:	c3                   	retq   
  40c70f:	90                   	nop

000000000040c710 <_ZN23CircularArray2DSpectrumIiE15popSpectrumFastEiPS0_>:
  40c710:	41 57                	push   %r15
  40c712:	41 56                	push   %r14
  40c714:	41 89 f6             	mov    %esi,%r14d
  40c717:	41 55                	push   %r13
  40c719:	41 54                	push   %r12
  40c71b:	55                   	push   %rbp
  40c71c:	48 89 d5             	mov    %rdx,%rbp
  40c71f:	53                   	push   %rbx
  40c720:	48 89 fb             	mov    %rdi,%rbx
  40c723:	48 83 ec 18          	sub    $0x18,%rsp
  40c727:	e8 b4 ea ff ff       	callq  40b1e0 <_ZN15Array2DSpectrumIiE15getChannelCountEv>
  40c72c:	4c 63 f8             	movslq %eax,%r15
  40c72f:	41 89 c4             	mov    %eax,%r12d
  40c732:	4a 8d 04 bd 00 00 00 	lea    0x0(,%r15,4),%rax
  40c739:	00 
  40c73a:	45 31 ff             	xor    %r15d,%r15d
  40c73d:	45 85 f6             	test   %r14d,%r14d
  40c740:	48 89 44 24 08       	mov    %rax,0x8(%rsp)
  40c745:	7e 58                	jle    40c79f <_ZN23CircularArray2DSpectrumIiE15popSpectrumFastEiPS0_+0x8f>
  40c747:	66 0f 1f 84 00 00 00 	nopw   0x0(%rax,%rax,1)
  40c74e:	00 00 
  40c750:	48 89 df             	mov    %rbx,%rdi
  40c753:	41 83 c7 01          	add    $0x1,%r15d
  40c757:	e8 d4 fc ff ff       	callq  40c430 <_ZN23CircularArray2DSpectrumIiE18incrementReadIndexEv>
  40c75c:	48 89 ef             	mov    %rbp,%rdi
  40c75f:	e8 7c fe ff ff       	callq  40c5e0 <_ZN23CircularArray2DSpectrumIiE26getCurrentSampleWriteIndexEv>
  40c764:	41 0f af c4          	imul   %r12d,%eax
  40c768:	48 89 df             	mov    %rbx,%rdi
  40c76b:	4c 63 e8             	movslq %eax,%r13
  40c76e:	e8 0d ff ff ff       	callq  40c680 <_ZN23CircularArray2DSpectrumIiE25getCurrentSampleReadIndexEv>
  40c773:	48 8b 55 00          	mov    0x0(%rbp),%rdx
  40c777:	41 0f af c4          	imul   %r12d,%eax
  40c77b:	4a 8d 3c aa          	lea    (%rdx,%r13,4),%rdi
  40c77f:	48 8b 13             	mov    (%rbx),%rdx
  40c782:	48 98                	cltq   
  40c784:	48 8d 34 82          	lea    (%rdx,%rax,4),%rsi
  40c788:	48 8b 54 24 08       	mov    0x8(%rsp),%rdx
  40c78d:	e8 2e 88 ff ff       	callq  404fc0 <memcpy@plt>
  40c792:	48 89 ef             	mov    %rbp,%rdi
  40c795:	e8 76 fd ff ff       	callq  40c510 <_ZN23CircularArray2DSpectrumIiE19incrementWriteIndexEv>
  40c79a:	45 39 f7             	cmp    %r14d,%r15d
  40c79d:	75 b1                	jne    40c750 <_ZN23CircularArray2DSpectrumIiE15popSpectrumFastEiPS0_+0x40>
  40c79f:	48 83 c4 18          	add    $0x18,%rsp
  40c7a3:	5b                   	pop    %rbx
  40c7a4:	5d                   	pop    %rbp
  40c7a5:	41 5c                	pop    %r12
  40c7a7:	41 5d                	pop    %r13
  40c7a9:	41 5e                	pop    %r14
  40c7ab:	41 5f                	pop    %r15
  40c7ad:	c3                   	retq   
  40c7ae:	66 90                	xchg   %ax,%ax

000000000040c7b0 <_ZN23CircularArray2DSpectrumIiE26setCurrentSampleWriteIndexEi>:
  40c7b0:	89 77 20             	mov    %esi,0x20(%rdi)
  40c7b3:	c3                   	retq   
  40c7b4:	66 2e 0f 1f 84 00 00 	nopw   %cs:0x0(%rax,%rax,1)
  40c7bb:	00 00 00 
  40c7be:	66 90                	xchg   %ax,%ax

000000000040c7c0 <_ZN23CircularArray2DSpectrumIiE14getRefillCountEv>:
  40c7c0:	8b 47 28             	mov    0x28(%rdi),%eax
  40c7c3:	c3                   	retq   
  40c7c4:	66 2e 0f 1f 84 00 00 	nopw   %cs:0x0(%rax,%rax,1)
  40c7cb:	00 00 00 
  40c7ce:	66 90                	xchg   %ax,%ax

000000000040c7d0 <_ZN23CircularArray2DSpectrumIfEC1Ev>:
  40c7d0:	55                   	push   %rbp
  40c7d1:	53                   	push   %rbx
  40c7d2:	48 89 fb             	mov    %rdi,%rbx
  40c7d5:	48 83 ec 08          	sub    $0x8,%rsp
  40c7d9:	e8 02 ef ff ff       	callq  40b6e0 <_ZN15Array2DSpectrumIfEC1Ev>
  40c7de:	c7 43 20 00 00 00 00 	movl   $0x0,0x20(%rbx)
  40c7e5:	48 89 df             	mov    %rbx,%rdi
  40c7e8:	e8 03 f0 ff ff       	callq  40b7f0 <_ZN15Array2DSpectrumIfE14getSampleCountEv>
  40c7ed:	83 e8 01             	sub    $0x1,%eax
  40c7f0:	c7 43 28 00 00 00 00 	movl   $0x0,0x28(%rbx)
  40c7f7:	89 43 24             	mov    %eax,0x24(%rbx)
  40c7fa:	48 83 c4 08          	add    $0x8,%rsp
  40c7fe:	5b                   	pop    %rbx
  40c7ff:	5d                   	pop    %rbp
  40c800:	c3                   	retq   
  40c801:	48 89 c5             	mov    %rax,%rbp
  40c804:	48 89 df             	mov    %rbx,%rdi
  40c807:	e8 94 ef ff ff       	callq  40b7a0 <_ZN15Array2DSpectrumIfED1Ev>
  40c80c:	48 89 ef             	mov    %rbp,%rdi
  40c80f:	e8 0c 8d ff ff       	callq  405520 <_Unwind_Resume@plt>
  40c814:	66 2e 0f 1f 84 00 00 	nopw   %cs:0x0(%rax,%rax,1)
  40c81b:	00 00 00 
  40c81e:	66 90                	xchg   %ax,%ax

000000000040c820 <_ZN23CircularArray2DSpectrumIfEC1Eii>:
  40c820:	55                   	push   %rbp
  40c821:	53                   	push   %rbx
  40c822:	48 89 fb             	mov    %rdi,%rbx
  40c825:	48 83 ec 08          	sub    $0x8,%rsp
  40c829:	e8 e2 ee ff ff       	callq  40b710 <_ZN15Array2DSpectrumIfEC1Eii>
  40c82e:	c7 43 20 00 00 00 00 	movl   $0x0,0x20(%rbx)
  40c835:	48 89 df             	mov    %rbx,%rdi
  40c838:	e8 b3 ef ff ff       	callq  40b7f0 <_ZN15Array2DSpectrumIfE14getSampleCountEv>
  40c83d:	83 e8 01             	sub    $0x1,%eax
  40c840:	c7 43 28 00 00 00 00 	movl   $0x0,0x28(%rbx)
  40c847:	89 43 24             	mov    %eax,0x24(%rbx)
  40c84a:	48 83 c4 08          	add    $0x8,%rsp
  40c84e:	5b                   	pop    %rbx
  40c84f:	5d                   	pop    %rbp
  40c850:	c3                   	retq   
  40c851:	48 89 c5             	mov    %rax,%rbp
  40c854:	48 89 df             	mov    %rbx,%rdi
  40c857:	e8 44 ef ff ff       	callq  40b7a0 <_ZN15Array2DSpectrumIfED1Ev>
  40c85c:	48 89 ef             	mov    %rbp,%rdi
  40c85f:	e8 bc 8c ff ff       	callq  405520 <_Unwind_Resume@plt>
  40c864:	66 2e 0f 1f 84 00 00 	nopw   %cs:0x0(%rax,%rax,1)
  40c86b:	00 00 00 
  40c86e:	66 90                	xchg   %ax,%ax

000000000040c870 <_ZN23CircularArray2DSpectrumIfED1Ev>:
  40c870:	55                   	push   %rbp
  40c871:	53                   	push   %rbx
  40c872:	48 89 fb             	mov    %rdi,%rbx
  40c875:	48 83 ec 08          	sub    $0x8,%rsp
  40c879:	c7 47 20 00 00 00 00 	movl   $0x0,0x20(%rdi)
  40c880:	e8 6b ef ff ff       	callq  40b7f0 <_ZN15Array2DSpectrumIfE14getSampleCountEv>
  40c885:	83 e8 01             	sub    $0x1,%eax
  40c888:	c7 43 28 00 00 00 00 	movl   $0x0,0x28(%rbx)
  40c88f:	48 89 df             	mov    %rbx,%rdi
  40c892:	89 43 24             	mov    %eax,0x24(%rbx)
  40c895:	48 83 c4 08          	add    $0x8,%rsp
  40c899:	5b                   	pop    %rbx
  40c89a:	5d                   	pop    %rbp
  40c89b:	e9 00 ef ff ff       	jmpq   40b7a0 <_ZN15Array2DSpectrumIfED1Ev>
  40c8a0:	48 89 c5             	mov    %rax,%rbp
  40c8a3:	48 89 df             	mov    %rbx,%rdi
  40c8a6:	e8 f5 ee ff ff       	callq  40b7a0 <_ZN15Array2DSpectrumIfED1Ev>
  40c8ab:	48 89 ef             	mov    %rbp,%rdi
  40c8ae:	e8 6d 8c ff ff       	callq  405520 <_Unwind_Resume@plt>
  40c8b3:	66 2e 0f 1f 84 00 00 	nopw   %cs:0x0(%rax,%rax,1)
  40c8ba:	00 00 00 
  40c8bd:	0f 1f 00             	nopl   (%rax)

000000000040c8c0 <_ZN23CircularArray2DSpectrumIfE18incrementReadIndexEv>:
  40c8c0:	55                   	push   %rbp
  40c8c1:	53                   	push   %rbx
  40c8c2:	48 89 fb             	mov    %rdi,%rbx
  40c8c5:	48 83 ec 08          	sub    $0x8,%rsp
  40c8c9:	8b 6f 24             	mov    0x24(%rdi),%ebp
  40c8cc:	e8 1f ef ff ff       	callq  40b7f0 <_ZN15Array2DSpectrumIfE14getSampleCountEv>
  40c8d1:	83 e8 01             	sub    $0x1,%eax
  40c8d4:	39 c5                	cmp    %eax,%ebp
  40c8d6:	7d 10                	jge    40c8e8 <_ZN23CircularArray2DSpectrumIfE18incrementReadIndexEv+0x28>
  40c8d8:	83 43 24 01          	addl   $0x1,0x24(%rbx)
  40c8dc:	48 83 c4 08          	add    $0x8,%rsp
  40c8e0:	5b                   	pop    %rbx
  40c8e1:	5d                   	pop    %rbp
  40c8e2:	c3                   	retq   
  40c8e3:	0f 1f 44 00 00       	nopl   0x0(%rax,%rax,1)
  40c8e8:	c7 43 24 00 00 00 00 	movl   $0x0,0x24(%rbx)
  40c8ef:	48 83 c4 08          	add    $0x8,%rsp
  40c8f3:	5b                   	pop    %rbx
  40c8f4:	5d                   	pop    %rbp
  40c8f5:	c3                   	retq   
  40c8f6:	66 2e 0f 1f 84 00 00 	nopw   %cs:0x0(%rax,%rax,1)
  40c8fd:	00 00 00 

000000000040c900 <_ZN23CircularArray2DSpectrumIfE9popSampleEv>:
  40c900:	53                   	push   %rbx
  40c901:	48 89 fb             	mov    %rdi,%rbx
  40c904:	e8 b7 ff ff ff       	callq  40c8c0 <_ZN23CircularArray2DSpectrumIfE18incrementReadIndexEv>
  40c909:	8b 73 24             	mov    0x24(%rbx),%esi
  40c90c:	48 89 df             	mov    %rbx,%rdi
  40c90f:	5b                   	pop    %rbx
  40c910:	e9 0b f0 ff ff       	jmpq   40b920 <_ZN15Array2DSpectrumIfE20getChannelsForSampleEi>
  40c915:	66 2e 0f 1f 84 00 00 	nopw   %cs:0x0(%rax,%rax,1)
  40c91c:	00 00 00 
  40c91f:	90                   	nop

000000000040c920 <_ZN23CircularArray2DSpectrumIfE11popSpectrumEiP15Array2DSpectrumIfE>:
  40c920:	41 55                	push   %r13
  40c922:	49 89 fd             	mov    %rdi,%r13
  40c925:	41 54                	push   %r12
  40c927:	49 89 d4             	mov    %rdx,%r12
  40c92a:	55                   	push   %rbp
  40c92b:	89 f5                	mov    %esi,%ebp
  40c92d:	53                   	push   %rbx
  40c92e:	31 db                	xor    %ebx,%ebx
  40c930:	48 83 ec 08          	sub    $0x8,%rsp
  40c934:	85 f6                	test   %esi,%esi
  40c936:	7e 24                	jle    40c95c <_ZN23CircularArray2DSpectrumIfE11popSpectrumEiP15Array2DSpectrumIfE+0x3c>
  40c938:	0f 1f 84 00 00 00 00 	nopl   0x0(%rax,%rax,1)
  40c93f:	00 
  40c940:	4c 89 ef             	mov    %r13,%rdi
  40c943:	e8 b8 ff ff ff       	callq  40c900 <_ZN23CircularArray2DSpectrumIfE9popSampleEv>
  40c948:	89 de                	mov    %ebx,%esi
  40c94a:	48 89 c2             	mov    %rax,%rdx
  40c94d:	4c 89 e7             	mov    %r12,%rdi
  40c950:	83 c3 01             	add    $0x1,%ebx
  40c953:	e8 a8 f1 ff ff       	callq  40bb00 <_ZN15Array2DSpectrumIfE9setSampleEiPf>
  40c958:	39 eb                	cmp    %ebp,%ebx
  40c95a:	75 e4                	jne    40c940 <_ZN23CircularArray2DSpectrumIfE11popSpectrumEiP15Array2DSpectrumIfE+0x20>
  40c95c:	48 83 c4 08          	add    $0x8,%rsp
  40c960:	5b                   	pop    %rbx
  40c961:	5d                   	pop    %rbp
  40c962:	41 5c                	pop    %r12
  40c964:	41 5d                	pop    %r13
  40c966:	c3                   	retq   
  40c967:	66 0f 1f 84 00 00 00 	nopw   0x0(%rax,%rax,1)
  40c96e:	00 00 

000000000040c970 <_ZN23CircularArray2DSpectrumIfE18decrementReadIndexEv>:
  40c970:	8b 47 24             	mov    0x24(%rdi),%eax
  40c973:	53                   	push   %rbx
  40c974:	48 89 fb             	mov    %rdi,%rbx
  40c977:	85 c0                	test   %eax,%eax
  40c979:	7e 0d                	jle    40c988 <_ZN23CircularArray2DSpectrumIfE18decrementReadIndexEv+0x18>
  40c97b:	83 e8 01             	sub    $0x1,%eax
  40c97e:	89 43 24             	mov    %eax,0x24(%rbx)
  40c981:	5b                   	pop    %rbx
  40c982:	c3                   	retq   
  40c983:	0f 1f 44 00 00       	nopl   0x0(%rax,%rax,1)
  40c988:	e8 63 ee ff ff       	callq  40b7f0 <_ZN15Array2DSpectrumIfE14getSampleCountEv>
  40c98d:	83 e8 01             	sub    $0x1,%eax
  40c990:	89 43 24             	mov    %eax,0x24(%rbx)
  40c993:	5b                   	pop    %rbx
  40c994:	c3                   	retq   
  40c995:	66 2e 0f 1f 84 00 00 	nopw   %cs:0x0(%rax,%rax,1)
  40c99c:	00 00 00 
  40c99f:	90                   	nop

000000000040c9a0 <_ZN23CircularArray2DSpectrumIfE19incrementWriteIndexEv>:
  40c9a0:	55                   	push   %rbp
  40c9a1:	53                   	push   %rbx
  40c9a2:	48 89 fb             	mov    %rdi,%rbx
  40c9a5:	48 83 ec 08          	sub    $0x8,%rsp
  40c9a9:	8b 6f 20             	mov    0x20(%rdi),%ebp
  40c9ac:	e8 3f ee ff ff       	callq  40b7f0 <_ZN15Array2DSpectrumIfE14getSampleCountEv>
  40c9b1:	83 e8 01             	sub    $0x1,%eax
  40c9b4:	39 c5                	cmp    %eax,%ebp
  40c9b6:	7d 10                	jge    40c9c8 <_ZN23CircularArray2DSpectrumIfE19incrementWriteIndexEv+0x28>
  40c9b8:	83 43 20 01          	addl   $0x1,0x20(%rbx)
  40c9bc:	48 83 c4 08          	add    $0x8,%rsp
  40c9c0:	5b                   	pop    %rbx
  40c9c1:	5d                   	pop    %rbp
  40c9c2:	c3                   	retq   
  40c9c3:	0f 1f 44 00 00       	nopl   0x0(%rax,%rax,1)
  40c9c8:	c7 43 20 00 00 00 00 	movl   $0x0,0x20(%rbx)
  40c9cf:	83 43 28 01          	addl   $0x1,0x28(%rbx)
  40c9d3:	48 83 c4 08          	add    $0x8,%rsp
  40c9d7:	5b                   	pop    %rbx
  40c9d8:	5d                   	pop    %rbp
  40c9d9:	c3                   	retq   
  40c9da:	66 0f 1f 44 00 00    	nopw   0x0(%rax,%rax,1)

000000000040c9e0 <_ZN23CircularArray2DSpectrumIfE10pushSampleEPf>:
  40c9e0:	53                   	push   %rbx
  40c9e1:	48 89 f2             	mov    %rsi,%rdx
  40c9e4:	8b 77 20             	mov    0x20(%rdi),%esi
  40c9e7:	48 89 fb             	mov    %rdi,%rbx
  40c9ea:	e8 11 f1 ff ff       	callq  40bb00 <_ZN15Array2DSpectrumIfE9setSampleEiPf>
  40c9ef:	48 89 df             	mov    %rbx,%rdi
  40c9f2:	5b                   	pop    %rbx
  40c9f3:	e9 a8 ff ff ff       	jmpq   40c9a0 <_ZN23CircularArray2DSpectrumIfE19incrementWriteIndexEv>
  40c9f8:	0f 1f 84 00 00 00 00 	nopl   0x0(%rax,%rax,1)
  40c9ff:	00 

000000000040ca00 <_ZN23CircularArray2DSpectrumIfE12pushSpectrumE15Array2DSpectrumIfE>:
  40ca00:	41 54                	push   %r12
  40ca02:	49 89 fc             	mov    %rdi,%r12
  40ca05:	55                   	push   %rbp
  40ca06:	48 89 f5             	mov    %rsi,%rbp
  40ca09:	53                   	push   %rbx
  40ca0a:	31 db                	xor    %ebx,%ebx
  40ca0c:	eb 1a                	jmp    40ca28 <_ZN23CircularArray2DSpectrumIfE12pushSpectrumE15Array2DSpectrumIfE+0x28>
  40ca0e:	66 90                	xchg   %ax,%ax
  40ca10:	89 de                	mov    %ebx,%esi
  40ca12:	48 89 ef             	mov    %rbp,%rdi
  40ca15:	83 c3 01             	add    $0x1,%ebx
  40ca18:	e8 03 ef ff ff       	callq  40b920 <_ZN15Array2DSpectrumIfE20getChannelsForSampleEi>
  40ca1d:	4c 89 e7             	mov    %r12,%rdi
  40ca20:	48 89 c6             	mov    %rax,%rsi
  40ca23:	e8 b8 ff ff ff       	callq  40c9e0 <_ZN23CircularArray2DSpectrumIfE10pushSampleEPf>
  40ca28:	48 89 ef             	mov    %rbp,%rdi
  40ca2b:	e8 c0 ed ff ff       	callq  40b7f0 <_ZN15Array2DSpectrumIfE14getSampleCountEv>
  40ca30:	39 c3                	cmp    %eax,%ebx
  40ca32:	7c dc                	jl     40ca10 <_ZN23CircularArray2DSpectrumIfE12pushSpectrumE15Array2DSpectrumIfE+0x10>
  40ca34:	5b                   	pop    %rbx
  40ca35:	5d                   	pop    %rbp
  40ca36:	41 5c                	pop    %r12
  40ca38:	c3                   	retq   
  40ca39:	0f 1f 80 00 00 00 00 	nopl   0x0(%rax)

000000000040ca40 <_ZN23CircularArray2DSpectrumIfE19decrementWriteIndexEv>:
  40ca40:	8b 47 20             	mov    0x20(%rdi),%eax
  40ca43:	53                   	push   %rbx
  40ca44:	48 89 fb             	mov    %rdi,%rbx
  40ca47:	85 c0                	test   %eax,%eax
  40ca49:	7e 0d                	jle    40ca58 <_ZN23CircularArray2DSpectrumIfE19decrementWriteIndexEv+0x18>
  40ca4b:	83 e8 01             	sub    $0x1,%eax
  40ca4e:	89 43 20             	mov    %eax,0x20(%rbx)
  40ca51:	5b                   	pop    %rbx
  40ca52:	c3                   	retq   
  40ca53:	0f 1f 44 00 00       	nopl   0x0(%rax,%rax,1)
  40ca58:	e8 93 ed ff ff       	callq  40b7f0 <_ZN15Array2DSpectrumIfE14getSampleCountEv>
  40ca5d:	83 e8 01             	sub    $0x1,%eax
  40ca60:	89 43 20             	mov    %eax,0x20(%rbx)
  40ca63:	5b                   	pop    %rbx
  40ca64:	c3                   	retq   
  40ca65:	66 2e 0f 1f 84 00 00 	nopw   %cs:0x0(%rax,%rax,1)
  40ca6c:	00 00 00 
  40ca6f:	90                   	nop

000000000040ca70 <_ZN23CircularArray2DSpectrumIfE26getCurrentSampleWriteIndexEv>:
  40ca70:	8b 47 20             	mov    0x20(%rdi),%eax
  40ca73:	c3                   	retq   
  40ca74:	66 2e 0f 1f 84 00 00 	nopw   %cs:0x0(%rax,%rax,1)
  40ca7b:	00 00 00 
  40ca7e:	66 90                	xchg   %ax,%ax

000000000040ca80 <_ZN23CircularArray2DSpectrumIfE16pushSpectrumFastEiP15Array2DSpectrumIfE>:
  40ca80:	41 57                	push   %r15
  40ca82:	41 56                	push   %r14
  40ca84:	49 89 d6             	mov    %rdx,%r14
  40ca87:	41 55                	push   %r13
  40ca89:	41 89 f5             	mov    %esi,%r13d
  40ca8c:	41 54                	push   %r12
  40ca8e:	55                   	push   %rbp
  40ca8f:	53                   	push   %rbx
  40ca90:	48 89 fb             	mov    %rdi,%rbx
  40ca93:	48 89 d7             	mov    %rdx,%rdi
  40ca96:	48 83 ec 18          	sub    $0x18,%rsp
  40ca9a:	e8 41 ed ff ff       	callq  40b7e0 <_ZN15Array2DSpectrumIfE15getChannelCountEv>
  40ca9f:	45 85 ed             	test   %r13d,%r13d
  40caa2:	89 44 24 0c          	mov    %eax,0xc(%rsp)
  40caa6:	7e 48                	jle    40caf0 <_ZN23CircularArray2DSpectrumIfE16pushSpectrumFastEiP15Array2DSpectrumIfE+0x70>
  40caa8:	4c 63 e0             	movslq %eax,%r12
  40caab:	31 ed                	xor    %ebp,%ebp
  40caad:	45 31 ff             	xor    %r15d,%r15d
  40cab0:	49 c1 e4 02          	shl    $0x2,%r12
  40cab4:	0f 1f 40 00          	nopl   0x0(%rax)
  40cab8:	48 89 df             	mov    %rbx,%rdi
  40cabb:	41 83 c7 01          	add    $0x1,%r15d
  40cabf:	e8 ac ff ff ff       	callq  40ca70 <_ZN23CircularArray2DSpectrumIfE26getCurrentSampleWriteIndexEv>
  40cac4:	0f af 44 24 0c       	imul   0xc(%rsp),%eax
  40cac9:	48 8b 13             	mov    (%rbx),%rdx
  40cacc:	48 89 ee             	mov    %rbp,%rsi
  40cacf:	49 03 36             	add    (%r14),%rsi
  40cad2:	4c 01 e5             	add    %r12,%rbp
  40cad5:	48 98                	cltq   
  40cad7:	48 8d 3c 82          	lea    (%rdx,%rax,4),%rdi
  40cadb:	4c 89 e2             	mov    %r12,%rdx
  40cade:	e8 dd 84 ff ff       	callq  404fc0 <memcpy@plt>
  40cae3:	48 89 df             	mov    %rbx,%rdi
  40cae6:	e8 b5 fe ff ff       	callq  40c9a0 <_ZN23CircularArray2DSpectrumIfE19incrementWriteIndexEv>
  40caeb:	45 39 ef             	cmp    %r13d,%r15d
  40caee:	75 c8                	jne    40cab8 <_ZN23CircularArray2DSpectrumIfE16pushSpectrumFastEiP15Array2DSpectrumIfE+0x38>
  40caf0:	48 83 c4 18          	add    $0x18,%rsp
  40caf4:	5b                   	pop    %rbx
  40caf5:	5d                   	pop    %rbp
  40caf6:	41 5c                	pop    %r12
  40caf8:	41 5d                	pop    %r13
  40cafa:	41 5e                	pop    %r14
  40cafc:	41 5f                	pop    %r15
  40cafe:	c3                   	retq   
  40caff:	90                   	nop

000000000040cb00 <_ZN23CircularArray2DSpectrumIfE25setCurrentSampleReadIndexEi>:
  40cb00:	89 77 24             	mov    %esi,0x24(%rdi)
  40cb03:	c3                   	retq   
  40cb04:	66 2e 0f 1f 84 00 00 	nopw   %cs:0x0(%rax,%rax,1)
  40cb0b:	00 00 00 
  40cb0e:	66 90                	xchg   %ax,%ax

000000000040cb10 <_ZN23CircularArray2DSpectrumIfE25getCurrentSampleReadIndexEv>:
  40cb10:	8b 47 24             	mov    0x24(%rdi),%eax
  40cb13:	c3                   	retq   
  40cb14:	66 2e 0f 1f 84 00 00 	nopw   %cs:0x0(%rax,%rax,1)
  40cb1b:	00 00 00 
  40cb1e:	66 90                	xchg   %ax,%ax

000000000040cb20 <_ZN23CircularArray2DSpectrumIfE15popSpectrumFastEiP15Array2DSpectrumIfE>:
  40cb20:	41 57                	push   %r15
  40cb22:	49 89 d7             	mov    %rdx,%r15
  40cb25:	41 56                	push   %r14
  40cb27:	41 55                	push   %r13
  40cb29:	41 89 f5             	mov    %esi,%r13d
  40cb2c:	41 54                	push   %r12
  40cb2e:	55                   	push   %rbp
  40cb2f:	53                   	push   %rbx
  40cb30:	48 89 fb             	mov    %rdi,%rbx
  40cb33:	48 83 ec 18          	sub    $0x18,%rsp
  40cb37:	e8 a4 ec ff ff       	callq  40b7e0 <_ZN15Array2DSpectrumIfE15getChannelCountEv>
  40cb3c:	45 85 ed             	test   %r13d,%r13d
  40cb3f:	89 44 24 0c          	mov    %eax,0xc(%rsp)
  40cb43:	7e 4b                	jle    40cb90 <_ZN23CircularArray2DSpectrumIfE15popSpectrumFastEiP15Array2DSpectrumIfE+0x70>
  40cb45:	4c 63 e0             	movslq %eax,%r12
  40cb48:	31 ed                	xor    %ebp,%ebp
  40cb4a:	45 31 f6             	xor    %r14d,%r14d
  40cb4d:	49 c1 e4 02          	shl    $0x2,%r12
  40cb51:	0f 1f 80 00 00 00 00 	nopl   0x0(%rax)
  40cb58:	48 89 df             	mov    %rbx,%rdi
  40cb5b:	41 83 c6 01          	add    $0x1,%r14d
  40cb5f:	e8 5c fd ff ff       	callq  40c8c0 <_ZN23CircularArray2DSpectrumIfE18incrementReadIndexEv>
  40cb64:	48 89 df             	mov    %rbx,%rdi
  40cb67:	e8 a4 ff ff ff       	callq  40cb10 <_ZN23CircularArray2DSpectrumIfE25getCurrentSampleReadIndexEv>
  40cb6c:	0f af 44 24 0c       	imul   0xc(%rsp),%eax
  40cb71:	48 8b 13             	mov    (%rbx),%rdx
  40cb74:	48 89 ef             	mov    %rbp,%rdi
  40cb77:	49 03 3f             	add    (%r15),%rdi
  40cb7a:	4c 01 e5             	add    %r12,%rbp
  40cb7d:	48 98                	cltq   
  40cb7f:	48 8d 34 82          	lea    (%rdx,%rax,4),%rsi
  40cb83:	4c 89 e2             	mov    %r12,%rdx
  40cb86:	e8 35 84 ff ff       	callq  404fc0 <memcpy@plt>
  40cb8b:	45 39 ee             	cmp    %r13d,%r14d
  40cb8e:	75 c8                	jne    40cb58 <_ZN23CircularArray2DSpectrumIfE15popSpectrumFastEiP15Array2DSpectrumIfE+0x38>
  40cb90:	48 83 c4 18          	add    $0x18,%rsp
  40cb94:	5b                   	pop    %rbx
  40cb95:	5d                   	pop    %rbp
  40cb96:	41 5c                	pop    %r12
  40cb98:	41 5d                	pop    %r13
  40cb9a:	41 5e                	pop    %r14
  40cb9c:	41 5f                	pop    %r15
  40cb9e:	c3                   	retq   
  40cb9f:	90                   	nop

000000000040cba0 <_ZN23CircularArray2DSpectrumIfE15popSpectrumFastEiPS0_>:
  40cba0:	41 57                	push   %r15
  40cba2:	41 56                	push   %r14
  40cba4:	41 89 f6             	mov    %esi,%r14d
  40cba7:	41 55                	push   %r13
  40cba9:	41 54                	push   %r12
  40cbab:	55                   	push   %rbp
  40cbac:	48 89 d5             	mov    %rdx,%rbp
  40cbaf:	53                   	push   %rbx
  40cbb0:	48 89 fb             	mov    %rdi,%rbx
  40cbb3:	48 83 ec 18          	sub    $0x18,%rsp
  40cbb7:	e8 24 ec ff ff       	callq  40b7e0 <_ZN15Array2DSpectrumIfE15getChannelCountEv>
  40cbbc:	4c 63 f8             	movslq %eax,%r15
  40cbbf:	41 89 c4             	mov    %eax,%r12d
  40cbc2:	4a 8d 04 bd 00 00 00 	lea    0x0(,%r15,4),%rax
  40cbc9:	00 
  40cbca:	45 31 ff             	xor    %r15d,%r15d
  40cbcd:	45 85 f6             	test   %r14d,%r14d
  40cbd0:	48 89 44 24 08       	mov    %rax,0x8(%rsp)
  40cbd5:	7e 58                	jle    40cc2f <_ZN23CircularArray2DSpectrumIfE15popSpectrumFastEiPS0_+0x8f>
  40cbd7:	66 0f 1f 84 00 00 00 	nopw   0x0(%rax,%rax,1)
  40cbde:	00 00 
  40cbe0:	48 89 df             	mov    %rbx,%rdi
  40cbe3:	41 83 c7 01          	add    $0x1,%r15d
  40cbe7:	e8 d4 fc ff ff       	callq  40c8c0 <_ZN23CircularArray2DSpectrumIfE18incrementReadIndexEv>
  40cbec:	48 89 ef             	mov    %rbp,%rdi
  40cbef:	e8 7c fe ff ff       	callq  40ca70 <_ZN23CircularArray2DSpectrumIfE26getCurrentSampleWriteIndexEv>
  40cbf4:	41 0f af c4          	imul   %r12d,%eax
  40cbf8:	48 89 df             	mov    %rbx,%rdi
  40cbfb:	4c 63 e8             	movslq %eax,%r13
  40cbfe:	e8 0d ff ff ff       	callq  40cb10 <_ZN23CircularArray2DSpectrumIfE25getCurrentSampleReadIndexEv>
  40cc03:	48 8b 55 00          	mov    0x0(%rbp),%rdx
  40cc07:	41 0f af c4          	imul   %r12d,%eax
  40cc0b:	4a 8d 3c aa          	lea    (%rdx,%r13,4),%rdi
  40cc0f:	48 8b 13             	mov    (%rbx),%rdx
  40cc12:	48 98                	cltq   
  40cc14:	48 8d 34 82          	lea    (%rdx,%rax,4),%rsi
  40cc18:	48 8b 54 24 08       	mov    0x8(%rsp),%rdx
  40cc1d:	e8 9e 83 ff ff       	callq  404fc0 <memcpy@plt>
  40cc22:	48 89 ef             	mov    %rbp,%rdi
  40cc25:	e8 76 fd ff ff       	callq  40c9a0 <_ZN23CircularArray2DSpectrumIfE19incrementWriteIndexEv>
  40cc2a:	45 39 f7             	cmp    %r14d,%r15d
  40cc2d:	75 b1                	jne    40cbe0 <_ZN23CircularArray2DSpectrumIfE15popSpectrumFastEiPS0_+0x40>
  40cc2f:	48 83 c4 18          	add    $0x18,%rsp
  40cc33:	5b                   	pop    %rbx
  40cc34:	5d                   	pop    %rbp
  40cc35:	41 5c                	pop    %r12
  40cc37:	41 5d                	pop    %r13
  40cc39:	41 5e                	pop    %r14
  40cc3b:	41 5f                	pop    %r15
  40cc3d:	c3                   	retq   
  40cc3e:	66 90                	xchg   %ax,%ax

000000000040cc40 <_ZN23CircularArray2DSpectrumIfE26setCurrentSampleWriteIndexEi>:
  40cc40:	89 77 20             	mov    %esi,0x20(%rdi)
  40cc43:	c3                   	retq   
  40cc44:	66 2e 0f 1f 84 00 00 	nopw   %cs:0x0(%rax,%rax,1)
  40cc4b:	00 00 00 
  40cc4e:	66 90                	xchg   %ax,%ax

000000000040cc50 <_ZN23CircularArray2DSpectrumIfE14getRefillCountEv>:
  40cc50:	8b 47 28             	mov    0x28(%rdi),%eax
  40cc53:	c3                   	retq   
  40cc54:	66 2e 0f 1f 84 00 00 	nopw   %cs:0x0(%rax,%rax,1)
  40cc5b:	00 00 00 
  40cc5e:	66 90                	xchg   %ax,%ax

000000000040cc60 <_ZN23CircularArray2DSpectrumIdEC1Ev>:
  40cc60:	55                   	push   %rbp
  40cc61:	53                   	push   %rbx
  40cc62:	48 89 fb             	mov    %rdi,%rbx
  40cc65:	48 83 ec 08          	sub    $0x8,%rsp
  40cc69:	e8 a2 f0 ff ff       	callq  40bd10 <_ZN15Array2DSpectrumIdEC1Ev>
  40cc6e:	c7 43 20 00 00 00 00 	movl   $0x0,0x20(%rbx)
  40cc75:	48 89 df             	mov    %rbx,%rdi
  40cc78:	e8 a3 f1 ff ff       	callq  40be20 <_ZN15Array2DSpectrumIdE14getSampleCountEv>
  40cc7d:	83 e8 01             	sub    $0x1,%eax
  40cc80:	c7 43 28 00 00 00 00 	movl   $0x0,0x28(%rbx)
  40cc87:	89 43 24             	mov    %eax,0x24(%rbx)
  40cc8a:	48 83 c4 08          	add    $0x8,%rsp
  40cc8e:	5b                   	pop    %rbx
  40cc8f:	5d                   	pop    %rbp
  40cc90:	c3                   	retq   
  40cc91:	48 89 c5             	mov    %rax,%rbp
  40cc94:	48 89 df             	mov    %rbx,%rdi
  40cc97:	e8 34 f1 ff ff       	callq  40bdd0 <_ZN15Array2DSpectrumIdED1Ev>
  40cc9c:	48 89 ef             	mov    %rbp,%rdi
  40cc9f:	e8 7c 88 ff ff       	callq  405520 <_Unwind_Resume@plt>
  40cca4:	66 2e 0f 1f 84 00 00 	nopw   %cs:0x0(%rax,%rax,1)
  40ccab:	00 00 00 
  40ccae:	66 90                	xchg   %ax,%ax

000000000040ccb0 <_ZN23CircularArray2DSpectrumIdEC1Eii>:
  40ccb0:	55                   	push   %rbp
  40ccb1:	53                   	push   %rbx
  40ccb2:	48 89 fb             	mov    %rdi,%rbx
  40ccb5:	48 83 ec 08          	sub    $0x8,%rsp
  40ccb9:	e8 82 f0 ff ff       	callq  40bd40 <_ZN15Array2DSpectrumIdEC1Eii>
  40ccbe:	c7 43 20 00 00 00 00 	movl   $0x0,0x20(%rbx)
  40ccc5:	48 89 df             	mov    %rbx,%rdi
  40ccc8:	e8 53 f1 ff ff       	callq  40be20 <_ZN15Array2DSpectrumIdE14getSampleCountEv>
  40cccd:	83 e8 01             	sub    $0x1,%eax
  40ccd0:	c7 43 28 00 00 00 00 	movl   $0x0,0x28(%rbx)
  40ccd7:	89 43 24             	mov    %eax,0x24(%rbx)
  40ccda:	48 83 c4 08          	add    $0x8,%rsp
  40ccde:	5b                   	pop    %rbx
  40ccdf:	5d                   	pop    %rbp
  40cce0:	c3                   	retq   
  40cce1:	48 89 c5             	mov    %rax,%rbp
  40cce4:	48 89 df             	mov    %rbx,%rdi
  40cce7:	e8 e4 f0 ff ff       	callq  40bdd0 <_ZN15Array2DSpectrumIdED1Ev>
  40ccec:	48 89 ef             	mov    %rbp,%rdi
  40ccef:	e8 2c 88 ff ff       	callq  405520 <_Unwind_Resume@plt>
  40ccf4:	66 2e 0f 1f 84 00 00 	nopw   %cs:0x0(%rax,%rax,1)
  40ccfb:	00 00 00 
  40ccfe:	66 90                	xchg   %ax,%ax

000000000040cd00 <_ZN23CircularArray2DSpectrumIdED1Ev>:
  40cd00:	55                   	push   %rbp
  40cd01:	53                   	push   %rbx
  40cd02:	48 89 fb             	mov    %rdi,%rbx
  40cd05:	48 83 ec 08          	sub    $0x8,%rsp
  40cd09:	c7 47 20 00 00 00 00 	movl   $0x0,0x20(%rdi)
  40cd10:	e8 0b f1 ff ff       	callq  40be20 <_ZN15Array2DSpectrumIdE14getSampleCountEv>
  40cd15:	83 e8 01             	sub    $0x1,%eax
  40cd18:	c7 43 28 00 00 00 00 	movl   $0x0,0x28(%rbx)
  40cd1f:	48 89 df             	mov    %rbx,%rdi
  40cd22:	89 43 24             	mov    %eax,0x24(%rbx)
  40cd25:	48 83 c4 08          	add    $0x8,%rsp
  40cd29:	5b                   	pop    %rbx
  40cd2a:	5d                   	pop    %rbp
  40cd2b:	e9 a0 f0 ff ff       	jmpq   40bdd0 <_ZN15Array2DSpectrumIdED1Ev>
  40cd30:	48 89 c5             	mov    %rax,%rbp
  40cd33:	48 89 df             	mov    %rbx,%rdi
  40cd36:	e8 95 f0 ff ff       	callq  40bdd0 <_ZN15Array2DSpectrumIdED1Ev>
  40cd3b:	48 89 ef             	mov    %rbp,%rdi
  40cd3e:	e8 dd 87 ff ff       	callq  405520 <_Unwind_Resume@plt>
  40cd43:	66 2e 0f 1f 84 00 00 	nopw   %cs:0x0(%rax,%rax,1)
  40cd4a:	00 00 00 
  40cd4d:	0f 1f 00             	nopl   (%rax)

000000000040cd50 <_ZN23CircularArray2DSpectrumIdE18incrementReadIndexEv>:
  40cd50:	55                   	push   %rbp
  40cd51:	53                   	push   %rbx
  40cd52:	48 89 fb             	mov    %rdi,%rbx
  40cd55:	48 83 ec 08          	sub    $0x8,%rsp
  40cd59:	8b 6f 24             	mov    0x24(%rdi),%ebp
  40cd5c:	e8 bf f0 ff ff       	callq  40be20 <_ZN15Array2DSpectrumIdE14getSampleCountEv>
  40cd61:	83 e8 01             	sub    $0x1,%eax
  40cd64:	39 c5                	cmp    %eax,%ebp
  40cd66:	7d 10                	jge    40cd78 <_ZN23CircularArray2DSpectrumIdE18incrementReadIndexEv+0x28>
  40cd68:	83 43 24 01          	addl   $0x1,0x24(%rbx)
  40cd6c:	48 83 c4 08          	add    $0x8,%rsp
  40cd70:	5b                   	pop    %rbx
  40cd71:	5d                   	pop    %rbp
  40cd72:	c3                   	retq   
  40cd73:	0f 1f 44 00 00       	nopl   0x0(%rax,%rax,1)
  40cd78:	c7 43 24 00 00 00 00 	movl   $0x0,0x24(%rbx)
  40cd7f:	48 83 c4 08          	add    $0x8,%rsp
  40cd83:	5b                   	pop    %rbx
  40cd84:	5d                   	pop    %rbp
  40cd85:	c3                   	retq   
  40cd86:	66 2e 0f 1f 84 00 00 	nopw   %cs:0x0(%rax,%rax,1)
  40cd8d:	00 00 00 

000000000040cd90 <_ZN23CircularArray2DSpectrumIdE9popSampleEv>:
  40cd90:	53                   	push   %rbx
  40cd91:	48 89 fb             	mov    %rdi,%rbx
  40cd94:	e8 b7 ff ff ff       	callq  40cd50 <_ZN23CircularArray2DSpectrumIdE18incrementReadIndexEv>
  40cd99:	8b 73 24             	mov    0x24(%rbx),%esi
  40cd9c:	48 89 df             	mov    %rbx,%rdi
  40cd9f:	5b                   	pop    %rbx
  40cda0:	e9 ab f1 ff ff       	jmpq   40bf50 <_ZN15Array2DSpectrumIdE20getChannelsForSampleEi>
  40cda5:	66 2e 0f 1f 84 00 00 	nopw   %cs:0x0(%rax,%rax,1)
  40cdac:	00 00 00 
  40cdaf:	90                   	nop

000000000040cdb0 <_ZN23CircularArray2DSpectrumIdE11popSpectrumEiP15Array2DSpectrumIdE>:
  40cdb0:	41 55                	push   %r13
  40cdb2:	49 89 fd             	mov    %rdi,%r13
  40cdb5:	41 54                	push   %r12
  40cdb7:	49 89 d4             	mov    %rdx,%r12
  40cdba:	55                   	push   %rbp
  40cdbb:	89 f5                	mov    %esi,%ebp
  40cdbd:	53                   	push   %rbx
  40cdbe:	31 db                	xor    %ebx,%ebx
  40cdc0:	48 83 ec 08          	sub    $0x8,%rsp
  40cdc4:	85 f6                	test   %esi,%esi
  40cdc6:	7e 24                	jle    40cdec <_ZN23CircularArray2DSpectrumIdE11popSpectrumEiP15Array2DSpectrumIdE+0x3c>
  40cdc8:	0f 1f 84 00 00 00 00 	nopl   0x0(%rax,%rax,1)
  40cdcf:	00 
  40cdd0:	4c 89 ef             	mov    %r13,%rdi
  40cdd3:	e8 b8 ff ff ff       	callq  40cd90 <_ZN23CircularArray2DSpectrumIdE9popSampleEv>
  40cdd8:	89 de                	mov    %ebx,%esi
  40cdda:	48 89 c2             	mov    %rax,%rdx
  40cddd:	4c 89 e7             	mov    %r12,%rdi
  40cde0:	83 c3 01             	add    $0x1,%ebx
  40cde3:	e8 48 f3 ff ff       	callq  40c130 <_ZN15Array2DSpectrumIdE9setSampleEiPd>
  40cde8:	39 eb                	cmp    %ebp,%ebx
  40cdea:	75 e4                	jne    40cdd0 <_ZN23CircularArray2DSpectrumIdE11popSpectrumEiP15Array2DSpectrumIdE+0x20>
  40cdec:	48 83 c4 08          	add    $0x8,%rsp
  40cdf0:	5b                   	pop    %rbx
  40cdf1:	5d                   	pop    %rbp
  40cdf2:	41 5c                	pop    %r12
  40cdf4:	41 5d                	pop    %r13
  40cdf6:	c3                   	retq   
  40cdf7:	66 0f 1f 84 00 00 00 	nopw   0x0(%rax,%rax,1)
  40cdfe:	00 00 

000000000040ce00 <_ZN23CircularArray2DSpectrumIdE18decrementReadIndexEv>:
  40ce00:	8b 47 24             	mov    0x24(%rdi),%eax
  40ce03:	53                   	push   %rbx
  40ce04:	48 89 fb             	mov    %rdi,%rbx
  40ce07:	85 c0                	test   %eax,%eax
  40ce09:	7e 0d                	jle    40ce18 <_ZN23CircularArray2DSpectrumIdE18decrementReadIndexEv+0x18>
  40ce0b:	83 e8 01             	sub    $0x1,%eax
  40ce0e:	89 43 24             	mov    %eax,0x24(%rbx)
  40ce11:	5b                   	pop    %rbx
  40ce12:	c3                   	retq   
  40ce13:	0f 1f 44 00 00       	nopl   0x0(%rax,%rax,1)
  40ce18:	e8 03 f0 ff ff       	callq  40be20 <_ZN15Array2DSpectrumIdE14getSampleCountEv>
  40ce1d:	83 e8 01             	sub    $0x1,%eax
  40ce20:	89 43 24             	mov    %eax,0x24(%rbx)
  40ce23:	5b                   	pop    %rbx
  40ce24:	c3                   	retq   
  40ce25:	66 2e 0f 1f 84 00 00 	nopw   %cs:0x0(%rax,%rax,1)
  40ce2c:	00 00 00 
  40ce2f:	90                   	nop

000000000040ce30 <_ZN23CircularArray2DSpectrumIdE19incrementWriteIndexEv>:
  40ce30:	55                   	push   %rbp
  40ce31:	53                   	push   %rbx
  40ce32:	48 89 fb             	mov    %rdi,%rbx
  40ce35:	48 83 ec 08          	sub    $0x8,%rsp
  40ce39:	8b 6f 20             	mov    0x20(%rdi),%ebp
  40ce3c:	e8 df ef ff ff       	callq  40be20 <_ZN15Array2DSpectrumIdE14getSampleCountEv>
  40ce41:	83 e8 01             	sub    $0x1,%eax
  40ce44:	39 c5                	cmp    %eax,%ebp
  40ce46:	7d 10                	jge    40ce58 <_ZN23CircularArray2DSpectrumIdE19incrementWriteIndexEv+0x28>
  40ce48:	83 43 20 01          	addl   $0x1,0x20(%rbx)
  40ce4c:	48 83 c4 08          	add    $0x8,%rsp
  40ce50:	5b                   	pop    %rbx
  40ce51:	5d                   	pop    %rbp
  40ce52:	c3                   	retq   
  40ce53:	0f 1f 44 00 00       	nopl   0x0(%rax,%rax,1)
  40ce58:	c7 43 20 00 00 00 00 	movl   $0x0,0x20(%rbx)
  40ce5f:	83 43 28 01          	addl   $0x1,0x28(%rbx)
  40ce63:	48 83 c4 08          	add    $0x8,%rsp
  40ce67:	5b                   	pop    %rbx
  40ce68:	5d                   	pop    %rbp
  40ce69:	c3                   	retq   
  40ce6a:	66 0f 1f 44 00 00    	nopw   0x0(%rax,%rax,1)

000000000040ce70 <_ZN23CircularArray2DSpectrumIdE10pushSampleEPd>:
  40ce70:	53                   	push   %rbx
  40ce71:	48 89 f2             	mov    %rsi,%rdx
  40ce74:	8b 77 20             	mov    0x20(%rdi),%esi
  40ce77:	48 89 fb             	mov    %rdi,%rbx
  40ce7a:	e8 b1 f2 ff ff       	callq  40c130 <_ZN15Array2DSpectrumIdE9setSampleEiPd>
  40ce7f:	48 89 df             	mov    %rbx,%rdi
  40ce82:	5b                   	pop    %rbx
  40ce83:	e9 a8 ff ff ff       	jmpq   40ce30 <_ZN23CircularArray2DSpectrumIdE19incrementWriteIndexEv>
  40ce88:	0f 1f 84 00 00 00 00 	nopl   0x0(%rax,%rax,1)
  40ce8f:	00 

000000000040ce90 <_ZN23CircularArray2DSpectrumIdE12pushSpectrumE15Array2DSpectrumIdE>:
  40ce90:	41 54                	push   %r12
  40ce92:	49 89 fc             	mov    %rdi,%r12
  40ce95:	55                   	push   %rbp
  40ce96:	48 89 f5             	mov    %rsi,%rbp
  40ce99:	53                   	push   %rbx
  40ce9a:	31 db                	xor    %ebx,%ebx
  40ce9c:	eb 1a                	jmp    40ceb8 <_ZN23CircularArray2DSpectrumIdE12pushSpectrumE15Array2DSpectrumIdE+0x28>
  40ce9e:	66 90                	xchg   %ax,%ax
  40cea0:	89 de                	mov    %ebx,%esi
  40cea2:	48 89 ef             	mov    %rbp,%rdi
  40cea5:	83 c3 01             	add    $0x1,%ebx
  40cea8:	e8 a3 f0 ff ff       	callq  40bf50 <_ZN15Array2DSpectrumIdE20getChannelsForSampleEi>
  40cead:	4c 89 e7             	mov    %r12,%rdi
  40ceb0:	48 89 c6             	mov    %rax,%rsi
  40ceb3:	e8 b8 ff ff ff       	callq  40ce70 <_ZN23CircularArray2DSpectrumIdE10pushSampleEPd>
  40ceb8:	48 89 ef             	mov    %rbp,%rdi
  40cebb:	e8 60 ef ff ff       	callq  40be20 <_ZN15Array2DSpectrumIdE14getSampleCountEv>
  40cec0:	39 c3                	cmp    %eax,%ebx
  40cec2:	7c dc                	jl     40cea0 <_ZN23CircularArray2DSpectrumIdE12pushSpectrumE15Array2DSpectrumIdE+0x10>
  40cec4:	5b                   	pop    %rbx
  40cec5:	5d                   	pop    %rbp
  40cec6:	41 5c                	pop    %r12
  40cec8:	c3                   	retq   
  40cec9:	0f 1f 80 00 00 00 00 	nopl   0x0(%rax)

000000000040ced0 <_ZN23CircularArray2DSpectrumIdE19decrementWriteIndexEv>:
  40ced0:	8b 47 20             	mov    0x20(%rdi),%eax
  40ced3:	53                   	push   %rbx
  40ced4:	48 89 fb             	mov    %rdi,%rbx
  40ced7:	85 c0                	test   %eax,%eax
  40ced9:	7e 0d                	jle    40cee8 <_ZN23CircularArray2DSpectrumIdE19decrementWriteIndexEv+0x18>
  40cedb:	83 e8 01             	sub    $0x1,%eax
  40cede:	89 43 20             	mov    %eax,0x20(%rbx)
  40cee1:	5b                   	pop    %rbx
  40cee2:	c3                   	retq   
  40cee3:	0f 1f 44 00 00       	nopl   0x0(%rax,%rax,1)
  40cee8:	e8 33 ef ff ff       	callq  40be20 <_ZN15Array2DSpectrumIdE14getSampleCountEv>
  40ceed:	83 e8 01             	sub    $0x1,%eax
  40cef0:	89 43 20             	mov    %eax,0x20(%rbx)
  40cef3:	5b                   	pop    %rbx
  40cef4:	c3                   	retq   
  40cef5:	66 2e 0f 1f 84 00 00 	nopw   %cs:0x0(%rax,%rax,1)
  40cefc:	00 00 00 
  40ceff:	90                   	nop

000000000040cf00 <_ZN23CircularArray2DSpectrumIdE26getCurrentSampleWriteIndexEv>:
  40cf00:	8b 47 20             	mov    0x20(%rdi),%eax
  40cf03:	c3                   	retq   
  40cf04:	66 2e 0f 1f 84 00 00 	nopw   %cs:0x0(%rax,%rax,1)
  40cf0b:	00 00 00 
  40cf0e:	66 90                	xchg   %ax,%ax

000000000040cf10 <_ZN23CircularArray2DSpectrumIdE16pushSpectrumFastEiP15Array2DSpectrumIdE>:
  40cf10:	41 57                	push   %r15
  40cf12:	41 56                	push   %r14
  40cf14:	49 89 d6             	mov    %rdx,%r14
  40cf17:	41 55                	push   %r13
  40cf19:	41 89 f5             	mov    %esi,%r13d
  40cf1c:	41 54                	push   %r12
  40cf1e:	55                   	push   %rbp
  40cf1f:	53                   	push   %rbx
  40cf20:	48 89 fb             	mov    %rdi,%rbx
  40cf23:	48 89 d7             	mov    %rdx,%rdi
  40cf26:	48 83 ec 18          	sub    $0x18,%rsp
  40cf2a:	e8 e1 ee ff ff       	callq  40be10 <_ZN15Array2DSpectrumIdE15getChannelCountEv>
  40cf2f:	45 85 ed             	test   %r13d,%r13d
  40cf32:	89 44 24 0c          	mov    %eax,0xc(%rsp)
  40cf36:	7e 48                	jle    40cf80 <_ZN23CircularArray2DSpectrumIdE16pushSpectrumFastEiP15Array2DSpectrumIdE+0x70>
  40cf38:	4c 63 e0             	movslq %eax,%r12
  40cf3b:	31 ed                	xor    %ebp,%ebp
  40cf3d:	45 31 ff             	xor    %r15d,%r15d
  40cf40:	49 c1 e4 03          	shl    $0x3,%r12
  40cf44:	0f 1f 40 00          	nopl   0x0(%rax)
  40cf48:	48 89 df             	mov    %rbx,%rdi
  40cf4b:	41 83 c7 01          	add    $0x1,%r15d
  40cf4f:	e8 ac ff ff ff       	callq  40cf00 <_ZN23CircularArray2DSpectrumIdE26getCurrentSampleWriteIndexEv>
  40cf54:	0f af 44 24 0c       	imul   0xc(%rsp),%eax
  40cf59:	48 8b 13             	mov    (%rbx),%rdx
  40cf5c:	48 89 ee             	mov    %rbp,%rsi
  40cf5f:	49 03 36             	add    (%r14),%rsi
  40cf62:	4c 01 e5             	add    %r12,%rbp
  40cf65:	48 98                	cltq   
  40cf67:	48 8d 3c c2          	lea    (%rdx,%rax,8),%rdi
  40cf6b:	4c 89 e2             	mov    %r12,%rdx
  40cf6e:	e8 4d 80 ff ff       	callq  404fc0 <memcpy@plt>
  40cf73:	48 89 df             	mov    %rbx,%rdi
  40cf76:	e8 b5 fe ff ff       	callq  40ce30 <_ZN23CircularArray2DSpectrumIdE19incrementWriteIndexEv>
  40cf7b:	45 39 ef             	cmp    %r13d,%r15d
  40cf7e:	75 c8                	jne    40cf48 <_ZN23CircularArray2DSpectrumIdE16pushSpectrumFastEiP15Array2DSpectrumIdE+0x38>
  40cf80:	48 83 c4 18          	add    $0x18,%rsp
  40cf84:	5b                   	pop    %rbx
  40cf85:	5d                   	pop    %rbp
  40cf86:	41 5c                	pop    %r12
  40cf88:	41 5d                	pop    %r13
  40cf8a:	41 5e                	pop    %r14
  40cf8c:	41 5f                	pop    %r15
  40cf8e:	c3                   	retq   
  40cf8f:	90                   	nop

000000000040cf90 <_ZN23CircularArray2DSpectrumIdE25setCurrentSampleReadIndexEi>:
  40cf90:	89 77 24             	mov    %esi,0x24(%rdi)
  40cf93:	c3                   	retq   
  40cf94:	66 2e 0f 1f 84 00 00 	nopw   %cs:0x0(%rax,%rax,1)
  40cf9b:	00 00 00 
  40cf9e:	66 90                	xchg   %ax,%ax

000000000040cfa0 <_ZN23CircularArray2DSpectrumIdE25getCurrentSampleReadIndexEv>:
  40cfa0:	8b 47 24             	mov    0x24(%rdi),%eax
  40cfa3:	c3                   	retq   
  40cfa4:	66 2e 0f 1f 84 00 00 	nopw   %cs:0x0(%rax,%rax,1)
  40cfab:	00 00 00 
  40cfae:	66 90                	xchg   %ax,%ax

000000000040cfb0 <_ZN23CircularArray2DSpectrumIdE15popSpectrumFastEiP15Array2DSpectrumIdE>:
  40cfb0:	41 57                	push   %r15
  40cfb2:	49 89 d7             	mov    %rdx,%r15
  40cfb5:	41 56                	push   %r14
  40cfb7:	41 55                	push   %r13
  40cfb9:	41 89 f5             	mov    %esi,%r13d
  40cfbc:	41 54                	push   %r12
  40cfbe:	55                   	push   %rbp
  40cfbf:	53                   	push   %rbx
  40cfc0:	48 89 fb             	mov    %rdi,%rbx
  40cfc3:	48 83 ec 18          	sub    $0x18,%rsp
  40cfc7:	e8 44 ee ff ff       	callq  40be10 <_ZN15Array2DSpectrumIdE15getChannelCountEv>
  40cfcc:	45 85 ed             	test   %r13d,%r13d
  40cfcf:	89 44 24 0c          	mov    %eax,0xc(%rsp)
  40cfd3:	7e 4b                	jle    40d020 <_ZN23CircularArray2DSpectrumIdE15popSpectrumFastEiP15Array2DSpectrumIdE+0x70>
  40cfd5:	4c 63 e0             	movslq %eax,%r12
  40cfd8:	31 ed                	xor    %ebp,%ebp
  40cfda:	45 31 f6             	xor    %r14d,%r14d
  40cfdd:	49 c1 e4 03          	shl    $0x3,%r12
  40cfe1:	0f 1f 80 00 00 00 00 	nopl   0x0(%rax)
  40cfe8:	48 89 df             	mov    %rbx,%rdi
  40cfeb:	41 83 c6 01          	add    $0x1,%r14d
  40cfef:	e8 5c fd ff ff       	callq  40cd50 <_ZN23CircularArray2DSpectrumIdE18incrementReadIndexEv>
  40cff4:	48 89 df             	mov    %rbx,%rdi
  40cff7:	e8 a4 ff ff ff       	callq  40cfa0 <_ZN23CircularArray2DSpectrumIdE25getCurrentSampleReadIndexEv>
  40cffc:	0f af 44 24 0c       	imul   0xc(%rsp),%eax
  40d001:	48 8b 13             	mov    (%rbx),%rdx
  40d004:	48 89 ef             	mov    %rbp,%rdi
  40d007:	49 03 3f             	add    (%r15),%rdi
  40d00a:	4c 01 e5             	add    %r12,%rbp
  40d00d:	48 98                	cltq   
  40d00f:	48 8d 34 c2          	lea    (%rdx,%rax,8),%rsi
  40d013:	4c 89 e2             	mov    %r12,%rdx
  40d016:	e8 a5 7f ff ff       	callq  404fc0 <memcpy@plt>
  40d01b:	45 39 ee             	cmp    %r13d,%r14d
  40d01e:	75 c8                	jne    40cfe8 <_ZN23CircularArray2DSpectrumIdE15popSpectrumFastEiP15Array2DSpectrumIdE+0x38>
  40d020:	48 83 c4 18          	add    $0x18,%rsp
  40d024:	5b                   	pop    %rbx
  40d025:	5d                   	pop    %rbp
  40d026:	41 5c                	pop    %r12
  40d028:	41 5d                	pop    %r13
  40d02a:	41 5e                	pop    %r14
  40d02c:	41 5f                	pop    %r15
  40d02e:	c3                   	retq   
  40d02f:	90                   	nop

000000000040d030 <_ZN23CircularArray2DSpectrumIdE15popSpectrumFastEiPS0_>:
  40d030:	41 57                	push   %r15
  40d032:	41 56                	push   %r14
  40d034:	41 89 f6             	mov    %esi,%r14d
  40d037:	41 55                	push   %r13
  40d039:	41 54                	push   %r12
  40d03b:	55                   	push   %rbp
  40d03c:	48 89 d5             	mov    %rdx,%rbp
  40d03f:	53                   	push   %rbx
  40d040:	48 89 fb             	mov    %rdi,%rbx
  40d043:	48 83 ec 18          	sub    $0x18,%rsp
  40d047:	e8 c4 ed ff ff       	callq  40be10 <_ZN15Array2DSpectrumIdE15getChannelCountEv>
  40d04c:	4c 63 f8             	movslq %eax,%r15
  40d04f:	41 89 c4             	mov    %eax,%r12d
  40d052:	4a 8d 04 fd 00 00 00 	lea    0x0(,%r15,8),%rax
  40d059:	00 
  40d05a:	45 31 ff             	xor    %r15d,%r15d
  40d05d:	45 85 f6             	test   %r14d,%r14d
  40d060:	48 89 44 24 08       	mov    %rax,0x8(%rsp)
  40d065:	7e 58                	jle    40d0bf <_ZN23CircularArray2DSpectrumIdE15popSpectrumFastEiPS0_+0x8f>
  40d067:	66 0f 1f 84 00 00 00 	nopw   0x0(%rax,%rax,1)
  40d06e:	00 00 
  40d070:	48 89 df             	mov    %rbx,%rdi
  40d073:	41 83 c7 01          	add    $0x1,%r15d
  40d077:	e8 d4 fc ff ff       	callq  40cd50 <_ZN23CircularArray2DSpectrumIdE18incrementReadIndexEv>
  40d07c:	48 89 ef             	mov    %rbp,%rdi
  40d07f:	e8 7c fe ff ff       	callq  40cf00 <_ZN23CircularArray2DSpectrumIdE26getCurrentSampleWriteIndexEv>
  40d084:	41 0f af c4          	imul   %r12d,%eax
  40d088:	48 89 df             	mov    %rbx,%rdi
  40d08b:	4c 63 e8             	movslq %eax,%r13
  40d08e:	e8 0d ff ff ff       	callq  40cfa0 <_ZN23CircularArray2DSpectrumIdE25getCurrentSampleReadIndexEv>
  40d093:	48 8b 55 00          	mov    0x0(%rbp),%rdx
  40d097:	41 0f af c4          	imul   %r12d,%eax
  40d09b:	4a 8d 3c ea          	lea    (%rdx,%r13,8),%rdi
  40d09f:	48 8b 13             	mov    (%rbx),%rdx
  40d0a2:	48 98                	cltq   
  40d0a4:	48 8d 34 c2          	lea    (%rdx,%rax,8),%rsi
  40d0a8:	48 8b 54 24 08       	mov    0x8(%rsp),%rdx
  40d0ad:	e8 0e 7f ff ff       	callq  404fc0 <memcpy@plt>
  40d0b2:	48 89 ef             	mov    %rbp,%rdi
  40d0b5:	e8 76 fd ff ff       	callq  40ce30 <_ZN23CircularArray2DSpectrumIdE19incrementWriteIndexEv>
  40d0ba:	45 39 f7             	cmp    %r14d,%r15d
  40d0bd:	75 b1                	jne    40d070 <_ZN23CircularArray2DSpectrumIdE15popSpectrumFastEiPS0_+0x40>
  40d0bf:	48 83 c4 18          	add    $0x18,%rsp
  40d0c3:	5b                   	pop    %rbx
  40d0c4:	5d                   	pop    %rbp
  40d0c5:	41 5c                	pop    %r12
  40d0c7:	41 5d                	pop    %r13
  40d0c9:	41 5e                	pop    %r14
  40d0cb:	41 5f                	pop    %r15
  40d0cd:	c3                   	retq   
  40d0ce:	66 90                	xchg   %ax,%ax

000000000040d0d0 <_ZN23CircularArray2DSpectrumIdE26setCurrentSampleWriteIndexEi>:
  40d0d0:	89 77 20             	mov    %esi,0x20(%rdi)
  40d0d3:	c3                   	retq   
  40d0d4:	66 2e 0f 1f 84 00 00 	nopw   %cs:0x0(%rax,%rax,1)
  40d0db:	00 00 00 
  40d0de:	66 90                	xchg   %ax,%ax

000000000040d0e0 <_ZN23CircularArray2DSpectrumIdE14getRefillCountEv>:
  40d0e0:	8b 47 28             	mov    0x28(%rdi),%eax
  40d0e3:	c3                   	retq   
  40d0e4:	66 2e 0f 1f 84 00 00 	nopw   %cs:0x0(%rax,%rax,1)
  40d0eb:	00 00 00 
  40d0ee:	66 90                	xchg   %ax,%ax

000000000040d0f0 <_ZN31CircularArray2DSpectrumThreadedIiEC1Eii>:
  40d0f0:	55                   	push   %rbp
  40d0f1:	89 d5                	mov    %edx,%ebp
  40d0f3:	53                   	push   %rbx
  40d0f4:	48 89 fb             	mov    %rdi,%rbx
  40d0f7:	48 83 ec 08          	sub    $0x8,%rsp
  40d0fb:	e8 90 f2 ff ff       	callq  40c390 <_ZN23CircularArray2DSpectrumIiEC1Eii>
  40d100:	48 8d 7b 38          	lea    0x38(%rbx),%rdi
  40d104:	31 f6                	xor    %esi,%esi
  40d106:	e8 75 7e ff ff       	callq  404f80 <_ZN6QMutexC1ENS_13RecursionModeE@plt>
  40d10b:	89 6b 30             	mov    %ebp,0x30(%rbx)
  40d10e:	c7 43 2c 00 00 00 00 	movl   $0x0,0x2c(%rbx)
  40d115:	48 83 c4 08          	add    $0x8,%rsp
  40d119:	5b                   	pop    %rbx
  40d11a:	5d                   	pop    %rbp
  40d11b:	c3                   	retq   
  40d11c:	48 89 c5             	mov    %rax,%rbp
  40d11f:	48 89 df             	mov    %rbx,%rdi
  40d122:	e8 b9 f2 ff ff       	callq  40c3e0 <_ZN23CircularArray2DSpectrumIiED1Ev>
  40d127:	48 89 ef             	mov    %rbp,%rdi
  40d12a:	e8 f1 83 ff ff       	callq  405520 <_Unwind_Resume@plt>
  40d12f:	90                   	nop

000000000040d130 <_ZN31CircularArray2DSpectrumThreadedIiED1Ev>:
  40d130:	55                   	push   %rbp
  40d131:	53                   	push   %rbx
  40d132:	48 89 fb             	mov    %rdi,%rbx
  40d135:	48 8d 7f 38          	lea    0x38(%rdi),%rdi
  40d139:	48 83 ec 08          	sub    $0x8,%rsp
  40d13d:	e8 6e 84 ff ff       	callq  4055b0 <_ZN6QMutexD1Ev@plt>
  40d142:	48 83 c4 08          	add    $0x8,%rsp
  40d146:	48 89 df             	mov    %rbx,%rdi
  40d149:	5b                   	pop    %rbx
  40d14a:	5d                   	pop    %rbp
  40d14b:	e9 90 f2 ff ff       	jmpq   40c3e0 <_ZN23CircularArray2DSpectrumIiED1Ev>
  40d150:	48 89 c5             	mov    %rax,%rbp
  40d153:	48 89 df             	mov    %rbx,%rdi
  40d156:	e8 85 f2 ff ff       	callq  40c3e0 <_ZN23CircularArray2DSpectrumIiED1Ev>
  40d15b:	48 89 ef             	mov    %rbp,%rdi
  40d15e:	e8 bd 83 ff ff       	callq  405520 <_Unwind_Resume@plt>
  40d163:	66 2e 0f 1f 84 00 00 	nopw   %cs:0x0(%rax,%rax,1)
  40d16a:	00 00 00 
  40d16d:	0f 1f 00             	nopl   (%rax)

000000000040d170 <_ZN31CircularArray2DSpectrumThreadedIiE16getNumFreeSpacesEv>:
  40d170:	8b 47 30             	mov    0x30(%rdi),%eax
  40d173:	c3                   	retq   
  40d174:	66 2e 0f 1f 84 00 00 	nopw   %cs:0x0(%rax,%rax,1)
  40d17b:	00 00 00 
  40d17e:	66 90                	xchg   %ax,%ax

000000000040d180 <_ZN31CircularArray2DSpectrumThreadedIiE16getNumUsedSpacesEv>:
  40d180:	8b 47 2c             	mov    0x2c(%rdi),%eax
  40d183:	c3                   	retq   
  40d184:	66 2e 0f 1f 84 00 00 	nopw   %cs:0x0(%rax,%rax,1)
  40d18b:	00 00 00 
  40d18e:	66 90                	xchg   %ax,%ax

000000000040d190 <_ZN31CircularArray2DSpectrumThreadedIiE10loadSampleEv>:
  40d190:	55                   	push   %rbp
  40d191:	48 8d 6f 38          	lea    0x38(%rdi),%rbp
  40d195:	53                   	push   %rbx
  40d196:	48 89 fb             	mov    %rdi,%rbx
  40d199:	48 89 ef             	mov    %rbp,%rdi
  40d19c:	48 83 ec 08          	sub    $0x8,%rsp
  40d1a0:	e8 0b 87 ff ff       	callq  4058b0 <_ZN6QMutex4lockEv@plt>
  40d1a5:	83 43 30 01          	addl   $0x1,0x30(%rbx)
  40d1a9:	83 6b 2c 01          	subl   $0x1,0x2c(%rbx)
  40d1ad:	48 89 ef             	mov    %rbp,%rdi
  40d1b0:	e8 db 87 ff ff       	callq  405990 <_ZN6QMutex6unlockEv@plt>
  40d1b5:	48 83 c4 08          	add    $0x8,%rsp
  40d1b9:	48 89 df             	mov    %rbx,%rdi
  40d1bc:	5b                   	pop    %rbx
  40d1bd:	5d                   	pop    %rbp
  40d1be:	e9 ad f2 ff ff       	jmpq   40c470 <_ZN23CircularArray2DSpectrumIiE9popSampleEv>
  40d1c3:	66 2e 0f 1f 84 00 00 	nopw   %cs:0x0(%rax,%rax,1)
  40d1ca:	00 00 00 
  40d1cd:	0f 1f 00             	nopl   (%rax)

000000000040d1d0 <_ZN31CircularArray2DSpectrumThreadedIiE11writeSampleEPi>:
  40d1d0:	55                   	push   %rbp
  40d1d1:	53                   	push   %rbx
  40d1d2:	48 89 fb             	mov    %rdi,%rbx
  40d1d5:	48 8d 6b 38          	lea    0x38(%rbx),%rbp
  40d1d9:	48 83 ec 08          	sub    $0x8,%rsp
  40d1dd:	e8 6e f3 ff ff       	callq  40c550 <_ZN23CircularArray2DSpectrumIiE10pushSampleEPi>
  40d1e2:	48 89 ef             	mov    %rbp,%rdi
  40d1e5:	e8 c6 86 ff ff       	callq  4058b0 <_ZN6QMutex4lockEv@plt>
  40d1ea:	83 43 2c 01          	addl   $0x1,0x2c(%rbx)
  40d1ee:	83 6b 30 01          	subl   $0x1,0x30(%rbx)
  40d1f2:	48 83 c4 08          	add    $0x8,%rsp
  40d1f6:	5b                   	pop    %rbx
  40d1f7:	48 89 ef             	mov    %rbp,%rdi
  40d1fa:	5d                   	pop    %rbp
  40d1fb:	e9 90 87 ff ff       	jmpq   405990 <_ZN6QMutex6unlockEv@plt>

000000000040d200 <_ZN31CircularArray2DSpectrumThreadedIiE19fastPopBlockSamplesEP15Array2DSpectrumIiEi>:
  40d200:	41 54                	push   %r12
  40d202:	55                   	push   %rbp
  40d203:	89 d5                	mov    %edx,%ebp
  40d205:	48 89 f2             	mov    %rsi,%rdx
  40d208:	89 ee                	mov    %ebp,%esi
  40d20a:	53                   	push   %rbx
  40d20b:	48 89 fb             	mov    %rdi,%rbx
  40d20e:	4c 8d 63 38          	lea    0x38(%rbx),%r12
  40d212:	e8 79 f4 ff ff       	callq  40c690 <_ZN23CircularArray2DSpectrumIiE15popSpectrumFastEiP15Array2DSpectrumIiE>
  40d217:	4c 89 e7             	mov    %r12,%rdi
  40d21a:	e8 91 86 ff ff       	callq  4058b0 <_ZN6QMutex4lockEv@plt>
  40d21f:	01 6b 30             	add    %ebp,0x30(%rbx)
  40d222:	29 6b 2c             	sub    %ebp,0x2c(%rbx)
  40d225:	4c 89 e7             	mov    %r12,%rdi
  40d228:	5b                   	pop    %rbx
  40d229:	5d                   	pop    %rbp
  40d22a:	41 5c                	pop    %r12
  40d22c:	e9 5f 87 ff ff       	jmpq   405990 <_ZN6QMutex6unlockEv@plt>
  40d231:	66 2e 0f 1f 84 00 00 	nopw   %cs:0x0(%rax,%rax,1)
  40d238:	00 00 00 
  40d23b:	0f 1f 44 00 00       	nopl   0x0(%rax,%rax,1)

000000000040d240 <_ZN31CircularArray2DSpectrumThreadedIiE19fastPopBlockSamplesEP23CircularArray2DSpectrumIiEi>:
  40d240:	41 54                	push   %r12
  40d242:	55                   	push   %rbp
  40d243:	89 d5                	mov    %edx,%ebp
  40d245:	48 89 f2             	mov    %rsi,%rdx
  40d248:	89 ee                	mov    %ebp,%esi
  40d24a:	53                   	push   %rbx
  40d24b:	48 89 fb             	mov    %rdi,%rbx
  40d24e:	4c 8d 63 38          	lea    0x38(%rbx),%r12
  40d252:	e8 b9 f4 ff ff       	callq  40c710 <_ZN23CircularArray2DSpectrumIiE15popSpectrumFastEiPS0_>
  40d257:	4c 89 e7             	mov    %r12,%rdi
  40d25a:	e8 51 86 ff ff       	callq  4058b0 <_ZN6QMutex4lockEv@plt>
  40d25f:	01 6b 30             	add    %ebp,0x30(%rbx)
  40d262:	29 6b 2c             	sub    %ebp,0x2c(%rbx)
  40d265:	4c 89 e7             	mov    %r12,%rdi
  40d268:	5b                   	pop    %rbx
  40d269:	5d                   	pop    %rbp
  40d26a:	41 5c                	pop    %r12
  40d26c:	e9 1f 87 ff ff       	jmpq   405990 <_ZN6QMutex6unlockEv@plt>
  40d271:	66 2e 0f 1f 84 00 00 	nopw   %cs:0x0(%rax,%rax,1)
  40d278:	00 00 00 
  40d27b:	0f 1f 44 00 00       	nopl   0x0(%rax,%rax,1)

000000000040d280 <_ZN31CircularArray2DSpectrumThreadedIiE20fastPushBlockSamplesEP15Array2DSpectrumIiEi>:
  40d280:	41 54                	push   %r12
  40d282:	55                   	push   %rbp
  40d283:	89 d5                	mov    %edx,%ebp
  40d285:	48 89 f2             	mov    %rsi,%rdx
  40d288:	89 ee                	mov    %ebp,%esi
  40d28a:	53                   	push   %rbx
  40d28b:	48 89 fb             	mov    %rdi,%rbx
  40d28e:	4c 8d 63 38          	lea    0x38(%rbx),%r12
  40d292:	e8 59 f3 ff ff       	callq  40c5f0 <_ZN23CircularArray2DSpectrumIiE16pushSpectrumFastEiP15Array2DSpectrumIiE>
  40d297:	4c 89 e7             	mov    %r12,%rdi
  40d29a:	e8 11 86 ff ff       	callq  4058b0 <_ZN6QMutex4lockEv@plt>
  40d29f:	01 6b 2c             	add    %ebp,0x2c(%rbx)
  40d2a2:	29 6b 30             	sub    %ebp,0x30(%rbx)
  40d2a5:	4c 89 e7             	mov    %r12,%rdi
  40d2a8:	5b                   	pop    %rbx
  40d2a9:	5d                   	pop    %rbp
  40d2aa:	41 5c                	pop    %r12
  40d2ac:	e9 df 86 ff ff       	jmpq   405990 <_ZN6QMutex6unlockEv@plt>
  40d2b1:	66 2e 0f 1f 84 00 00 	nopw   %cs:0x0(%rax,%rax,1)
  40d2b8:	00 00 00 
  40d2bb:	0f 1f 44 00 00       	nopl   0x0(%rax,%rax,1)

000000000040d2c0 <_ZN31CircularArray2DSpectrumThreadedIiE18increaseFreeSpacesEv>:
  40d2c0:	55                   	push   %rbp
  40d2c1:	48 8d 6f 38          	lea    0x38(%rdi),%rbp
  40d2c5:	53                   	push   %rbx
  40d2c6:	48 89 fb             	mov    %rdi,%rbx
  40d2c9:	48 89 ef             	mov    %rbp,%rdi
  40d2cc:	48 83 ec 08          	sub    $0x8,%rsp
  40d2d0:	e8 db 85 ff ff       	callq  4058b0 <_ZN6QMutex4lockEv@plt>
  40d2d5:	83 43 30 01          	addl   $0x1,0x30(%rbx)
  40d2d9:	83 6b 2c 01          	subl   $0x1,0x2c(%rbx)
  40d2dd:	48 89 df             	mov    %rbx,%rdi
  40d2e0:	e8 4b f1 ff ff       	callq  40c430 <_ZN23CircularArray2DSpectrumIiE18incrementReadIndexEv>
  40d2e5:	48 83 c4 08          	add    $0x8,%rsp
  40d2e9:	48 89 ef             	mov    %rbp,%rdi
  40d2ec:	5b                   	pop    %rbx
  40d2ed:	5d                   	pop    %rbp
  40d2ee:	e9 9d 86 ff ff       	jmpq   405990 <_ZN6QMutex6unlockEv@plt>
  40d2f3:	66 2e 0f 1f 84 00 00 	nopw   %cs:0x0(%rax,%rax,1)
  40d2fa:	00 00 00 
  40d2fd:	0f 1f 00             	nopl   (%rax)

000000000040d300 <_ZN31CircularArray2DSpectrumThreadedIfEC1Eii>:
  40d300:	55                   	push   %rbp
  40d301:	89 d5                	mov    %edx,%ebp
  40d303:	53                   	push   %rbx
  40d304:	48 89 fb             	mov    %rdi,%rbx
  40d307:	48 83 ec 08          	sub    $0x8,%rsp
  40d30b:	e8 10 f5 ff ff       	callq  40c820 <_ZN23CircularArray2DSpectrumIfEC1Eii>
  40d310:	48 8d 7b 38          	lea    0x38(%rbx),%rdi
  40d314:	31 f6                	xor    %esi,%esi
  40d316:	e8 65 7c ff ff       	callq  404f80 <_ZN6QMutexC1ENS_13RecursionModeE@plt>
  40d31b:	89 6b 30             	mov    %ebp,0x30(%rbx)
  40d31e:	c7 43 2c 00 00 00 00 	movl   $0x0,0x2c(%rbx)
  40d325:	48 83 c4 08          	add    $0x8,%rsp
  40d329:	5b                   	pop    %rbx
  40d32a:	5d                   	pop    %rbp
  40d32b:	c3                   	retq   
  40d32c:	48 89 c5             	mov    %rax,%rbp
  40d32f:	48 89 df             	mov    %rbx,%rdi
  40d332:	e8 39 f5 ff ff       	callq  40c870 <_ZN23CircularArray2DSpectrumIfED1Ev>
  40d337:	48 89 ef             	mov    %rbp,%rdi
  40d33a:	e8 e1 81 ff ff       	callq  405520 <_Unwind_Resume@plt>
  40d33f:	90                   	nop

000000000040d340 <_ZN31CircularArray2DSpectrumThreadedIfED1Ev>:
  40d340:	55                   	push   %rbp
  40d341:	53                   	push   %rbx
  40d342:	48 89 fb             	mov    %rdi,%rbx
  40d345:	48 8d 7f 38          	lea    0x38(%rdi),%rdi
  40d349:	48 83 ec 08          	sub    $0x8,%rsp
  40d34d:	e8 5e 82 ff ff       	callq  4055b0 <_ZN6QMutexD1Ev@plt>
  40d352:	48 83 c4 08          	add    $0x8,%rsp
  40d356:	48 89 df             	mov    %rbx,%rdi
  40d359:	5b                   	pop    %rbx
  40d35a:	5d                   	pop    %rbp
  40d35b:	e9 10 f5 ff ff       	jmpq   40c870 <_ZN23CircularArray2DSpectrumIfED1Ev>
  40d360:	48 89 c5             	mov    %rax,%rbp
  40d363:	48 89 df             	mov    %rbx,%rdi
  40d366:	e8 05 f5 ff ff       	callq  40c870 <_ZN23CircularArray2DSpectrumIfED1Ev>
  40d36b:	48 89 ef             	mov    %rbp,%rdi
  40d36e:	e8 ad 81 ff ff       	callq  405520 <_Unwind_Resume@plt>
  40d373:	66 2e 0f 1f 84 00 00 	nopw   %cs:0x0(%rax,%rax,1)
  40d37a:	00 00 00 
  40d37d:	0f 1f 00             	nopl   (%rax)

000000000040d380 <_ZN31CircularArray2DSpectrumThreadedIfE16getNumFreeSpacesEv>:
  40d380:	8b 47 30             	mov    0x30(%rdi),%eax
  40d383:	c3                   	retq   
  40d384:	66 2e 0f 1f 84 00 00 	nopw   %cs:0x0(%rax,%rax,1)
  40d38b:	00 00 00 
  40d38e:	66 90                	xchg   %ax,%ax

000000000040d390 <_ZN31CircularArray2DSpectrumThreadedIfE16getNumUsedSpacesEv>:
  40d390:	8b 47 2c             	mov    0x2c(%rdi),%eax
  40d393:	c3                   	retq   
  40d394:	66 2e 0f 1f 84 00 00 	nopw   %cs:0x0(%rax,%rax,1)
  40d39b:	00 00 00 
  40d39e:	66 90                	xchg   %ax,%ax

000000000040d3a0 <_ZN31CircularArray2DSpectrumThreadedIfE10loadSampleEv>:
  40d3a0:	55                   	push   %rbp
  40d3a1:	48 8d 6f 38          	lea    0x38(%rdi),%rbp
  40d3a5:	53                   	push   %rbx
  40d3a6:	48 89 fb             	mov    %rdi,%rbx
  40d3a9:	48 89 ef             	mov    %rbp,%rdi
  40d3ac:	48 83 ec 08          	sub    $0x8,%rsp
  40d3b0:	e8 fb 84 ff ff       	callq  4058b0 <_ZN6QMutex4lockEv@plt>
  40d3b5:	83 43 30 01          	addl   $0x1,0x30(%rbx)
  40d3b9:	83 6b 2c 01          	subl   $0x1,0x2c(%rbx)
  40d3bd:	48 89 ef             	mov    %rbp,%rdi
  40d3c0:	e8 cb 85 ff ff       	callq  405990 <_ZN6QMutex6unlockEv@plt>
  40d3c5:	48 83 c4 08          	add    $0x8,%rsp
  40d3c9:	48 89 df             	mov    %rbx,%rdi
  40d3cc:	5b                   	pop    %rbx
  40d3cd:	5d                   	pop    %rbp
  40d3ce:	e9 2d f5 ff ff       	jmpq   40c900 <_ZN23CircularArray2DSpectrumIfE9popSampleEv>
  40d3d3:	66 2e 0f 1f 84 00 00 	nopw   %cs:0x0(%rax,%rax,1)
  40d3da:	00 00 00 
  40d3dd:	0f 1f 00             	nopl   (%rax)

000000000040d3e0 <_ZN31CircularArray2DSpectrumThreadedIfE11writeSampleEPf>:
  40d3e0:	55                   	push   %rbp
  40d3e1:	53                   	push   %rbx
  40d3e2:	48 89 fb             	mov    %rdi,%rbx
  40d3e5:	48 8d 6b 38          	lea    0x38(%rbx),%rbp
  40d3e9:	48 83 ec 08          	sub    $0x8,%rsp
  40d3ed:	e8 ee f5 ff ff       	callq  40c9e0 <_ZN23CircularArray2DSpectrumIfE10pushSampleEPf>
  40d3f2:	48 89 ef             	mov    %rbp,%rdi
  40d3f5:	e8 b6 84 ff ff       	callq  4058b0 <_ZN6QMutex4lockEv@plt>
  40d3fa:	83 43 2c 01          	addl   $0x1,0x2c(%rbx)
  40d3fe:	83 6b 30 01          	subl   $0x1,0x30(%rbx)
  40d402:	48 83 c4 08          	add    $0x8,%rsp
  40d406:	5b                   	pop    %rbx
  40d407:	48 89 ef             	mov    %rbp,%rdi
  40d40a:	5d                   	pop    %rbp
  40d40b:	e9 80 85 ff ff       	jmpq   405990 <_ZN6QMutex6unlockEv@plt>

000000000040d410 <_ZN31CircularArray2DSpectrumThreadedIfE19fastPopBlockSamplesEP15Array2DSpectrumIfEi>:
  40d410:	41 54                	push   %r12
  40d412:	55                   	push   %rbp
  40d413:	89 d5                	mov    %edx,%ebp
  40d415:	48 89 f2             	mov    %rsi,%rdx
  40d418:	89 ee                	mov    %ebp,%esi
  40d41a:	53                   	push   %rbx
  40d41b:	48 89 fb             	mov    %rdi,%rbx
  40d41e:	4c 8d 63 38          	lea    0x38(%rbx),%r12
  40d422:	e8 f9 f6 ff ff       	callq  40cb20 <_ZN23CircularArray2DSpectrumIfE15popSpectrumFastEiP15Array2DSpectrumIfE>
  40d427:	4c 89 e7             	mov    %r12,%rdi
  40d42a:	e8 81 84 ff ff       	callq  4058b0 <_ZN6QMutex4lockEv@plt>
  40d42f:	01 6b 30             	add    %ebp,0x30(%rbx)
  40d432:	29 6b 2c             	sub    %ebp,0x2c(%rbx)
  40d435:	4c 89 e7             	mov    %r12,%rdi
  40d438:	5b                   	pop    %rbx
  40d439:	5d                   	pop    %rbp
  40d43a:	41 5c                	pop    %r12
  40d43c:	e9 4f 85 ff ff       	jmpq   405990 <_ZN6QMutex6unlockEv@plt>
  40d441:	66 2e 0f 1f 84 00 00 	nopw   %cs:0x0(%rax,%rax,1)
  40d448:	00 00 00 
  40d44b:	0f 1f 44 00 00       	nopl   0x0(%rax,%rax,1)

000000000040d450 <_ZN31CircularArray2DSpectrumThreadedIfE19fastPopBlockSamplesEP23CircularArray2DSpectrumIfEi>:
  40d450:	41 54                	push   %r12
  40d452:	55                   	push   %rbp
  40d453:	89 d5                	mov    %edx,%ebp
  40d455:	48 89 f2             	mov    %rsi,%rdx
  40d458:	89 ee                	mov    %ebp,%esi
  40d45a:	53                   	push   %rbx
  40d45b:	48 89 fb             	mov    %rdi,%rbx
  40d45e:	4c 8d 63 38          	lea    0x38(%rbx),%r12
  40d462:	e8 39 f7 ff ff       	callq  40cba0 <_ZN23CircularArray2DSpectrumIfE15popSpectrumFastEiPS0_>
  40d467:	4c 89 e7             	mov    %r12,%rdi
  40d46a:	e8 41 84 ff ff       	callq  4058b0 <_ZN6QMutex4lockEv@plt>
  40d46f:	01 6b 30             	add    %ebp,0x30(%rbx)
  40d472:	29 6b 2c             	sub    %ebp,0x2c(%rbx)
  40d475:	4c 89 e7             	mov    %r12,%rdi
  40d478:	5b                   	pop    %rbx
  40d479:	5d                   	pop    %rbp
  40d47a:	41 5c                	pop    %r12
  40d47c:	e9 0f 85 ff ff       	jmpq   405990 <_ZN6QMutex6unlockEv@plt>
  40d481:	66 2e 0f 1f 84 00 00 	nopw   %cs:0x0(%rax,%rax,1)
  40d488:	00 00 00 
  40d48b:	0f 1f 44 00 00       	nopl   0x0(%rax,%rax,1)

000000000040d490 <_ZN31CircularArray2DSpectrumThreadedIfE20fastPushBlockSamplesEP15Array2DSpectrumIfEi>:
  40d490:	41 54                	push   %r12
  40d492:	55                   	push   %rbp
  40d493:	89 d5                	mov    %edx,%ebp
  40d495:	48 89 f2             	mov    %rsi,%rdx
  40d498:	89 ee                	mov    %ebp,%esi
  40d49a:	53                   	push   %rbx
  40d49b:	48 89 fb             	mov    %rdi,%rbx
  40d49e:	4c 8d 63 38          	lea    0x38(%rbx),%r12
  40d4a2:	e8 d9 f5 ff ff       	callq  40ca80 <_ZN23CircularArray2DSpectrumIfE16pushSpectrumFastEiP15Array2DSpectrumIfE>
  40d4a7:	4c 89 e7             	mov    %r12,%rdi
  40d4aa:	e8 01 84 ff ff       	callq  4058b0 <_ZN6QMutex4lockEv@plt>
  40d4af:	01 6b 2c             	add    %ebp,0x2c(%rbx)
  40d4b2:	29 6b 30             	sub    %ebp,0x30(%rbx)
  40d4b5:	4c 89 e7             	mov    %r12,%rdi
  40d4b8:	5b                   	pop    %rbx
  40d4b9:	5d                   	pop    %rbp
  40d4ba:	41 5c                	pop    %r12
  40d4bc:	e9 cf 84 ff ff       	jmpq   405990 <_ZN6QMutex6unlockEv@plt>
  40d4c1:	66 2e 0f 1f 84 00 00 	nopw   %cs:0x0(%rax,%rax,1)
  40d4c8:	00 00 00 
  40d4cb:	0f 1f 44 00 00       	nopl   0x0(%rax,%rax,1)

000000000040d4d0 <_ZN31CircularArray2DSpectrumThreadedIfE18increaseFreeSpacesEv>:
  40d4d0:	55                   	push   %rbp
  40d4d1:	48 8d 6f 38          	lea    0x38(%rdi),%rbp
  40d4d5:	53                   	push   %rbx
  40d4d6:	48 89 fb             	mov    %rdi,%rbx
  40d4d9:	48 89 ef             	mov    %rbp,%rdi
  40d4dc:	48 83 ec 08          	sub    $0x8,%rsp
  40d4e0:	e8 cb 83 ff ff       	callq  4058b0 <_ZN6QMutex4lockEv@plt>
  40d4e5:	83 43 30 01          	addl   $0x1,0x30(%rbx)
  40d4e9:	83 6b 2c 01          	subl   $0x1,0x2c(%rbx)
  40d4ed:	48 89 df             	mov    %rbx,%rdi
  40d4f0:	e8 cb f3 ff ff       	callq  40c8c0 <_ZN23CircularArray2DSpectrumIfE18incrementReadIndexEv>
  40d4f5:	48 83 c4 08          	add    $0x8,%rsp
  40d4f9:	48 89 ef             	mov    %rbp,%rdi
  40d4fc:	5b                   	pop    %rbx
  40d4fd:	5d                   	pop    %rbp
  40d4fe:	e9 8d 84 ff ff       	jmpq   405990 <_ZN6QMutex6unlockEv@plt>
  40d503:	66 2e 0f 1f 84 00 00 	nopw   %cs:0x0(%rax,%rax,1)
  40d50a:	00 00 00 
  40d50d:	0f 1f 00             	nopl   (%rax)

000000000040d510 <_ZN31CircularArray2DSpectrumThreadedIdEC1Eii>:
  40d510:	55                   	push   %rbp
  40d511:	89 d5                	mov    %edx,%ebp
  40d513:	53                   	push   %rbx
  40d514:	48 89 fb             	mov    %rdi,%rbx
  40d517:	48 83 ec 08          	sub    $0x8,%rsp
  40d51b:	e8 90 f7 ff ff       	callq  40ccb0 <_ZN23CircularArray2DSpectrumIdEC1Eii>
  40d520:	48 8d 7b 38          	lea    0x38(%rbx),%rdi
  40d524:	31 f6                	xor    %esi,%esi
  40d526:	e8 55 7a ff ff       	callq  404f80 <_ZN6QMutexC1ENS_13RecursionModeE@plt>
  40d52b:	89 6b 30             	mov    %ebp,0x30(%rbx)
  40d52e:	c7 43 2c 00 00 00 00 	movl   $0x0,0x2c(%rbx)
  40d535:	48 83 c4 08          	add    $0x8,%rsp
  40d539:	5b                   	pop    %rbx
  40d53a:	5d                   	pop    %rbp
  40d53b:	c3                   	retq   
  40d53c:	48 89 c5             	mov    %rax,%rbp
  40d53f:	48 89 df             	mov    %rbx,%rdi
  40d542:	e8 b9 f7 ff ff       	callq  40cd00 <_ZN23CircularArray2DSpectrumIdED1Ev>
  40d547:	48 89 ef             	mov    %rbp,%rdi
  40d54a:	e8 d1 7f ff ff       	callq  405520 <_Unwind_Resume@plt>
  40d54f:	90                   	nop

000000000040d550 <_ZN31CircularArray2DSpectrumThreadedIdED1Ev>:
  40d550:	55                   	push   %rbp
  40d551:	53                   	push   %rbx
  40d552:	48 89 fb             	mov    %rdi,%rbx
  40d555:	48 8d 7f 38          	lea    0x38(%rdi),%rdi
  40d559:	48 83 ec 08          	sub    $0x8,%rsp
  40d55d:	e8 4e 80 ff ff       	callq  4055b0 <_ZN6QMutexD1Ev@plt>
  40d562:	48 83 c4 08          	add    $0x8,%rsp
  40d566:	48 89 df             	mov    %rbx,%rdi
  40d569:	5b                   	pop    %rbx
  40d56a:	5d                   	pop    %rbp
  40d56b:	e9 90 f7 ff ff       	jmpq   40cd00 <_ZN23CircularArray2DSpectrumIdED1Ev>
  40d570:	48 89 c5             	mov    %rax,%rbp
  40d573:	48 89 df             	mov    %rbx,%rdi
  40d576:	e8 85 f7 ff ff       	callq  40cd00 <_ZN23CircularArray2DSpectrumIdED1Ev>
  40d57b:	48 89 ef             	mov    %rbp,%rdi
  40d57e:	e8 9d 7f ff ff       	callq  405520 <_Unwind_Resume@plt>
  40d583:	66 2e 0f 1f 84 00 00 	nopw   %cs:0x0(%rax,%rax,1)
  40d58a:	00 00 00 
  40d58d:	0f 1f 00             	nopl   (%rax)

000000000040d590 <_ZN31CircularArray2DSpectrumThreadedIdE16getNumFreeSpacesEv>:
  40d590:	8b 47 30             	mov    0x30(%rdi),%eax
  40d593:	c3                   	retq   
  40d594:	66 2e 0f 1f 84 00 00 	nopw   %cs:0x0(%rax,%rax,1)
  40d59b:	00 00 00 
  40d59e:	66 90                	xchg   %ax,%ax

000000000040d5a0 <_ZN31CircularArray2DSpectrumThreadedIdE16getNumUsedSpacesEv>:
  40d5a0:	8b 47 2c             	mov    0x2c(%rdi),%eax
  40d5a3:	c3                   	retq   
  40d5a4:	66 2e 0f 1f 84 00 00 	nopw   %cs:0x0(%rax,%rax,1)
  40d5ab:	00 00 00 
  40d5ae:	66 90                	xchg   %ax,%ax

000000000040d5b0 <_ZN31CircularArray2DSpectrumThreadedIdE10loadSampleEv>:
  40d5b0:	55                   	push   %rbp
  40d5b1:	48 8d 6f 38          	lea    0x38(%rdi),%rbp
  40d5b5:	53                   	push   %rbx
  40d5b6:	48 89 fb             	mov    %rdi,%rbx
  40d5b9:	48 89 ef             	mov    %rbp,%rdi
  40d5bc:	48 83 ec 08          	sub    $0x8,%rsp
  40d5c0:	e8 eb 82 ff ff       	callq  4058b0 <_ZN6QMutex4lockEv@plt>
  40d5c5:	83 43 30 01          	addl   $0x1,0x30(%rbx)
  40d5c9:	83 6b 2c 01          	subl   $0x1,0x2c(%rbx)
  40d5cd:	48 89 ef             	mov    %rbp,%rdi
  40d5d0:	e8 bb 83 ff ff       	callq  405990 <_ZN6QMutex6unlockEv@plt>
  40d5d5:	48 83 c4 08          	add    $0x8,%rsp
  40d5d9:	48 89 df             	mov    %rbx,%rdi
  40d5dc:	5b                   	pop    %rbx
  40d5dd:	5d                   	pop    %rbp
  40d5de:	e9 ad f7 ff ff       	jmpq   40cd90 <_ZN23CircularArray2DSpectrumIdE9popSampleEv>
  40d5e3:	66 2e 0f 1f 84 00 00 	nopw   %cs:0x0(%rax,%rax,1)
  40d5ea:	00 00 00 
  40d5ed:	0f 1f 00             	nopl   (%rax)

000000000040d5f0 <_ZN31CircularArray2DSpectrumThreadedIdE11writeSampleEPd>:
  40d5f0:	55                   	push   %rbp
  40d5f1:	53                   	push   %rbx
  40d5f2:	48 89 fb             	mov    %rdi,%rbx
  40d5f5:	48 8d 6b 38          	lea    0x38(%rbx),%rbp
  40d5f9:	48 83 ec 08          	sub    $0x8,%rsp
  40d5fd:	e8 6e f8 ff ff       	callq  40ce70 <_ZN23CircularArray2DSpectrumIdE10pushSampleEPd>
  40d602:	48 89 ef             	mov    %rbp,%rdi
  40d605:	e8 a6 82 ff ff       	callq  4058b0 <_ZN6QMutex4lockEv@plt>
  40d60a:	83 43 2c 01          	addl   $0x1,0x2c(%rbx)
  40d60e:	83 6b 30 01          	subl   $0x1,0x30(%rbx)
  40d612:	48 83 c4 08          	add    $0x8,%rsp
  40d616:	5b                   	pop    %rbx
  40d617:	48 89 ef             	mov    %rbp,%rdi
  40d61a:	5d                   	pop    %rbp
  40d61b:	e9 70 83 ff ff       	jmpq   405990 <_ZN6QMutex6unlockEv@plt>

000000000040d620 <_ZN31CircularArray2DSpectrumThreadedIdE19fastPopBlockSamplesEP15Array2DSpectrumIdEi>:
  40d620:	41 54                	push   %r12
  40d622:	55                   	push   %rbp
  40d623:	89 d5                	mov    %edx,%ebp
  40d625:	48 89 f2             	mov    %rsi,%rdx
  40d628:	89 ee                	mov    %ebp,%esi
  40d62a:	53                   	push   %rbx
  40d62b:	48 89 fb             	mov    %rdi,%rbx
  40d62e:	4c 8d 63 38          	lea    0x38(%rbx),%r12
  40d632:	e8 79 f9 ff ff       	callq  40cfb0 <_ZN23CircularArray2DSpectrumIdE15popSpectrumFastEiP15Array2DSpectrumIdE>
  40d637:	4c 89 e7             	mov    %r12,%rdi
  40d63a:	e8 71 82 ff ff       	callq  4058b0 <_ZN6QMutex4lockEv@plt>
  40d63f:	01 6b 30             	add    %ebp,0x30(%rbx)
  40d642:	29 6b 2c             	sub    %ebp,0x2c(%rbx)
  40d645:	4c 89 e7             	mov    %r12,%rdi
  40d648:	5b                   	pop    %rbx
  40d649:	5d                   	pop    %rbp
  40d64a:	41 5c                	pop    %r12
  40d64c:	e9 3f 83 ff ff       	jmpq   405990 <_ZN6QMutex6unlockEv@plt>
  40d651:	66 2e 0f 1f 84 00 00 	nopw   %cs:0x0(%rax,%rax,1)
  40d658:	00 00 00 
  40d65b:	0f 1f 44 00 00       	nopl   0x0(%rax,%rax,1)

000000000040d660 <_ZN31CircularArray2DSpectrumThreadedIdE19fastPopBlockSamplesEP23CircularArray2DSpectrumIdEi>:
  40d660:	41 54                	push   %r12
  40d662:	55                   	push   %rbp
  40d663:	89 d5                	mov    %edx,%ebp
  40d665:	48 89 f2             	mov    %rsi,%rdx
  40d668:	89 ee                	mov    %ebp,%esi
  40d66a:	53                   	push   %rbx
  40d66b:	48 89 fb             	mov    %rdi,%rbx
  40d66e:	4c 8d 63 38          	lea    0x38(%rbx),%r12
  40d672:	e8 b9 f9 ff ff       	callq  40d030 <_ZN23CircularArray2DSpectrumIdE15popSpectrumFastEiPS0_>
  40d677:	4c 89 e7             	mov    %r12,%rdi
  40d67a:	e8 31 82 ff ff       	callq  4058b0 <_ZN6QMutex4lockEv@plt>
  40d67f:	01 6b 30             	add    %ebp,0x30(%rbx)
  40d682:	29 6b 2c             	sub    %ebp,0x2c(%rbx)
  40d685:	4c 89 e7             	mov    %r12,%rdi
  40d688:	5b                   	pop    %rbx
  40d689:	5d                   	pop    %rbp
  40d68a:	41 5c                	pop    %r12
  40d68c:	e9 ff 82 ff ff       	jmpq   405990 <_ZN6QMutex6unlockEv@plt>
  40d691:	66 2e 0f 1f 84 00 00 	nopw   %cs:0x0(%rax,%rax,1)
  40d698:	00 00 00 
  40d69b:	0f 1f 44 00 00       	nopl   0x0(%rax,%rax,1)

000000000040d6a0 <_ZN31CircularArray2DSpectrumThreadedIdE20fastPushBlockSamplesEP15Array2DSpectrumIdEi>:
  40d6a0:	41 54                	push   %r12
  40d6a2:	55                   	push   %rbp
  40d6a3:	89 d5                	mov    %edx,%ebp
  40d6a5:	48 89 f2             	mov    %rsi,%rdx
  40d6a8:	89 ee                	mov    %ebp,%esi
  40d6aa:	53                   	push   %rbx
  40d6ab:	48 89 fb             	mov    %rdi,%rbx
  40d6ae:	4c 8d 63 38          	lea    0x38(%rbx),%r12
  40d6b2:	e8 59 f8 ff ff       	callq  40cf10 <_ZN23CircularArray2DSpectrumIdE16pushSpectrumFastEiP15Array2DSpectrumIdE>
  40d6b7:	4c 89 e7             	mov    %r12,%rdi
  40d6ba:	e8 f1 81 ff ff       	callq  4058b0 <_ZN6QMutex4lockEv@plt>
  40d6bf:	01 6b 2c             	add    %ebp,0x2c(%rbx)
  40d6c2:	29 6b 30             	sub    %ebp,0x30(%rbx)
  40d6c5:	4c 89 e7             	mov    %r12,%rdi
  40d6c8:	5b                   	pop    %rbx
  40d6c9:	5d                   	pop    %rbp
  40d6ca:	41 5c                	pop    %r12
  40d6cc:	e9 bf 82 ff ff       	jmpq   405990 <_ZN6QMutex6unlockEv@plt>
  40d6d1:	66 2e 0f 1f 84 00 00 	nopw   %cs:0x0(%rax,%rax,1)
  40d6d8:	00 00 00 
  40d6db:	0f 1f 44 00 00       	nopl   0x0(%rax,%rax,1)

000000000040d6e0 <_ZN31CircularArray2DSpectrumThreadedIdE18increaseFreeSpacesEv>:
  40d6e0:	55                   	push   %rbp
  40d6e1:	48 8d 6f 38          	lea    0x38(%rdi),%rbp
  40d6e5:	53                   	push   %rbx
  40d6e6:	48 89 fb             	mov    %rdi,%rbx
  40d6e9:	48 89 ef             	mov    %rbp,%rdi
  40d6ec:	48 83 ec 08          	sub    $0x8,%rsp
  40d6f0:	e8 bb 81 ff ff       	callq  4058b0 <_ZN6QMutex4lockEv@plt>
  40d6f5:	83 43 30 01          	addl   $0x1,0x30(%rbx)
  40d6f9:	83 6b 2c 01          	subl   $0x1,0x2c(%rbx)
  40d6fd:	48 89 df             	mov    %rbx,%rdi
  40d700:	e8 4b f6 ff ff       	callq  40cd50 <_ZN23CircularArray2DSpectrumIdE18incrementReadIndexEv>
  40d705:	48 83 c4 08          	add    $0x8,%rsp
  40d709:	48 89 ef             	mov    %rbp,%rdi
  40d70c:	5b                   	pop    %rbx
  40d70d:	5d                   	pop    %rbp
  40d70e:	e9 7d 82 ff ff       	jmpq   405990 <_ZN6QMutex6unlockEv@plt>
  40d713:	66 2e 0f 1f 84 00 00 	nopw   %cs:0x0(%rax,%rax,1)
  40d71a:	00 00 00 
  40d71d:	0f 1f 00             	nopl   (%rax)

000000000040d720 <_ZN8PipelineD1Ev>:
  40d720:	55                   	push   %rbp
  40d721:	53                   	push   %rbx
  40d722:	48 89 fb             	mov    %rdi,%rbx
  40d725:	48 83 ec 08          	sub    $0x8,%rsp
  40d729:	48 8d 05 d0 84 20 00 	lea    0x2084d0(%rip),%rax        # 615c00 <_ZTV8Pipeline>
  40d730:	48 8b 6f 28          	mov    0x28(%rdi),%rbp
  40d734:	48 83 c0 10          	add    $0x10,%rax
  40d738:	48 85 ed             	test   %rbp,%rbp
  40d73b:	48 89 07             	mov    %rax,(%rdi)
  40d73e:	74 10                	je     40d750 <_ZN8PipelineD1Ev+0x30>
  40d740:	48 89 ef             	mov    %rbp,%rdi
  40d743:	e8 58 e0 ff ff       	callq  40b7a0 <_ZN15Array2DSpectrumIfED1Ev>
  40d748:	48 89 ef             	mov    %rbp,%rdi
  40d74b:	e8 d0 7c ff ff       	callq  405420 <_ZdlPv@plt>
  40d750:	48 8b 6b 30          	mov    0x30(%rbx),%rbp
  40d754:	48 85 ed             	test   %rbp,%rbp
  40d757:	74 10                	je     40d769 <_ZN8PipelineD1Ev+0x49>
  40d759:	48 89 ef             	mov    %rbp,%rdi
  40d75c:	e8 3f e0 ff ff       	callq  40b7a0 <_ZN15Array2DSpectrumIfED1Ev>
  40d761:	48 89 ef             	mov    %rbp,%rdi
  40d764:	e8 b7 7c ff ff       	callq  405420 <_ZdlPv@plt>
  40d769:	48 83 c4 08          	add    $0x8,%rsp
  40d76d:	48 89 df             	mov    %rbx,%rdi
  40d770:	5b                   	pop    %rbx
  40d771:	5d                   	pop    %rbp
  40d772:	e9 19 83 ff ff       	jmpq   405a90 <_ZN7QThreadD2Ev@plt>
  40d777:	48 89 c5             	mov    %rax,%rbp
  40d77a:	48 89 df             	mov    %rbx,%rdi
  40d77d:	e8 0e 83 ff ff       	callq  405a90 <_ZN7QThreadD2Ev@plt>
  40d782:	48 89 ef             	mov    %rbp,%rdi
  40d785:	e8 96 7d ff ff       	callq  405520 <_Unwind_Resume@plt>
  40d78a:	66 0f 1f 44 00 00    	nopw   0x0(%rax,%rax,1)

000000000040d790 <_ZN8PipelineD0Ev>:
  40d790:	53                   	push   %rbx
  40d791:	48 89 fb             	mov    %rdi,%rbx
  40d794:	e8 87 ff ff ff       	callq  40d720 <_ZN8PipelineD1Ev>
  40d799:	48 89 df             	mov    %rbx,%rdi
  40d79c:	5b                   	pop    %rbx
  40d79d:	e9 7e 7c ff ff       	jmpq   405420 <_ZdlPv@plt>
  40d7a2:	66 66 66 66 66 2e 0f 	data32 data32 data32 data32 nopw %cs:0x0(%rax,%rax,1)
  40d7a9:	1f 84 00 00 00 00 00 

000000000040d7b0 <_ZN8PipelineC1EP7QObjectP31CircularArray2DSpectrumThreadedIfES4_ii>:
  40d7b0:	41 57                	push   %r15
  40d7b2:	41 56                	push   %r14
  40d7b4:	49 89 ce             	mov    %rcx,%r14
  40d7b7:	41 55                	push   %r13
  40d7b9:	49 89 d5             	mov    %rdx,%r13
  40d7bc:	41 54                	push   %r12
  40d7be:	45 89 cc             	mov    %r9d,%r12d
  40d7c1:	55                   	push   %rbp
  40d7c2:	44 89 c5             	mov    %r8d,%ebp
  40d7c5:	53                   	push   %rbx
  40d7c6:	48 89 fb             	mov    %rdi,%rbx
  40d7c9:	48 83 ec 08          	sub    $0x8,%rsp
  40d7cd:	e8 be 80 ff ff       	callq  405890 <_ZN7QThreadC2EP7QObject@plt>
  40d7d2:	48 8d 05 27 84 20 00 	lea    0x208427(%rip),%rax        # 615c00 <_ZTV8Pipeline>
  40d7d9:	4c 89 6b 10          	mov    %r13,0x10(%rbx)
  40d7dd:	4c 89 ef             	mov    %r13,%rdi
  40d7e0:	4c 89 73 18          	mov    %r14,0x18(%rbx)
  40d7e4:	89 6b 20             	mov    %ebp,0x20(%rbx)
  40d7e7:	48 83 c0 10          	add    $0x10,%rax
  40d7eb:	48 89 03             	mov    %rax,(%rbx)
  40d7ee:	e8 ed df ff ff       	callq  40b7e0 <_ZN15Array2DSpectrumIfE15getChannelCountEv>
  40d7f3:	bf 20 00 00 00       	mov    $0x20,%edi
  40d7f8:	41 89 c7             	mov    %eax,%r15d
  40d7fb:	e8 60 78 ff ff       	callq  405060 <_Znwm@plt>
  40d800:	89 ea                	mov    %ebp,%edx
  40d802:	44 89 fe             	mov    %r15d,%esi
  40d805:	48 89 c7             	mov    %rax,%rdi
  40d808:	49 89 c6             	mov    %rax,%r14
  40d80b:	e8 00 df ff ff       	callq  40b710 <_ZN15Array2DSpectrumIfEC1Eii>
  40d810:	4c 89 73 28          	mov    %r14,0x28(%rbx)
  40d814:	4c 89 ef             	mov    %r13,%rdi
  40d817:	e8 c4 df ff ff       	callq  40b7e0 <_ZN15Array2DSpectrumIfE15getChannelCountEv>
  40d81c:	bf 20 00 00 00       	mov    $0x20,%edi
  40d821:	41 89 c6             	mov    %eax,%r14d
  40d824:	e8 37 78 ff ff       	callq  405060 <_Znwm@plt>
  40d829:	49 89 c5             	mov    %rax,%r13
  40d82c:	89 e8                	mov    %ebp,%eax
  40d82e:	44 89 f6             	mov    %r14d,%esi
  40d831:	99                   	cltd   
  40d832:	4c 89 ef             	mov    %r13,%rdi
  40d835:	41 f7 fc             	idiv   %r12d
  40d838:	89 c2                	mov    %eax,%edx
  40d83a:	e8 d1 de ff ff       	callq  40b710 <_ZN15Array2DSpectrumIfEC1Eii>
  40d83f:	4c 89 6b 30          	mov    %r13,0x30(%rbx)
  40d843:	44 89 63 38          	mov    %r12d,0x38(%rbx)
  40d847:	c7 43 3c 00 00 00 00 	movl   $0x0,0x3c(%rbx)
  40d84e:	c6 43 40 01          	movb   $0x1,0x40(%rbx)
  40d852:	48 83 c4 08          	add    $0x8,%rsp
  40d856:	5b                   	pop    %rbx
  40d857:	5d                   	pop    %rbp
  40d858:	41 5c                	pop    %r12
  40d85a:	41 5d                	pop    %r13
  40d85c:	41 5e                	pop    %r14
  40d85e:	41 5f                	pop    %r15
  40d860:	c3                   	retq   
  40d861:	48 89 c5             	mov    %rax,%rbp
  40d864:	48 89 df             	mov    %rbx,%rdi
  40d867:	e8 24 82 ff ff       	callq  405a90 <_ZN7QThreadD2Ev@plt>
  40d86c:	48 89 ef             	mov    %rbp,%rdi
  40d86f:	e8 ac 7c ff ff       	callq  405520 <_Unwind_Resume@plt>
  40d874:	4c 89 ef             	mov    %r13,%rdi
  40d877:	48 89 c5             	mov    %rax,%rbp
  40d87a:	e8 a1 7b ff ff       	callq  405420 <_ZdlPv@plt>
  40d87f:	eb e3                	jmp    40d864 <_ZN8PipelineC1EP7QObjectP31CircularArray2DSpectrumThreadedIfES4_ii+0xb4>
  40d881:	4c 89 f7             	mov    %r14,%rdi
  40d884:	48 89 c5             	mov    %rax,%rbp
  40d887:	e8 94 7b ff ff       	callq  405420 <_ZdlPv@plt>
  40d88c:	eb d6                	jmp    40d864 <_ZN8PipelineC1EP7QObjectP31CircularArray2DSpectrumThreadedIfES4_ii+0xb4>
  40d88e:	66 90                	xchg   %ax,%ax

000000000040d890 <_ZN8Pipeline29fastLoadDataInWorkSpaceMemCpyEv>:
  40d890:	53                   	push   %rbx
  40d891:	48 89 fb             	mov    %rdi,%rbx
  40d894:	0f 1f 40 00          	nopl   0x0(%rax)
  40d898:	48 8b 7b 10          	mov    0x10(%rbx),%rdi
  40d89c:	e8 ef fa ff ff       	callq  40d390 <_ZN31CircularArray2DSpectrumThreadedIfE16getNumUsedSpacesEv>
  40d8a1:	8b 53 20             	mov    0x20(%rbx),%edx
  40d8a4:	39 d0                	cmp    %edx,%eax
  40d8a6:	7c f0                	jl     40d898 <_ZN8Pipeline29fastLoadDataInWorkSpaceMemCpyEv+0x8>
  40d8a8:	48 8b 73 28          	mov    0x28(%rbx),%rsi
  40d8ac:	48 8b 7b 10          	mov    0x10(%rbx),%rdi
  40d8b0:	e8 5b fb ff ff       	callq  40d410 <_ZN31CircularArray2DSpectrumThreadedIfE19fastPopBlockSamplesEP15Array2DSpectrumIfEi>
  40d8b5:	8b 43 20             	mov    0x20(%rbx),%eax
  40d8b8:	99                   	cltd   
  40d8b9:	f7 7b 38             	idivl  0x38(%rbx)
  40d8bc:	01 43 3c             	add    %eax,0x3c(%rbx)
  40d8bf:	5b                   	pop    %rbx
  40d8c0:	c3                   	retq   
  40d8c1:	90                   	nop
  40d8c2:	66 66 66 66 66 2e 0f 	data32 data32 data32 data32 nopw %cs:0x0(%rax,%rax,1)
  40d8c9:	1f 84 00 00 00 00 00 

000000000040d8d0 <_ZN8Pipeline3runEv>:
  40d8d0:	41 54                	push   %r12
  40d8d2:	31 f6                	xor    %esi,%esi
  40d8d4:	55                   	push   %rbp
  40d8d5:	bd 40 4b 4c 00       	mov    $0x4c4b40,%ebp
  40d8da:	53                   	push   %rbx
  40d8db:	48 89 fb             	mov    %rdi,%rbx
  40d8de:	48 83 ec 30          	sub    $0x30,%rsp
  40d8e2:	48 8d 7c 24 10       	lea    0x10(%rsp),%rdi
  40d8e7:	e8 d4 7a ff ff       	callq  4053c0 <gettimeofday@plt>
  40d8ec:	0f b6 53 40          	movzbl 0x40(%rbx),%edx
  40d8f0:	eb 47                	jmp    40d939 <_ZN8Pipeline3runEv+0x69>
  40d8f2:	66 0f 1f 44 00 00    	nopw   0x0(%rax,%rax,1)
  40d8f8:	48 89 df             	mov    %rbx,%rdi
  40d8fb:	e8 90 ff ff ff       	callq  40d890 <_ZN8Pipeline29fastLoadDataInWorkSpaceMemCpyEv>
  40d900:	48 8b 53 30          	mov    0x30(%rbx),%rdx
  40d904:	8b 73 38             	mov    0x38(%rbx),%esi
  40d907:	48 8b 7b 28          	mov    0x28(%rbx),%rdi
  40d90b:	e8 30 df ff ff       	callq  40b840 <_ZN15Array2DSpectrumIfE11integrationEiPS0_>
  40d910:	8b 43 20             	mov    0x20(%rbx),%eax
  40d913:	48 8b 73 30          	mov    0x30(%rbx),%rsi
  40d917:	48 8b 7b 18          	mov    0x18(%rbx),%rdi
  40d91b:	99                   	cltd   
  40d91c:	f7 7b 38             	idivl  0x38(%rbx)
  40d91f:	89 c2                	mov    %eax,%edx
  40d921:	e8 6a fb ff ff       	callq  40d490 <_ZN31CircularArray2DSpectrumThreadedIfE20fastPushBlockSamplesEP15Array2DSpectrumIfEi>
  40d926:	89 e8                	mov    %ebp,%eax
  40d928:	99                   	cltd   
  40d929:	f7 7b 38             	idivl  0x38(%rbx)
  40d92c:	39 43 3c             	cmp    %eax,0x3c(%rbx)
  40d92f:	0f 84 9b 01 00 00    	je     40dad0 <_ZN8Pipeline3runEv+0x200>
  40d935:	0f b6 53 40          	movzbl 0x40(%rbx),%edx
  40d939:	84 d2                	test   %dl,%dl
  40d93b:	75 bb                	jne    40d8f8 <_ZN8Pipeline3runEv+0x28>
  40d93d:	48 8d 7c 24 20       	lea    0x20(%rsp),%rdi
  40d942:	31 f6                	xor    %esi,%esi
  40d944:	e8 77 7a ff ff       	callq  4053c0 <gettimeofday@plt>
  40d949:	48 8b 44 24 20       	mov    0x20(%rsp),%rax
  40d94e:	48 2b 44 24 10       	sub    0x10(%rsp),%rax
  40d953:	48 8d 35 1e 13 00 00 	lea    0x131e(%rip),%rsi        # 40ec78 <_ZTS14CustomColorMap+0xd8>
  40d95a:	48 8b 1d 77 86 20 00 	mov    0x208677(%rip),%rbx        # 615fd8 <_DYNAMIC+0x248>
  40d961:	ba 17 00 00 00       	mov    $0x17,%edx
  40d966:	f2 48 0f 2a c0       	cvtsi2sd %rax,%xmm0
  40d96b:	48 8b 44 24 28       	mov    0x28(%rsp),%rax
  40d970:	48 2b 44 24 18       	sub    0x18(%rsp),%rax
  40d975:	48 89 df             	mov    %rbx,%rdi
  40d978:	f2 48 0f 2a c8       	cvtsi2sd %rax,%xmm1
  40d97d:	f2 0f 59 05 cb 12 00 	mulsd  0x12cb(%rip),%xmm0        # 40ec50 <_ZTS14CustomColorMap+0xb0>
  40d984:	00 
  40d985:	f2 0f 5e 0d c3 12 00 	divsd  0x12c3(%rip),%xmm1        # 40ec50 <_ZTS14CustomColorMap+0xb0>
  40d98c:	00 
  40d98d:	f2 0f 58 c8          	addsd  %xmm0,%xmm1
  40d991:	f2 0f 11 4c 24 08    	movsd  %xmm1,0x8(%rsp)
  40d997:	e8 74 7f ff ff       	callq  405910 <_ZSt16__ostream_insertIcSt11char_traitsIcEERSt13basic_ostreamIT_T0_ES6_PKS3_l@plt>
  40d99c:	f2 0f 10 4c 24 08    	movsd  0x8(%rsp),%xmm1
  40d9a2:	48 89 df             	mov    %rbx,%rdi
  40d9a5:	66 0f 28 c1          	movapd %xmm1,%xmm0
  40d9a9:	e8 c2 7c ff ff       	callq  405670 <_ZNSo9_M_insertIdEERSoT_@plt>
  40d9ae:	48 8d 35 8b 12 00 00 	lea    0x128b(%rip),%rsi        # 40ec40 <_ZTS14CustomColorMap+0xa0>
  40d9b5:	48 89 c5             	mov    %rax,%rbp
  40d9b8:	ba 03 00 00 00       	mov    $0x3,%edx
  40d9bd:	48 89 c7             	mov    %rax,%rdi
  40d9c0:	e8 4b 7f ff ff       	callq  405910 <_ZSt16__ostream_insertIcSt11char_traitsIcEERSt13basic_ostreamIT_T0_ES6_PKS3_l@plt>
  40d9c5:	48 8b 45 00          	mov    0x0(%rbp),%rax
  40d9c9:	f2 0f 10 4c 24 08    	movsd  0x8(%rsp),%xmm1
  40d9cf:	48 8b 40 e8          	mov    -0x18(%rax),%rax
  40d9d3:	4c 8b a4 05 f0 00 00 	mov    0xf0(%rbp,%rax,1),%r12
  40d9da:	00 
  40d9db:	4d 85 e4             	test   %r12,%r12
  40d9de:	0f 84 65 01 00 00    	je     40db49 <_ZN8Pipeline3runEv+0x279>
  40d9e4:	41 80 7c 24 38 00    	cmpb   $0x0,0x38(%r12)
  40d9ea:	0f 84 f0 00 00 00    	je     40dae0 <_ZN8Pipeline3runEv+0x210>
  40d9f0:	41 0f b6 44 24 43    	movzbl 0x43(%r12),%eax
  40d9f6:	0f be f0             	movsbl %al,%esi
  40d9f9:	48 89 ef             	mov    %rbp,%rdi
  40d9fc:	f2 0f 11 4c 24 08    	movsd  %xmm1,0x8(%rsp)
  40da02:	e8 29 7a ff ff       	callq  405430 <_ZNSo3putEc@plt>
  40da07:	48 89 c7             	mov    %rax,%rdi
  40da0a:	e8 a1 79 ff ff       	callq  4053b0 <_ZNSo5flushEv@plt>
  40da0f:	f2 0f 10 4c 24 08    	movsd  0x8(%rsp),%xmm1
  40da15:	f2 0f 5e 0d 33 12 00 	divsd  0x1233(%rip),%xmm1        # 40ec50 <_ZTS14CustomColorMap+0xb0>
  40da1c:	00 
  40da1d:	66 0f 14 c9          	unpcklpd %xmm1,%xmm1
  40da21:	66 0f 5a c9          	cvtpd2ps %xmm1,%xmm1
  40da25:	0f 2e 0d 9c 12 00 00 	ucomiss 0x129c(%rip),%xmm1        # 40ecc8 <_ZTS14CustomColorMap+0x128>
  40da2c:	f3 0f 11 4c 24 08    	movss  %xmm1,0x8(%rsp)
  40da32:	0f 86 f8 00 00 00    	jbe    40db30 <_ZN8Pipeline3runEv+0x260>
  40da38:	48 8d 35 51 12 00 00 	lea    0x1251(%rip),%rsi        # 40ec90 <_ZTS14CustomColorMap+0xf0>
  40da3f:	48 89 df             	mov    %rbx,%rdi
  40da42:	ba 19 00 00 00       	mov    $0x19,%edx
  40da47:	e8 c4 7e ff ff       	callq  405910 <_ZSt16__ostream_insertIcSt11char_traitsIcEERSt13basic_ostreamIT_T0_ES6_PKS3_l@plt>
  40da4c:	f3 0f 10 05 78 12 00 	movss  0x1278(%rip),%xmm0        # 40eccc <_ZTS14CustomColorMap+0x12c>
  40da53:	00 
  40da54:	48 89 df             	mov    %rbx,%rdi
  40da57:	f3 0f 10 4c 24 08    	movss  0x8(%rsp),%xmm1
  40da5d:	f3 0f 5e c1          	divss  %xmm1,%xmm0
  40da61:	f3 0f 5e 05 67 12 00 	divss  0x1267(%rip),%xmm0        # 40ecd0 <_ZTS14CustomColorMap+0x130>
  40da68:	00 
  40da69:	0f 14 c0             	unpcklps %xmm0,%xmm0
  40da6c:	0f 5a c0             	cvtps2pd %xmm0,%xmm0
  40da6f:	e8 fc 7b ff ff       	callq  405670 <_ZNSo9_M_insertIdEERSoT_@plt>
  40da74:	48 89 c3             	mov    %rax,%rbx
  40da77:	48 8d 35 c6 11 00 00 	lea    0x11c6(%rip),%rsi        # 40ec44 <_ZTS14CustomColorMap+0xa4>
  40da7e:	ba 04 00 00 00       	mov    $0x4,%edx
  40da83:	48 89 df             	mov    %rbx,%rdi
  40da86:	e8 85 7e ff ff       	callq  405910 <_ZSt16__ostream_insertIcSt11char_traitsIcEERSt13basic_ostreamIT_T0_ES6_PKS3_l@plt>
  40da8b:	48 8b 03             	mov    (%rbx),%rax
  40da8e:	48 8b 40 e8          	mov    -0x18(%rax),%rax
  40da92:	48 8b ac 18 f0 00 00 	mov    0xf0(%rax,%rbx,1),%rbp
  40da99:	00 
  40da9a:	48 85 ed             	test   %rbp,%rbp
  40da9d:	0f 84 a6 00 00 00    	je     40db49 <_ZN8Pipeline3runEv+0x279>
  40daa3:	80 7d 38 00          	cmpb   $0x0,0x38(%rbp)
  40daa7:	74 67                	je     40db10 <_ZN8Pipeline3runEv+0x240>
  40daa9:	0f b6 45 43          	movzbl 0x43(%rbp),%eax
  40daad:	48 89 df             	mov    %rbx,%rdi
  40dab0:	0f be f0             	movsbl %al,%esi
  40dab3:	e8 78 79 ff ff       	callq  405430 <_ZNSo3putEc@plt>
  40dab8:	48 89 c7             	mov    %rax,%rdi
  40dabb:	e8 f0 78 ff ff       	callq  4053b0 <_ZNSo5flushEv@plt>
  40dac0:	48 83 c4 30          	add    $0x30,%rsp
  40dac4:	5b                   	pop    %rbx
  40dac5:	5d                   	pop    %rbp
  40dac6:	41 5c                	pop    %r12
  40dac8:	c3                   	retq   
  40dac9:	0f 1f 80 00 00 00 00 	nopl   0x0(%rax)
  40dad0:	c6 43 40 00          	movb   $0x0,0x40(%rbx)
  40dad4:	31 d2                	xor    %edx,%edx
  40dad6:	e9 5e fe ff ff       	jmpq   40d939 <_ZN8Pipeline3runEv+0x69>
  40dadb:	0f 1f 44 00 00       	nopl   0x0(%rax,%rax,1)
  40dae0:	4c 89 e7             	mov    %r12,%rdi
  40dae3:	f2 0f 11 4c 24 08    	movsd  %xmm1,0x8(%rsp)
  40dae9:	e8 b2 78 ff ff       	callq  4053a0 <_ZNKSt5ctypeIcE13_M_widen_initEv@plt>
  40daee:	49 8b 04 24          	mov    (%r12),%rax
  40daf2:	be 0a 00 00 00       	mov    $0xa,%esi
  40daf7:	4c 89 e7             	mov    %r12,%rdi
  40dafa:	ff 50 30             	callq  *0x30(%rax)
  40dafd:	f2 0f 10 4c 24 08    	movsd  0x8(%rsp),%xmm1
  40db03:	e9 ee fe ff ff       	jmpq   40d9f6 <_ZN8Pipeline3runEv+0x126>
  40db08:	0f 1f 84 00 00 00 00 	nopl   0x0(%rax,%rax,1)
  40db0f:	00 
  40db10:	48 89 ef             	mov    %rbp,%rdi
  40db13:	e8 88 78 ff ff       	callq  4053a0 <_ZNKSt5ctypeIcE13_M_widen_initEv@plt>
  40db18:	48 8b 45 00          	mov    0x0(%rbp),%rax
  40db1c:	be 0a 00 00 00       	mov    $0xa,%esi
  40db21:	48 89 ef             	mov    %rbp,%rdi
  40db24:	ff 50 30             	callq  *0x30(%rax)
  40db27:	eb 84                	jmp    40daad <_ZN8Pipeline3runEv+0x1dd>
  40db29:	0f 1f 80 00 00 00 00 	nopl   0x0(%rax)
  40db30:	48 8d 35 73 11 00 00 	lea    0x1173(%rip),%rsi        # 40ecaa <_ZTS14CustomColorMap+0x10a>
  40db37:	ba 1c 00 00 00       	mov    $0x1c,%edx
  40db3c:	48 89 df             	mov    %rbx,%rdi
  40db3f:	e8 cc 7d ff ff       	callq  405910 <_ZSt16__ostream_insertIcSt11char_traitsIcEERSt13basic_ostreamIT_T0_ES6_PKS3_l@plt>
  40db44:	e9 2e ff ff ff       	jmpq   40da77 <_ZN8Pipeline3runEv+0x1a7>
  40db49:	e8 c2 76 ff ff       	callq  405210 <_ZSt16__throw_bad_castv@plt>
  40db4e:	66 90                	xchg   %ax,%ax

000000000040db50 <_ZN8Pipeline13doIntegrationEv>:
  40db50:	48 8b 57 30          	mov    0x30(%rdi),%rdx
  40db54:	8b 77 38             	mov    0x38(%rdi),%esi
  40db57:	48 8b 7f 28          	mov    0x28(%rdi),%rdi
  40db5b:	e9 e0 dc ff ff       	jmpq   40b840 <_ZN15Array2DSpectrumIfE11integrationEiPS0_>

000000000040db60 <_ZN8Pipeline32fastLoadDataToOutputStreamMemCpyEv>:
  40db60:	8b 47 20             	mov    0x20(%rdi),%eax
  40db63:	48 8b 77 30          	mov    0x30(%rdi),%rsi
  40db67:	99                   	cltd   
  40db68:	f7 7f 38             	idivl  0x38(%rdi)
  40db6b:	48 8b 7f 18          	mov    0x18(%rdi),%rdi
  40db6f:	89 c2                	mov    %eax,%edx
  40db71:	e9 1a f9 ff ff       	jmpq   40d490 <_ZN31CircularArray2DSpectrumThreadedIfE20fastPushBlockSamplesEP15Array2DSpectrumIfEi>
  40db76:	66 2e 0f 1f 84 00 00 	nopw   %cs:0x0(%rax,%rax,1)
  40db7d:	00 00 00 

000000000040db80 <_ZN7PlotterC1EP7QObjectP31CircularArray2DSpectrumThreadedIfEiiP15SpectrogramPlot>:
  40db80:	41 56                	push   %r14
  40db82:	4d 89 ce             	mov    %r9,%r14
  40db85:	41 55                	push   %r13
  40db87:	45 89 c5             	mov    %r8d,%r13d
  40db8a:	41 54                	push   %r12
  40db8c:	41 89 cc             	mov    %ecx,%r12d
  40db8f:	55                   	push   %rbp
  40db90:	48 89 d5             	mov    %rdx,%rbp
  40db93:	53                   	push   %rbx
  40db94:	48 89 fb             	mov    %rdi,%rbx
  40db97:	e8 f4 7c ff ff       	callq  405890 <_ZN7QThreadC2EP7QObject@plt>
  40db9c:	48 8d 05 3d 81 20 00 	lea    0x20813d(%rip),%rax        # 615ce0 <_ZTV7Plotter>
  40dba3:	48 89 6b 10          	mov    %rbp,0x10(%rbx)
  40dba7:	bf 30 00 00 00       	mov    $0x30,%edi
  40dbac:	44 89 63 18          	mov    %r12d,0x18(%rbx)
  40dbb0:	44 89 6b 1c          	mov    %r13d,0x1c(%rbx)
  40dbb4:	4c 89 73 28          	mov    %r14,0x28(%rbx)
  40dbb8:	48 83 c0 10          	add    $0x10,%rax
  40dbbc:	48 89 03             	mov    %rax,(%rbx)
  40dbbf:	e8 9c 74 ff ff       	callq  405060 <_Znwm@plt>
  40dbc4:	ba e8 03 00 00       	mov    $0x3e8,%edx
  40dbc9:	be 00 01 00 00       	mov    $0x100,%esi
  40dbce:	48 89 c7             	mov    %rax,%rdi
  40dbd1:	48 89 c5             	mov    %rax,%rbp
  40dbd4:	e8 47 ec ff ff       	callq  40c820 <_ZN23CircularArray2DSpectrumIfEC1Eii>
  40dbd9:	48 89 6b 30          	mov    %rbp,0x30(%rbx)
  40dbdd:	bf 58 00 00 00       	mov    $0x58,%edi
  40dbe2:	e8 79 74 ff ff       	callq  405060 <_Znwm@plt>
  40dbe7:	48 8b 73 30          	mov    0x30(%rbx),%rsi
  40dbeb:	b9 e8 03 00 00       	mov    $0x3e8,%ecx
  40dbf0:	ba 00 01 00 00       	mov    $0x100,%edx
  40dbf5:	48 89 c7             	mov    %rax,%rdi
  40dbf8:	48 89 c5             	mov    %rax,%rbp
  40dbfb:	e8 40 b1 ff ff       	callq  408d40 <_ZN15SpectrogramDataIfEC1EP23CircularArray2DSpectrumIfEii>
  40dc00:	48 89 6b 20          	mov    %rbp,0x20(%rbx)
  40dc04:	c7 43 38 00 00 00 00 	movl   $0x0,0x38(%rbx)
  40dc0b:	c6 43 3c 01          	movb   $0x1,0x3c(%rbx)
  40dc0f:	5b                   	pop    %rbx
  40dc10:	5d                   	pop    %rbp
  40dc11:	41 5c                	pop    %r12
  40dc13:	41 5d                	pop    %r13
  40dc15:	41 5e                	pop    %r14
  40dc17:	c3                   	retq   
  40dc18:	48 89 c5             	mov    %rax,%rbp
  40dc1b:	48 89 df             	mov    %rbx,%rdi
  40dc1e:	e8 6d 7e ff ff       	callq  405a90 <_ZN7QThreadD2Ev@plt>
  40dc23:	48 89 ef             	mov    %rbp,%rdi
  40dc26:	e8 f5 78 ff ff       	callq  405520 <_Unwind_Resume@plt>
  40dc2b:	49 89 c4             	mov    %rax,%r12
  40dc2e:	48 89 ef             	mov    %rbp,%rdi
  40dc31:	e8 ea 77 ff ff       	callq  405420 <_ZdlPv@plt>
  40dc36:	4c 89 e5             	mov    %r12,%rbp
  40dc39:	eb e0                	jmp    40dc1b <_ZN7PlotterC1EP7QObjectP31CircularArray2DSpectrumThreadedIfEiiP15SpectrogramPlot+0x9b>
  40dc3b:	eb ee                	jmp    40dc2b <_ZN7PlotterC1EP7QObjectP31CircularArray2DSpectrumThreadedIfEiiP15SpectrogramPlot+0xab>
  40dc3d:	90                   	nop
  40dc3e:	66 90                	xchg   %ax,%ax

000000000040dc40 <_ZN7Plotter31fastLoadDataInSpectrogramMemCpyEv>:
  40dc40:	53                   	push   %rbx
  40dc41:	48 89 fb             	mov    %rdi,%rbx
  40dc44:	0f 1f 40 00          	nopl   0x0(%rax)
  40dc48:	48 8b 7b 10          	mov    0x10(%rbx),%rdi
  40dc4c:	e8 3f f7 ff ff       	callq  40d390 <_ZN31CircularArray2DSpectrumThreadedIfE16getNumUsedSpacesEv>
  40dc51:	89 c6                	mov    %eax,%esi
  40dc53:	8b 43 18             	mov    0x18(%rbx),%eax
  40dc56:	99                   	cltd   
  40dc57:	f7 7b 1c             	idivl  0x1c(%rbx)
  40dc5a:	39 c6                	cmp    %eax,%esi
  40dc5c:	7c ea                	jl     40dc48 <_ZN7Plotter31fastLoadDataInSpectrogramMemCpyEv+0x8>
  40dc5e:	48 8b 73 10          	mov    0x10(%rbx),%rsi
  40dc62:	48 8b 7b 20          	mov    0x20(%rbx),%rdi
  40dc66:	89 c2                	mov    %eax,%edx
  40dc68:	e8 73 b2 ff ff       	callq  408ee0 <_ZN15SpectrogramDataIfE24fastAddDataSectionMemCpyEP31CircularArray2DSpectrumThreadedIfEi>
  40dc6d:	8b 43 18             	mov    0x18(%rbx),%eax
  40dc70:	99                   	cltd   
  40dc71:	f7 7b 1c             	idivl  0x1c(%rbx)
  40dc74:	01 43 38             	add    %eax,0x38(%rbx)
  40dc77:	5b                   	pop    %rbx
  40dc78:	c3                   	retq   
  40dc79:	90                   	nop
  40dc7a:	66 0f 1f 44 00 00    	nopw   0x0(%rax,%rax,1)

000000000040dc80 <_ZN7Plotter3runEv>:
  40dc80:	41 54                	push   %r12
  40dc82:	31 f6                	xor    %esi,%esi
  40dc84:	55                   	push   %rbp
  40dc85:	bd d3 4d 62 10       	mov    $0x10624dd3,%ebp
  40dc8a:	53                   	push   %rbx
  40dc8b:	48 89 fb             	mov    %rdi,%rbx
  40dc8e:	48 83 ec 30          	sub    $0x30,%rsp
  40dc92:	48 8d 7c 24 10       	lea    0x10(%rsp),%rdi
  40dc97:	e8 24 77 ff ff       	callq  4053c0 <gettimeofday@plt>
  40dc9c:	0f b6 43 3c          	movzbl 0x3c(%rbx),%eax
  40dca0:	eb 17                	jmp    40dcb9 <_ZN7Plotter3runEv+0x39>
  40dca2:	66 0f 1f 44 00 00    	nopw   0x0(%rax,%rax,1)
  40dca8:	b8 40 4b 4c 00       	mov    $0x4c4b40,%eax
  40dcad:	99                   	cltd   
  40dcae:	f7 7b 1c             	idivl  0x1c(%rbx)
  40dcb1:	39 c8                	cmp    %ecx,%eax
  40dcb3:	74 50                	je     40dd05 <_ZN7Plotter3runEv+0x85>
  40dcb5:	0f b6 43 3c          	movzbl 0x3c(%rbx),%eax
  40dcb9:	84 c0                	test   %al,%al
  40dcbb:	74 53                	je     40dd10 <_ZN7Plotter3runEv+0x90>
  40dcbd:	48 89 df             	mov    %rbx,%rdi
  40dcc0:	e8 7b ff ff ff       	callq  40dc40 <_ZN7Plotter31fastLoadDataInSpectrogramMemCpyEv>
  40dcc5:	8b 4b 38             	mov    0x38(%rbx),%ecx
  40dcc8:	89 c8                	mov    %ecx,%eax
  40dcca:	f7 ed                	imul   %ebp
  40dccc:	89 c8                	mov    %ecx,%eax
  40dcce:	c1 f8 1f             	sar    $0x1f,%eax
  40dcd1:	c1 fa 05             	sar    $0x5,%edx
  40dcd4:	29 c2                	sub    %eax,%edx
  40dcd6:	69 d2 f4 01 00 00    	imul   $0x1f4,%edx,%edx
  40dcdc:	39 d1                	cmp    %edx,%ecx
  40dcde:	75 c8                	jne    40dca8 <_ZN7Plotter3runEv+0x28>
  40dce0:	48 8b 73 20          	mov    0x20(%rbx),%rsi
  40dce4:	48 8b 7b 28          	mov    0x28(%rbx),%rdi
  40dce8:	e8 23 b8 ff ff       	callq  409510 <_ZN15SpectrogramPlot11pushNewDataEP15SpectrogramDataIfE>
  40dced:	48 89 df             	mov    %rbx,%rdi
  40dcf0:	e8 6b 0b 00 00       	callq  40e860 <_ZN7Plotter12readyForPlotEv>
  40dcf5:	b8 40 4b 4c 00       	mov    $0x4c4b40,%eax
  40dcfa:	8b 4b 38             	mov    0x38(%rbx),%ecx
  40dcfd:	99                   	cltd   
  40dcfe:	f7 7b 1c             	idivl  0x1c(%rbx)
  40dd01:	39 c8                	cmp    %ecx,%eax
  40dd03:	75 b0                	jne    40dcb5 <_ZN7Plotter3runEv+0x35>
  40dd05:	31 c0                	xor    %eax,%eax
  40dd07:	c6 43 3c 00          	movb   $0x0,0x3c(%rbx)
  40dd0b:	84 c0                	test   %al,%al
  40dd0d:	75 ae                	jne    40dcbd <_ZN7Plotter3runEv+0x3d>
  40dd0f:	90                   	nop
  40dd10:	48 8d 7c 24 20       	lea    0x20(%rsp),%rdi
  40dd15:	31 f6                	xor    %esi,%esi
  40dd17:	e8 a4 76 ff ff       	callq  4053c0 <gettimeofday@plt>
  40dd1c:	48 8b 44 24 20       	mov    0x20(%rsp),%rax
  40dd21:	48 2b 44 24 10       	sub    0x10(%rsp),%rax
  40dd26:	48 8d 35 a7 0f 00 00 	lea    0xfa7(%rip),%rsi        # 40ecd4 <_ZTS14CustomColorMap+0x134>
  40dd2d:	48 8b 1d a4 82 20 00 	mov    0x2082a4(%rip),%rbx        # 615fd8 <_DYNAMIC+0x248>
  40dd34:	ba 16 00 00 00       	mov    $0x16,%edx
  40dd39:	f2 48 0f 2a c0       	cvtsi2sd %rax,%xmm0
  40dd3e:	48 8b 44 24 28       	mov    0x28(%rsp),%rax
  40dd43:	48 2b 44 24 18       	sub    0x18(%rsp),%rax
  40dd48:	48 89 df             	mov    %rbx,%rdi
  40dd4b:	f2 48 0f 2a c8       	cvtsi2sd %rax,%xmm1
  40dd50:	f2 0f 59 05 f8 0e 00 	mulsd  0xef8(%rip),%xmm0        # 40ec50 <_ZTS14CustomColorMap+0xb0>
  40dd57:	00 
  40dd58:	f2 0f 5e 0d f0 0e 00 	divsd  0xef0(%rip),%xmm1        # 40ec50 <_ZTS14CustomColorMap+0xb0>
  40dd5f:	00 
  40dd60:	f2 0f 58 c8          	addsd  %xmm0,%xmm1
  40dd64:	f2 0f 11 4c 24 08    	movsd  %xmm1,0x8(%rsp)
  40dd6a:	e8 a1 7b ff ff       	callq  405910 <_ZSt16__ostream_insertIcSt11char_traitsIcEERSt13basic_ostreamIT_T0_ES6_PKS3_l@plt>
  40dd6f:	f2 0f 10 4c 24 08    	movsd  0x8(%rsp),%xmm1
  40dd75:	48 89 df             	mov    %rbx,%rdi
  40dd78:	66 0f 28 c1          	movapd %xmm1,%xmm0
  40dd7c:	e8 ef 78 ff ff       	callq  405670 <_ZNSo9_M_insertIdEERSoT_@plt>
  40dd81:	48 8d 35 b8 0e 00 00 	lea    0xeb8(%rip),%rsi        # 40ec40 <_ZTS14CustomColorMap+0xa0>
  40dd88:	48 89 c5             	mov    %rax,%rbp
  40dd8b:	ba 03 00 00 00       	mov    $0x3,%edx
  40dd90:	48 89 c7             	mov    %rax,%rdi
  40dd93:	e8 78 7b ff ff       	callq  405910 <_ZSt16__ostream_insertIcSt11char_traitsIcEERSt13basic_ostreamIT_T0_ES6_PKS3_l@plt>
  40dd98:	48 8b 45 00          	mov    0x0(%rbp),%rax
  40dd9c:	f2 0f 10 4c 24 08    	movsd  0x8(%rsp),%xmm1
  40dda2:	48 8b 40 e8          	mov    -0x18(%rax),%rax
  40dda6:	4c 8b a4 05 f0 00 00 	mov    0xf0(%rbp,%rax,1),%r12
  40ddad:	00 
  40ddae:	4d 85 e4             	test   %r12,%r12
  40ddb1:	0f 84 52 01 00 00    	je     40df09 <_ZN7Plotter3runEv+0x289>
  40ddb7:	41 80 7c 24 38 00    	cmpb   $0x0,0x38(%r12)
  40ddbd:	0f 84 dd 00 00 00    	je     40dea0 <_ZN7Plotter3runEv+0x220>
  40ddc3:	41 0f b6 44 24 43    	movzbl 0x43(%r12),%eax
  40ddc9:	0f be f0             	movsbl %al,%esi
  40ddcc:	48 89 ef             	mov    %rbp,%rdi
  40ddcf:	f2 0f 11 4c 24 08    	movsd  %xmm1,0x8(%rsp)
  40ddd5:	e8 56 76 ff ff       	callq  405430 <_ZNSo3putEc@plt>
  40ddda:	48 89 c7             	mov    %rax,%rdi
  40dddd:	e8 ce 75 ff ff       	callq  4053b0 <_ZNSo5flushEv@plt>
  40dde2:	f2 0f 10 4c 24 08    	movsd  0x8(%rsp),%xmm1
  40dde8:	f2 0f 5e 0d 60 0e 00 	divsd  0xe60(%rip),%xmm1        # 40ec50 <_ZTS14CustomColorMap+0xb0>
  40ddef:	00 
  40ddf0:	66 0f 14 c9          	unpcklpd %xmm1,%xmm1
  40ddf4:	66 0f 5a c9          	cvtpd2ps %xmm1,%xmm1
  40ddf8:	0f 2e 0d c9 0e 00 00 	ucomiss 0xec9(%rip),%xmm1        # 40ecc8 <_ZTS14CustomColorMap+0x128>
  40ddff:	f3 0f 11 4c 24 08    	movss  %xmm1,0x8(%rsp)
  40de05:	0f 86 e5 00 00 00    	jbe    40def0 <_ZN7Plotter3runEv+0x270>
  40de0b:	48 8d 35 d9 0e 00 00 	lea    0xed9(%rip),%rsi        # 40eceb <_ZTS14CustomColorMap+0x14b>
  40de12:	48 89 df             	mov    %rbx,%rdi
  40de15:	ba 18 00 00 00       	mov    $0x18,%edx
  40de1a:	e8 f1 7a ff ff       	callq  405910 <_ZSt16__ostream_insertIcSt11char_traitsIcEERSt13basic_ostreamIT_T0_ES6_PKS3_l@plt>
  40de1f:	f3 0f 10 05 a5 0e 00 	movss  0xea5(%rip),%xmm0        # 40eccc <_ZTS14CustomColorMap+0x12c>
  40de26:	00 
  40de27:	48 89 df             	mov    %rbx,%rdi
  40de2a:	f3 0f 10 4c 24 08    	movss  0x8(%rsp),%xmm1
  40de30:	f3 0f 5e c1          	divss  %xmm1,%xmm0
  40de34:	f3 0f 5e 05 94 0e 00 	divss  0xe94(%rip),%xmm0        # 40ecd0 <_ZTS14CustomColorMap+0x130>
  40de3b:	00 
  40de3c:	0f 14 c0             	unpcklps %xmm0,%xmm0
  40de3f:	0f 5a c0             	cvtps2pd %xmm0,%xmm0
  40de42:	e8 29 78 ff ff       	callq  405670 <_ZNSo9_M_insertIdEERSoT_@plt>
  40de47:	48 89 c3             	mov    %rax,%rbx
  40de4a:	48 8d 35 f3 0d 00 00 	lea    0xdf3(%rip),%rsi        # 40ec44 <_ZTS14CustomColorMap+0xa4>
  40de51:	ba 04 00 00 00       	mov    $0x4,%edx
  40de56:	48 89 df             	mov    %rbx,%rdi
  40de59:	e8 b2 7a ff ff       	callq  405910 <_ZSt16__ostream_insertIcSt11char_traitsIcEERSt13basic_ostreamIT_T0_ES6_PKS3_l@plt>
  40de5e:	48 8b 03             	mov    (%rbx),%rax
  40de61:	48 8b 40 e8          	mov    -0x18(%rax),%rax
  40de65:	48 8b ac 18 f0 00 00 	mov    0xf0(%rax,%rbx,1),%rbp
  40de6c:	00 
  40de6d:	48 85 ed             	test   %rbp,%rbp
  40de70:	0f 84 93 00 00 00    	je     40df09 <_ZN7Plotter3runEv+0x289>
  40de76:	80 7d 38 00          	cmpb   $0x0,0x38(%rbp)
  40de7a:	74 54                	je     40ded0 <_ZN7Plotter3runEv+0x250>
  40de7c:	0f b6 45 43          	movzbl 0x43(%rbp),%eax
  40de80:	48 89 df             	mov    %rbx,%rdi
  40de83:	0f be f0             	movsbl %al,%esi
  40de86:	e8 a5 75 ff ff       	callq  405430 <_ZNSo3putEc@plt>
  40de8b:	48 89 c7             	mov    %rax,%rdi
  40de8e:	e8 1d 75 ff ff       	callq  4053b0 <_ZNSo5flushEv@plt>
  40de93:	48 83 c4 30          	add    $0x30,%rsp
  40de97:	5b                   	pop    %rbx
  40de98:	5d                   	pop    %rbp
  40de99:	41 5c                	pop    %r12
  40de9b:	c3                   	retq   
  40de9c:	0f 1f 40 00          	nopl   0x0(%rax)
  40dea0:	4c 89 e7             	mov    %r12,%rdi
  40dea3:	f2 0f 11 4c 24 08    	movsd  %xmm1,0x8(%rsp)
  40dea9:	e8 f2 74 ff ff       	callq  4053a0 <_ZNKSt5ctypeIcE13_M_widen_initEv@plt>
  40deae:	49 8b 04 24          	mov    (%r12),%rax
  40deb2:	be 0a 00 00 00       	mov    $0xa,%esi
  40deb7:	4c 89 e7             	mov    %r12,%rdi
  40deba:	ff 50 30             	callq  *0x30(%rax)
  40debd:	f2 0f 10 4c 24 08    	movsd  0x8(%rsp),%xmm1
  40dec3:	e9 01 ff ff ff       	jmpq   40ddc9 <_ZN7Plotter3runEv+0x149>
  40dec8:	0f 1f 84 00 00 00 00 	nopl   0x0(%rax,%rax,1)
  40decf:	00 
  40ded0:	48 89 ef             	mov    %rbp,%rdi
  40ded3:	e8 c8 74 ff ff       	callq  4053a0 <_ZNKSt5ctypeIcE13_M_widen_initEv@plt>
  40ded8:	48 8b 45 00          	mov    0x0(%rbp),%rax
  40dedc:	be 0a 00 00 00       	mov    $0xa,%esi
  40dee1:	48 89 ef             	mov    %rbp,%rdi
  40dee4:	ff 50 30             	callq  *0x30(%rax)
  40dee7:	eb 97                	jmp    40de80 <_ZN7Plotter3runEv+0x200>
  40dee9:	0f 1f 80 00 00 00 00 	nopl   0x0(%rax)
  40def0:	48 8d 35 0d 0e 00 00 	lea    0xe0d(%rip),%rsi        # 40ed04 <_ZTS14CustomColorMap+0x164>
  40def7:	ba 1b 00 00 00       	mov    $0x1b,%edx
  40defc:	48 89 df             	mov    %rbx,%rdi
  40deff:	e8 0c 7a ff ff       	callq  405910 <_ZSt16__ostream_insertIcSt11char_traitsIcEERSt13basic_ostreamIT_T0_ES6_PKS3_l@plt>
  40df04:	e9 41 ff ff ff       	jmpq   40de4a <_ZN7Plotter3runEv+0x1ca>
  40df09:	e8 02 73 ff ff       	callq  405210 <_ZSt16__throw_bad_castv@plt>
  40df0e:	66 90                	xchg   %ax,%ax

000000000040df10 <_ZNK10MainWindow10metaObjectEv>:
  40df10:	48 8b 7f 08          	mov    0x8(%rdi),%rdi
  40df14:	48 83 7f 28 00       	cmpq   $0x0,0x28(%rdi)
  40df19:	74 05                	je     40df20 <_ZNK10MainWindow10metaObjectEv+0x10>
  40df1b:	e9 e0 7a ff ff       	jmpq   405a00 <_ZNK11QObjectData17dynamicMetaObjectEv@plt>
  40df20:	48 8d 05 f9 77 20 00 	lea    0x2077f9(%rip),%rax        # 615720 <_ZN10MainWindow16staticMetaObjectE>
  40df27:	c3                   	retq   
  40df28:	0f 1f 84 00 00 00 00 	nopl   0x0(%rax,%rax,1)
  40df2f:	00 

000000000040df30 <_ZN10MainWindow18qt_static_metacallEP7QObjectN11QMetaObject4CallEiPPv>:
  40df30:	85 f6                	test   %esi,%esi
  40df32:	75 1c                	jne    40df50 <_ZN10MainWindow18qt_static_metacallEP7QObjectN11QMetaObject4CallEiPPv+0x20>
  40df34:	83 fa 04             	cmp    $0x4,%edx
  40df37:	77 17                	ja     40df50 <_ZN10MainWindow18qt_static_metacallEP7QObjectN11QMetaObject4CallEiPPv+0x20>
  40df39:	48 8d 05 e0 0d 00 00 	lea    0xde0(%rip),%rax        # 40ed20 <_ZTS14CustomColorMap+0x180>
  40df40:	89 d2                	mov    %edx,%edx
  40df42:	48 63 14 90          	movslq (%rax,%rdx,4),%rdx
  40df46:	48 01 d0             	add    %rdx,%rax
  40df49:	ff e0                	jmpq   *%rax
  40df4b:	0f 1f 44 00 00       	nopl   0x0(%rax,%rax,1)
  40df50:	f3 c3                	repz retq 
  40df52:	66 0f 1f 44 00 00    	nopw   0x0(%rax,%rax,1)
  40df58:	48 8b 41 08          	mov    0x8(%rcx),%rax
  40df5c:	8b 30                	mov    (%rax),%esi
  40df5e:	e9 5d 85 ff ff       	jmpq   4064c0 <_ZN10MainWindow22onConsumerValueChangedEi>
  40df63:	0f 1f 44 00 00       	nopl   0x0(%rax,%rax,1)
  40df68:	e9 13 85 ff ff       	jmpq   406480 <_ZN10MainWindow21spectrogramPlotUpdateEv>
  40df6d:	0f 1f 00             	nopl   (%rax)
  40df70:	e9 5b 85 ff ff       	jmpq   4064d0 <_ZN10MainWindow26on_startPushButton_clickedEv>
  40df75:	0f 1f 00             	nopl   (%rax)
  40df78:	48 8b 41 08          	mov    0x8(%rcx),%rax
  40df7c:	8b 30                	mov    (%rax),%esi
  40df7e:	e9 1d 85 ff ff       	jmpq   4064a0 <_ZN10MainWindow20onBufferValueChangedEi>
  40df83:	0f 1f 44 00 00       	nopl   0x0(%rax,%rax,1)
  40df88:	48 8b 41 08          	mov    0x8(%rcx),%rax
  40df8c:	8b 30                	mov    (%rax),%esi
  40df8e:	e9 1d 85 ff ff       	jmpq   4064b0 <_ZN10MainWindow22onProducerValueChangedEi>
  40df93:	90                   	nop
  40df94:	66 66 66 2e 0f 1f 84 	data32 data32 nopw %cs:0x0(%rax,%rax,1)
  40df9b:	00 00 00 00 00 

000000000040dfa0 <_ZN10MainWindow11qt_metacastEPKc>:
  40dfa0:	55                   	push   %rbp
  40dfa1:	53                   	push   %rbx
  40dfa2:	48 89 f3             	mov    %rsi,%rbx
  40dfa5:	48 83 ec 08          	sub    $0x8,%rsp
  40dfa9:	48 85 f6             	test   %rsi,%rsi
  40dfac:	74 3a                	je     40dfe8 <_ZN10MainWindow11qt_metacastEPKc+0x48>
  40dfae:	48 8d 35 13 0f 00 00 	lea    0xf13(%rip),%rsi        # 40eec8 <_ZL29qt_meta_stringdata_MainWindow+0xa8>
  40dfb5:	48 89 fd             	mov    %rdi,%rbp
  40dfb8:	48 89 df             	mov    %rbx,%rdi
  40dfbb:	e8 90 77 ff ff       	callq  405750 <strcmp@plt>
  40dfc0:	89 c2                	mov    %eax,%edx
  40dfc2:	48 89 e8             	mov    %rbp,%rax
  40dfc5:	85 d2                	test   %edx,%edx
  40dfc7:	75 07                	jne    40dfd0 <_ZN10MainWindow11qt_metacastEPKc+0x30>
  40dfc9:	48 83 c4 08          	add    $0x8,%rsp
  40dfcd:	5b                   	pop    %rbx
  40dfce:	5d                   	pop    %rbp
  40dfcf:	c3                   	retq   
  40dfd0:	48 83 c4 08          	add    $0x8,%rsp
  40dfd4:	48 89 de             	mov    %rbx,%rsi
  40dfd7:	48 89 ef             	mov    %rbp,%rdi
  40dfda:	5b                   	pop    %rbx
  40dfdb:	5d                   	pop    %rbp
  40dfdc:	e9 2f 76 ff ff       	jmpq   405610 <_ZN11QMainWindow11qt_metacastEPKc@plt>
  40dfe1:	0f 1f 80 00 00 00 00 	nopl   0x0(%rax)
  40dfe8:	31 c0                	xor    %eax,%eax
  40dfea:	eb dd                	jmp    40dfc9 <_ZN10MainWindow11qt_metacastEPKc+0x29>
  40dfec:	0f 1f 40 00          	nopl   0x0(%rax)

000000000040dff0 <_ZN10MainWindow11qt_metacallEN11QMetaObject4CallEiPPv>:
  40dff0:	41 54                	push   %r12
  40dff2:	49 89 fc             	mov    %rdi,%r12
  40dff5:	55                   	push   %rbp
  40dff6:	48 89 cd             	mov    %rcx,%rbp
  40dff9:	53                   	push   %rbx
  40dffa:	89 f3                	mov    %esi,%ebx
  40dffc:	48 83 ec 10          	sub    $0x10,%rsp
  40e000:	e8 7b 71 ff ff       	callq  405180 <_ZN11QMainWindow11qt_metacallEN11QMetaObject4CallEiPPv@plt>
  40e005:	85 c0                	test   %eax,%eax
  40e007:	78 0c                	js     40e015 <_ZN10MainWindow11qt_metacallEN11QMetaObject4CallEiPPv+0x25>
  40e009:	85 db                	test   %ebx,%ebx
  40e00b:	75 13                	jne    40e020 <_ZN10MainWindow11qt_metacallEN11QMetaObject4CallEiPPv+0x30>
  40e00d:	83 f8 04             	cmp    $0x4,%eax
  40e010:	7e 2e                	jle    40e040 <_ZN10MainWindow11qt_metacallEN11QMetaObject4CallEiPPv+0x50>
  40e012:	83 e8 05             	sub    $0x5,%eax
  40e015:	48 83 c4 10          	add    $0x10,%rsp
  40e019:	5b                   	pop    %rbx
  40e01a:	5d                   	pop    %rbp
  40e01b:	41 5c                	pop    %r12
  40e01d:	c3                   	retq   
  40e01e:	66 90                	xchg   %ax,%ax
  40e020:	83 fb 0c             	cmp    $0xc,%ebx
  40e023:	75 f0                	jne    40e015 <_ZN10MainWindow11qt_metacallEN11QMetaObject4CallEiPPv+0x25>
  40e025:	83 f8 04             	cmp    $0x4,%eax
  40e028:	7f e8                	jg     40e012 <_ZN10MainWindow11qt_metacallEN11QMetaObject4CallEiPPv+0x22>
  40e02a:	48 8b 55 00          	mov    0x0(%rbp),%rdx
  40e02e:	c7 02 ff ff ff ff    	movl   $0xffffffff,(%rdx)
  40e034:	eb dc                	jmp    40e012 <_ZN10MainWindow11qt_metacallEN11QMetaObject4CallEiPPv+0x22>
  40e036:	66 2e 0f 1f 84 00 00 	nopw   %cs:0x0(%rax,%rax,1)
  40e03d:	00 00 00 
  40e040:	89 c2                	mov    %eax,%edx
  40e042:	48 89 e9             	mov    %rbp,%rcx
  40e045:	31 f6                	xor    %esi,%esi
  40e047:	4c 89 e7             	mov    %r12,%rdi
  40e04a:	89 44 24 0c          	mov    %eax,0xc(%rsp)
  40e04e:	e8 dd fe ff ff       	callq  40df30 <_ZN10MainWindow18qt_static_metacallEP7QObjectN11QMetaObject4CallEiPPv>
  40e053:	8b 44 24 0c          	mov    0xc(%rsp),%eax
  40e057:	eb b9                	jmp    40e012 <_ZN10MainWindow11qt_metacallEN11QMetaObject4CallEiPPv+0x22>
  40e059:	0f 1f 80 00 00 00 00 	nopl   0x0(%rax)

000000000040e060 <_ZNK15SpectrogramPlot10metaObjectEv>:
  40e060:	48 8b 7f 08          	mov    0x8(%rdi),%rdi
  40e064:	48 83 7f 28 00       	cmpq   $0x0,0x28(%rdi)
  40e069:	74 05                	je     40e070 <_ZNK15SpectrogramPlot10metaObjectEv+0x10>
  40e06b:	e9 90 79 ff ff       	jmpq   405a00 <_ZNK11QObjectData17dynamicMetaObjectEv@plt>
  40e070:	48 8d 05 69 79 20 00 	lea    0x207969(%rip),%rax        # 6159e0 <_ZN15SpectrogramPlot16staticMetaObjectE>
  40e077:	c3                   	retq   
  40e078:	0f 1f 84 00 00 00 00 	nopl   0x0(%rax,%rax,1)
  40e07f:	00 

000000000040e080 <_ZN15SpectrogramPlot18qt_static_metacallEP7QObjectN11QMetaObject4CallEiPPv>:
  40e080:	85 f6                	test   %esi,%esi
  40e082:	75 14                	jne    40e098 <_ZN15SpectrogramPlot18qt_static_metacallEP7QObjectN11QMetaObject4CallEiPPv+0x18>
  40e084:	85 d2                	test   %edx,%edx
  40e086:	74 18                	je     40e0a0 <_ZN15SpectrogramPlot18qt_static_metacallEP7QObjectN11QMetaObject4CallEiPPv+0x20>
  40e088:	83 fa 01             	cmp    $0x1,%edx
  40e08b:	74 23                	je     40e0b0 <_ZN15SpectrogramPlot18qt_static_metacallEP7QObjectN11QMetaObject4CallEiPPv+0x30>
  40e08d:	0f 1f 00             	nopl   (%rax)
  40e090:	f3 c3                	repz retq 
  40e092:	66 0f 1f 44 00 00    	nopw   0x0(%rax,%rax,1)
  40e098:	f3 c3                	repz retq 
  40e09a:	66 0f 1f 44 00 00    	nopw   0x0(%rax,%rax,1)
  40e0a0:	48 8b 41 08          	mov    0x8(%rcx),%rax
  40e0a4:	0f b6 30             	movzbl (%rax),%esi
  40e0a7:	e9 14 b2 ff ff       	jmpq   4092c0 <_ZN15SpectrogramPlot15showSpectrogramEb>
  40e0ac:	0f 1f 40 00          	nopl   0x0(%rax)
  40e0b0:	48 8b 41 08          	mov    0x8(%rcx),%rax
  40e0b4:	8b 30                	mov    (%rax),%esi
  40e0b6:	e9 f5 b2 ff ff       	jmpq   4093b0 <_ZN15SpectrogramPlot8setAlphaEi>
  40e0bb:	90                   	nop
  40e0bc:	0f 1f 40 00          	nopl   0x0(%rax)

000000000040e0c0 <_ZN15SpectrogramPlot11qt_metacastEPKc>:
  40e0c0:	55                   	push   %rbp
  40e0c1:	53                   	push   %rbx
  40e0c2:	48 89 f3             	mov    %rsi,%rbx
  40e0c5:	48 83 ec 08          	sub    $0x8,%rsp
  40e0c9:	48 85 f6             	test   %rsi,%rsi
  40e0cc:	74 3a                	je     40e108 <_ZN15SpectrogramPlot11qt_metacastEPKc+0x48>
  40e0ce:	48 8d 35 9b 0f 00 00 	lea    0xf9b(%rip),%rsi        # 40f070 <_ZL34qt_meta_stringdata_SpectrogramPlot+0x90>
  40e0d5:	48 89 fd             	mov    %rdi,%rbp
  40e0d8:	48 89 df             	mov    %rbx,%rdi
  40e0db:	e8 70 76 ff ff       	callq  405750 <strcmp@plt>
  40e0e0:	89 c2                	mov    %eax,%edx
  40e0e2:	48 89 e8             	mov    %rbp,%rax
  40e0e5:	85 d2                	test   %edx,%edx
  40e0e7:	75 07                	jne    40e0f0 <_ZN15SpectrogramPlot11qt_metacastEPKc+0x30>
  40e0e9:	48 83 c4 08          	add    $0x8,%rsp
  40e0ed:	5b                   	pop    %rbx
  40e0ee:	5d                   	pop    %rbp
  40e0ef:	c3                   	retq   
  40e0f0:	48 83 c4 08          	add    $0x8,%rsp
  40e0f4:	48 89 de             	mov    %rbx,%rsi
  40e0f7:	48 89 ef             	mov    %rbp,%rdi
  40e0fa:	5b                   	pop    %rbx
  40e0fb:	5d                   	pop    %rbp
  40e0fc:	e9 6f 71 ff ff       	jmpq   405270 <_ZN7QwtPlot11qt_metacastEPKc@plt>
  40e101:	0f 1f 80 00 00 00 00 	nopl   0x0(%rax)
  40e108:	31 c0                	xor    %eax,%eax
  40e10a:	eb dd                	jmp    40e0e9 <_ZN15SpectrogramPlot11qt_metacastEPKc+0x29>
  40e10c:	0f 1f 40 00          	nopl   0x0(%rax)

000000000040e110 <_ZN15SpectrogramPlot11qt_metacallEN11QMetaObject4CallEiPPv>:
  40e110:	41 54                	push   %r12
  40e112:	49 89 fc             	mov    %rdi,%r12
  40e115:	55                   	push   %rbp
  40e116:	48 89 cd             	mov    %rcx,%rbp
  40e119:	53                   	push   %rbx
  40e11a:	89 f3                	mov    %esi,%ebx
  40e11c:	48 83 ec 10          	sub    $0x10,%rsp
  40e120:	e8 bb 6e ff ff       	callq  404fe0 <_ZN7QwtPlot11qt_metacallEN11QMetaObject4CallEiPPv@plt>
  40e125:	85 c0                	test   %eax,%eax
  40e127:	78 0c                	js     40e135 <_ZN15SpectrogramPlot11qt_metacallEN11QMetaObject4CallEiPPv+0x25>
  40e129:	85 db                	test   %ebx,%ebx
  40e12b:	75 13                	jne    40e140 <_ZN15SpectrogramPlot11qt_metacallEN11QMetaObject4CallEiPPv+0x30>
  40e12d:	83 f8 01             	cmp    $0x1,%eax
  40e130:	7e 2e                	jle    40e160 <_ZN15SpectrogramPlot11qt_metacallEN11QMetaObject4CallEiPPv+0x50>
  40e132:	83 e8 02             	sub    $0x2,%eax
  40e135:	48 83 c4 10          	add    $0x10,%rsp
  40e139:	5b                   	pop    %rbx
  40e13a:	5d                   	pop    %rbp
  40e13b:	41 5c                	pop    %r12
  40e13d:	c3                   	retq   
  40e13e:	66 90                	xchg   %ax,%ax
  40e140:	83 fb 0c             	cmp    $0xc,%ebx
  40e143:	75 f0                	jne    40e135 <_ZN15SpectrogramPlot11qt_metacallEN11QMetaObject4CallEiPPv+0x25>
  40e145:	83 f8 01             	cmp    $0x1,%eax
  40e148:	7f e8                	jg     40e132 <_ZN15SpectrogramPlot11qt_metacallEN11QMetaObject4CallEiPPv+0x22>
  40e14a:	48 8b 55 00          	mov    0x0(%rbp),%rdx
  40e14e:	c7 02 ff ff ff ff    	movl   $0xffffffff,(%rdx)
  40e154:	eb dc                	jmp    40e132 <_ZN15SpectrogramPlot11qt_metacallEN11QMetaObject4CallEiPPv+0x22>
  40e156:	66 2e 0f 1f 84 00 00 	nopw   %cs:0x0(%rax,%rax,1)
  40e15d:	00 00 00 
  40e160:	89 c2                	mov    %eax,%edx
  40e162:	48 89 e9             	mov    %rbp,%rcx
  40e165:	31 f6                	xor    %esi,%esi
  40e167:	4c 89 e7             	mov    %r12,%rdi
  40e16a:	89 44 24 0c          	mov    %eax,0xc(%rsp)
  40e16e:	e8 0d ff ff ff       	callq  40e080 <_ZN15SpectrogramPlot18qt_static_metacallEP7QObjectN11QMetaObject4CallEiPPv>
  40e173:	8b 44 24 0c          	mov    0xc(%rsp),%eax
  40e177:	eb b9                	jmp    40e132 <_ZN15SpectrogramPlot11qt_metacallEN11QMetaObject4CallEiPPv+0x22>
  40e179:	0f 1f 80 00 00 00 00 	nopl   0x0(%rax)

000000000040e180 <_ZN15SpectrogramPlotD1Ev>:
  40e180:	48 8d 05 f9 75 20 00 	lea    0x2075f9(%rip),%rax        # 615780 <_ZTV15SpectrogramPlot>
  40e187:	48 8d 50 10          	lea    0x10(%rax),%rdx
  40e18b:	48 89 17             	mov    %rdx,(%rdi)
  40e18e:	48 8d 90 00 02 00 00 	lea    0x200(%rax),%rdx
  40e195:	48 05 50 02 00 00    	add    $0x250,%rax
  40e19b:	48 89 47 30          	mov    %rax,0x30(%rdi)
  40e19f:	48 89 57 10          	mov    %rdx,0x10(%rdi)
  40e1a3:	e9 f8 70 ff ff       	jmpq   4052a0 <_ZN7QwtPlotD2Ev@plt>
  40e1a8:	0f 1f 84 00 00 00 00 	nopl   0x0(%rax,%rax,1)
  40e1af:	00 

000000000040e1b0 <_ZThn48_N15SpectrogramPlotD1Ev>:
  40e1b0:	48 83 ef 30          	sub    $0x30,%rdi
  40e1b4:	e9 c7 ff ff ff       	jmpq   40e180 <_ZN15SpectrogramPlotD1Ev>
  40e1b9:	0f 1f 80 00 00 00 00 	nopl   0x0(%rax)

000000000040e1c0 <_ZThn16_N15SpectrogramPlotD1Ev>:
  40e1c0:	48 83 ef 10          	sub    $0x10,%rdi
  40e1c4:	e9 b7 ff ff ff       	jmpq   40e180 <_ZN15SpectrogramPlotD1Ev>
  40e1c9:	0f 1f 80 00 00 00 00 	nopl   0x0(%rax)

000000000040e1d0 <_ZN15SpectrogramPlotD0Ev>:
  40e1d0:	48 8d 05 a9 75 20 00 	lea    0x2075a9(%rip),%rax        # 615780 <_ZTV15SpectrogramPlot>
  40e1d7:	53                   	push   %rbx
  40e1d8:	48 89 fb             	mov    %rdi,%rbx
  40e1db:	48 8d 50 10          	lea    0x10(%rax),%rdx
  40e1df:	48 89 17             	mov    %rdx,(%rdi)
  40e1e2:	48 8d 90 00 02 00 00 	lea    0x200(%rax),%rdx
  40e1e9:	48 05 50 02 00 00    	add    $0x250,%rax
  40e1ef:	48 89 47 30          	mov    %rax,0x30(%rdi)
  40e1f3:	48 89 57 10          	mov    %rdx,0x10(%rdi)
  40e1f7:	e8 a4 70 ff ff       	callq  4052a0 <_ZN7QwtPlotD2Ev@plt>
  40e1fc:	48 89 df             	mov    %rbx,%rdi
  40e1ff:	5b                   	pop    %rbx
  40e200:	e9 1b 72 ff ff       	jmpq   405420 <_ZdlPv@plt>
  40e205:	66 66 2e 0f 1f 84 00 	data32 nopw %cs:0x0(%rax,%rax,1)
  40e20c:	00 00 00 00 

000000000040e210 <_ZThn48_N15SpectrogramPlotD0Ev>:
  40e210:	48 83 ef 30          	sub    $0x30,%rdi
  40e214:	eb ba                	jmp    40e1d0 <_ZN15SpectrogramPlotD0Ev>
  40e216:	66 2e 0f 1f 84 00 00 	nopw   %cs:0x0(%rax,%rax,1)
  40e21d:	00 00 00 

000000000040e220 <_ZThn16_N15SpectrogramPlotD0Ev>:
  40e220:	48 83 ef 10          	sub    $0x10,%rdi
  40e224:	eb aa                	jmp    40e1d0 <_ZN15SpectrogramPlotD0Ev>
  40e226:	66 2e 0f 1f 84 00 00 	nopw   %cs:0x0(%rax,%rax,1)
  40e22d:	00 00 00 

000000000040e230 <_ZNK14ProducerUnsafe10metaObjectEv>:
  40e230:	48 8b 7f 08          	mov    0x8(%rdi),%rdi
  40e234:	48 83 7f 28 00       	cmpq   $0x0,0x28(%rdi)
  40e239:	74 05                	je     40e240 <_ZNK14ProducerUnsafe10metaObjectEv+0x10>
  40e23b:	e9 c0 77 ff ff       	jmpq   405a00 <_ZNK11QObjectData17dynamicMetaObjectEv@plt>
  40e240:	48 8d 05 79 78 20 00 	lea    0x207879(%rip),%rax        # 615ac0 <_ZN14ProducerUnsafe16staticMetaObjectE>
  40e247:	c3                   	retq   
  40e248:	0f 1f 84 00 00 00 00 	nopl   0x0(%rax,%rax,1)
  40e24f:	00 

000000000040e250 <_ZN14ProducerUnsafe22bufferFillCountChangedEi>:
  40e250:	48 83 ec 28          	sub    $0x28,%rsp
  40e254:	31 d2                	xor    %edx,%edx
  40e256:	89 74 24 0c          	mov    %esi,0xc(%rsp)
  40e25a:	48 8d 44 24 0c       	lea    0xc(%rsp),%rax
  40e25f:	48 8d 4c 24 10       	lea    0x10(%rsp),%rcx
  40e264:	48 8d 35 55 78 20 00 	lea    0x207855(%rip),%rsi        # 615ac0 <_ZN14ProducerUnsafe16staticMetaObjectE>
  40e26b:	48 c7 44 24 10 00 00 	movq   $0x0,0x10(%rsp)
  40e272:	00 00 
  40e274:	48 89 44 24 18       	mov    %rax,0x18(%rsp)
  40e279:	e8 d2 75 ff ff       	callq  405850 <_ZN11QMetaObject8activateEP7QObjectPKS_iPPv@plt>
  40e27e:	48 83 c4 28          	add    $0x28,%rsp
  40e282:	c3                   	retq   
  40e283:	90                   	nop
  40e284:	66 66 66 2e 0f 1f 84 	data32 data32 nopw %cs:0x0(%rax,%rax,1)
  40e28b:	00 00 00 00 00 

000000000040e290 <_ZN14ProducerUnsafe20producerCountChangedEi>:
  40e290:	48 83 ec 28          	sub    $0x28,%rsp
  40e294:	ba 01 00 00 00       	mov    $0x1,%edx
  40e299:	89 74 24 0c          	mov    %esi,0xc(%rsp)
  40e29d:	48 8d 44 24 0c       	lea    0xc(%rsp),%rax
  40e2a2:	48 8d 4c 24 10       	lea    0x10(%rsp),%rcx
  40e2a7:	48 8d 35 12 78 20 00 	lea    0x207812(%rip),%rsi        # 615ac0 <_ZN14ProducerUnsafe16staticMetaObjectE>
  40e2ae:	48 c7 44 24 10 00 00 	movq   $0x0,0x10(%rsp)
  40e2b5:	00 00 
  40e2b7:	48 89 44 24 18       	mov    %rax,0x18(%rsp)
  40e2bc:	e8 8f 75 ff ff       	callq  405850 <_ZN11QMetaObject8activateEP7QObjectPKS_iPPv@plt>
  40e2c1:	48 83 c4 28          	add    $0x28,%rsp
  40e2c5:	c3                   	retq   
  40e2c6:	66 2e 0f 1f 84 00 00 	nopw   %cs:0x0(%rax,%rax,1)
  40e2cd:	00 00 00 

000000000040e2d0 <_ZN14ProducerUnsafe18qt_static_metacallEP7QObjectN11QMetaObject4CallEiPPv>:
  40e2d0:	48 83 ec 28          	sub    $0x28,%rsp
  40e2d4:	85 f6                	test   %esi,%esi
  40e2d6:	75 50                	jne    40e328 <_ZN14ProducerUnsafe18qt_static_metacallEP7QObjectN11QMetaObject4CallEiPPv+0x58>
  40e2d8:	85 d2                	test   %edx,%edx
  40e2da:	0f 84 80 00 00 00    	je     40e360 <_ZN14ProducerUnsafe18qt_static_metacallEP7QObjectN11QMetaObject4CallEiPPv+0x90>
  40e2e0:	83 fa 01             	cmp    $0x1,%edx
  40e2e3:	75 3b                	jne    40e320 <_ZN14ProducerUnsafe18qt_static_metacallEP7QObjectN11QMetaObject4CallEiPPv+0x50>
  40e2e5:	48 8b 41 08          	mov    0x8(%rcx),%rax
  40e2e9:	48 8d 35 d0 77 20 00 	lea    0x2077d0(%rip),%rsi        # 615ac0 <_ZN14ProducerUnsafe16staticMetaObjectE>
  40e2f0:	48 8d 4c 24 10       	lea    0x10(%rsp),%rcx
  40e2f5:	ba 01 00 00 00       	mov    $0x1,%edx
  40e2fa:	8b 00                	mov    (%rax),%eax
  40e2fc:	48 c7 44 24 10 00 00 	movq   $0x0,0x10(%rsp)
  40e303:	00 00 
  40e305:	89 44 24 0c          	mov    %eax,0xc(%rsp)
  40e309:	48 8d 44 24 0c       	lea    0xc(%rsp),%rax
  40e30e:	48 89 44 24 18       	mov    %rax,0x18(%rsp)
  40e313:	e8 38 75 ff ff       	callq  405850 <_ZN11QMetaObject8activateEP7QObjectPKS_iPPv@plt>
  40e318:	0f 1f 84 00 00 00 00 	nopl   0x0(%rax,%rax,1)
  40e31f:	00 
  40e320:	48 83 c4 28          	add    $0x28,%rsp
  40e324:	c3                   	retq   
  40e325:	0f 1f 00             	nopl   (%rax)
  40e328:	83 fe 0a             	cmp    $0xa,%esi
  40e32b:	75 f3                	jne    40e320 <_ZN14ProducerUnsafe18qt_static_metacallEP7QObjectN11QMetaObject4CallEiPPv+0x50>
  40e32d:	48 8b 51 08          	mov    0x8(%rcx),%rdx
  40e331:	48 8b 31             	mov    (%rcx),%rsi
  40e334:	48 8d 0d 15 ff ff ff 	lea    -0xeb(%rip),%rcx        # 40e250 <_ZN14ProducerUnsafe22bufferFillCountChangedEi>
  40e33b:	48 8b 02             	mov    (%rdx),%rax
  40e33e:	48 39 c8             	cmp    %rcx,%rax
  40e341:	74 55                	je     40e398 <_ZN14ProducerUnsafe18qt_static_metacallEP7QObjectN11QMetaObject4CallEiPPv+0xc8>
  40e343:	48 8d 0d 46 ff ff ff 	lea    -0xba(%rip),%rcx        # 40e290 <_ZN14ProducerUnsafe20producerCountChangedEi>
  40e34a:	48 39 c8             	cmp    %rcx,%rax
  40e34d:	75 d1                	jne    40e320 <_ZN14ProducerUnsafe18qt_static_metacallEP7QObjectN11QMetaObject4CallEiPPv+0x50>
  40e34f:	48 83 7a 08 00       	cmpq   $0x0,0x8(%rdx)
  40e354:	75 ca                	jne    40e320 <_ZN14ProducerUnsafe18qt_static_metacallEP7QObjectN11QMetaObject4CallEiPPv+0x50>
  40e356:	c7 06 01 00 00 00    	movl   $0x1,(%rsi)
  40e35c:	eb c2                	jmp    40e320 <_ZN14ProducerUnsafe18qt_static_metacallEP7QObjectN11QMetaObject4CallEiPPv+0x50>
  40e35e:	66 90                	xchg   %ax,%ax
  40e360:	48 8b 41 08          	mov    0x8(%rcx),%rax
  40e364:	48 8d 35 55 77 20 00 	lea    0x207755(%rip),%rsi        # 615ac0 <_ZN14ProducerUnsafe16staticMetaObjectE>
  40e36b:	48 8d 4c 24 10       	lea    0x10(%rsp),%rcx
  40e370:	31 d2                	xor    %edx,%edx
  40e372:	8b 00                	mov    (%rax),%eax
  40e374:	48 c7 44 24 10 00 00 	movq   $0x0,0x10(%rsp)
  40e37b:	00 00 
  40e37d:	89 44 24 08          	mov    %eax,0x8(%rsp)
  40e381:	48 8d 44 24 08       	lea    0x8(%rsp),%rax
  40e386:	48 89 44 24 18       	mov    %rax,0x18(%rsp)
  40e38b:	e8 c0 74 ff ff       	callq  405850 <_ZN11QMetaObject8activateEP7QObjectPKS_iPPv@plt>
  40e390:	48 83 c4 28          	add    $0x28,%rsp
  40e394:	c3                   	retq   
  40e395:	0f 1f 00             	nopl   (%rax)
  40e398:	48 83 7a 08 00       	cmpq   $0x0,0x8(%rdx)
  40e39d:	75 81                	jne    40e320 <_ZN14ProducerUnsafe18qt_static_metacallEP7QObjectN11QMetaObject4CallEiPPv+0x50>
  40e39f:	c7 06 00 00 00 00    	movl   $0x0,(%rsi)
  40e3a5:	48 8b 02             	mov    (%rdx),%rax
  40e3a8:	eb 99                	jmp    40e343 <_ZN14ProducerUnsafe18qt_static_metacallEP7QObjectN11QMetaObject4CallEiPPv+0x73>
  40e3aa:	66 0f 1f 44 00 00    	nopw   0x0(%rax,%rax,1)

000000000040e3b0 <_ZN14ProducerUnsafe11qt_metacastEPKc>:
  40e3b0:	55                   	push   %rbp
  40e3b1:	53                   	push   %rbx
  40e3b2:	48 89 f3             	mov    %rsi,%rbx
  40e3b5:	48 83 ec 08          	sub    $0x8,%rsp
  40e3b9:	48 85 f6             	test   %rsi,%rsi
  40e3bc:	74 3a                	je     40e3f8 <_ZN14ProducerUnsafe11qt_metacastEPKc+0x48>
  40e3be:	48 8d 35 2b 0e 00 00 	lea    0xe2b(%rip),%rsi        # 40f1f0 <_ZL33qt_meta_stringdata_ProducerUnsafe+0x90>
  40e3c5:	48 89 fd             	mov    %rdi,%rbp
  40e3c8:	48 89 df             	mov    %rbx,%rdi
  40e3cb:	e8 80 73 ff ff       	callq  405750 <strcmp@plt>
  40e3d0:	89 c2                	mov    %eax,%edx
  40e3d2:	48 89 e8             	mov    %rbp,%rax
  40e3d5:	85 d2                	test   %edx,%edx
  40e3d7:	75 07                	jne    40e3e0 <_ZN14ProducerUnsafe11qt_metacastEPKc+0x30>
  40e3d9:	48 83 c4 08          	add    $0x8,%rsp
  40e3dd:	5b                   	pop    %rbx
  40e3de:	5d                   	pop    %rbp
  40e3df:	c3                   	retq   
  40e3e0:	48 83 c4 08          	add    $0x8,%rsp
  40e3e4:	48 89 de             	mov    %rbx,%rsi
  40e3e7:	48 89 ef             	mov    %rbp,%rdi
  40e3ea:	5b                   	pop    %rbx
  40e3eb:	5d                   	pop    %rbp
  40e3ec:	e9 9f 6d ff ff       	jmpq   405190 <_ZN7QThread11qt_metacastEPKc@plt>
  40e3f1:	0f 1f 80 00 00 00 00 	nopl   0x0(%rax)
  40e3f8:	31 c0                	xor    %eax,%eax
  40e3fa:	eb dd                	jmp    40e3d9 <_ZN14ProducerUnsafe11qt_metacastEPKc+0x29>
  40e3fc:	0f 1f 40 00          	nopl   0x0(%rax)

000000000040e400 <_ZN14ProducerUnsafe11qt_metacallEN11QMetaObject4CallEiPPv>:
  40e400:	41 54                	push   %r12
  40e402:	49 89 fc             	mov    %rdi,%r12
  40e405:	55                   	push   %rbp
  40e406:	48 89 cd             	mov    %rcx,%rbp
  40e409:	53                   	push   %rbx
  40e40a:	89 f3                	mov    %esi,%ebx
  40e40c:	48 83 ec 10          	sub    $0x10,%rsp
  40e410:	e8 3b 72 ff ff       	callq  405650 <_ZN7QThread11qt_metacallEN11QMetaObject4CallEiPPv@plt>
  40e415:	85 c0                	test   %eax,%eax
  40e417:	78 0c                	js     40e425 <_ZN14ProducerUnsafe11qt_metacallEN11QMetaObject4CallEiPPv+0x25>
  40e419:	85 db                	test   %ebx,%ebx
  40e41b:	75 13                	jne    40e430 <_ZN14ProducerUnsafe11qt_metacallEN11QMetaObject4CallEiPPv+0x30>
  40e41d:	83 f8 01             	cmp    $0x1,%eax
  40e420:	7e 2e                	jle    40e450 <_ZN14ProducerUnsafe11qt_metacallEN11QMetaObject4CallEiPPv+0x50>
  40e422:	83 e8 02             	sub    $0x2,%eax
  40e425:	48 83 c4 10          	add    $0x10,%rsp
  40e429:	5b                   	pop    %rbx
  40e42a:	5d                   	pop    %rbp
  40e42b:	41 5c                	pop    %r12
  40e42d:	c3                   	retq   
  40e42e:	66 90                	xchg   %ax,%ax
  40e430:	83 fb 0c             	cmp    $0xc,%ebx
  40e433:	75 f0                	jne    40e425 <_ZN14ProducerUnsafe11qt_metacallEN11QMetaObject4CallEiPPv+0x25>
  40e435:	83 f8 01             	cmp    $0x1,%eax
  40e438:	7f e8                	jg     40e422 <_ZN14ProducerUnsafe11qt_metacallEN11QMetaObject4CallEiPPv+0x22>
  40e43a:	48 8b 55 00          	mov    0x0(%rbp),%rdx
  40e43e:	c7 02 ff ff ff ff    	movl   $0xffffffff,(%rdx)
  40e444:	eb dc                	jmp    40e422 <_ZN14ProducerUnsafe11qt_metacallEN11QMetaObject4CallEiPPv+0x22>
  40e446:	66 2e 0f 1f 84 00 00 	nopw   %cs:0x0(%rax,%rax,1)
  40e44d:	00 00 00 
  40e450:	89 c2                	mov    %eax,%edx
  40e452:	48 89 e9             	mov    %rbp,%rcx
  40e455:	31 f6                	xor    %esi,%esi
  40e457:	4c 89 e7             	mov    %r12,%rdi
  40e45a:	89 44 24 0c          	mov    %eax,0xc(%rsp)
  40e45e:	e8 6d fe ff ff       	callq  40e2d0 <_ZN14ProducerUnsafe18qt_static_metacallEP7QObjectN11QMetaObject4CallEiPPv>
  40e463:	8b 44 24 0c          	mov    0xc(%rsp),%eax
  40e467:	eb b9                	jmp    40e422 <_ZN14ProducerUnsafe11qt_metacallEN11QMetaObject4CallEiPPv+0x22>
  40e469:	0f 1f 80 00 00 00 00 	nopl   0x0(%rax)

000000000040e470 <_ZN14ProducerUnsafeD1Ev>:
  40e470:	48 8d 05 c9 75 20 00 	lea    0x2075c9(%rip),%rax        # 615a40 <_ZTV14ProducerUnsafe>
  40e477:	48 83 c0 10          	add    $0x10,%rax
  40e47b:	48 89 07             	mov    %rax,(%rdi)
  40e47e:	e9 0d 76 ff ff       	jmpq   405a90 <_ZN7QThreadD2Ev@plt>
  40e483:	66 2e 0f 1f 84 00 00 	nopw   %cs:0x0(%rax,%rax,1)
  40e48a:	00 00 00 
  40e48d:	0f 1f 00             	nopl   (%rax)

000000000040e490 <_ZN14ProducerUnsafeD0Ev>:
  40e490:	48 8d 05 a9 75 20 00 	lea    0x2075a9(%rip),%rax        # 615a40 <_ZTV14ProducerUnsafe>
  40e497:	53                   	push   %rbx
  40e498:	48 89 fb             	mov    %rdi,%rbx
  40e49b:	48 83 c0 10          	add    $0x10,%rax
  40e49f:	48 89 07             	mov    %rax,(%rdi)
  40e4a2:	e8 e9 75 ff ff       	callq  405a90 <_ZN7QThreadD2Ev@plt>
  40e4a7:	48 89 df             	mov    %rbx,%rdi
  40e4aa:	5b                   	pop    %rbx
  40e4ab:	e9 70 6f ff ff       	jmpq   405420 <_ZdlPv@plt>

000000000040e4b0 <_ZNK14ConsumerUnsafe10metaObjectEv>:
  40e4b0:	48 8b 7f 08          	mov    0x8(%rdi),%rdi
  40e4b4:	48 83 7f 28 00       	cmpq   $0x0,0x28(%rdi)
  40e4b9:	74 05                	je     40e4c0 <_ZNK14ConsumerUnsafe10metaObjectEv+0x10>
  40e4bb:	e9 40 75 ff ff       	jmpq   405a00 <_ZNK11QObjectData17dynamicMetaObjectEv@plt>
  40e4c0:	48 8d 05 d9 76 20 00 	lea    0x2076d9(%rip),%rax        # 615ba0 <_ZN14ConsumerUnsafe16staticMetaObjectE>
  40e4c7:	c3                   	retq   
  40e4c8:	0f 1f 84 00 00 00 00 	nopl   0x0(%rax,%rax,1)
  40e4cf:	00 

000000000040e4d0 <_ZN14ConsumerUnsafe22bufferFillCountChangedEi>:
  40e4d0:	48 83 ec 28          	sub    $0x28,%rsp
  40e4d4:	31 d2                	xor    %edx,%edx
  40e4d6:	89 74 24 0c          	mov    %esi,0xc(%rsp)
  40e4da:	48 8d 44 24 0c       	lea    0xc(%rsp),%rax
  40e4df:	48 8d 4c 24 10       	lea    0x10(%rsp),%rcx
  40e4e4:	48 8d 35 b5 76 20 00 	lea    0x2076b5(%rip),%rsi        # 615ba0 <_ZN14ConsumerUnsafe16staticMetaObjectE>
  40e4eb:	48 c7 44 24 10 00 00 	movq   $0x0,0x10(%rsp)
  40e4f2:	00 00 
  40e4f4:	48 89 44 24 18       	mov    %rax,0x18(%rsp)
  40e4f9:	e8 52 73 ff ff       	callq  405850 <_ZN11QMetaObject8activateEP7QObjectPKS_iPPv@plt>
  40e4fe:	48 83 c4 28          	add    $0x28,%rsp
  40e502:	c3                   	retq   
  40e503:	90                   	nop
  40e504:	66 66 66 2e 0f 1f 84 	data32 data32 nopw %cs:0x0(%rax,%rax,1)
  40e50b:	00 00 00 00 00 

000000000040e510 <_ZN14ConsumerUnsafe20consumerCountChangedEi>:
  40e510:	48 83 ec 28          	sub    $0x28,%rsp
  40e514:	ba 01 00 00 00       	mov    $0x1,%edx
  40e519:	89 74 24 0c          	mov    %esi,0xc(%rsp)
  40e51d:	48 8d 44 24 0c       	lea    0xc(%rsp),%rax
  40e522:	48 8d 4c 24 10       	lea    0x10(%rsp),%rcx
  40e527:	48 8d 35 72 76 20 00 	lea    0x207672(%rip),%rsi        # 615ba0 <_ZN14ConsumerUnsafe16staticMetaObjectE>
  40e52e:	48 c7 44 24 10 00 00 	movq   $0x0,0x10(%rsp)
  40e535:	00 00 
  40e537:	48 89 44 24 18       	mov    %rax,0x18(%rsp)
  40e53c:	e8 0f 73 ff ff       	callq  405850 <_ZN11QMetaObject8activateEP7QObjectPKS_iPPv@plt>
  40e541:	48 83 c4 28          	add    $0x28,%rsp
  40e545:	c3                   	retq   
  40e546:	66 2e 0f 1f 84 00 00 	nopw   %cs:0x0(%rax,%rax,1)
  40e54d:	00 00 00 

000000000040e550 <_ZN14ConsumerUnsafe17spectDataReceivedEv>:
  40e550:	48 8d 35 49 76 20 00 	lea    0x207649(%rip),%rsi        # 615ba0 <_ZN14ConsumerUnsafe16staticMetaObjectE>
  40e557:	31 c9                	xor    %ecx,%ecx
  40e559:	ba 02 00 00 00       	mov    $0x2,%edx
  40e55e:	e9 ed 72 ff ff       	jmpq   405850 <_ZN11QMetaObject8activateEP7QObjectPKS_iPPv@plt>
  40e563:	90                   	nop
  40e564:	66 66 66 2e 0f 1f 84 	data32 data32 nopw %cs:0x0(%rax,%rax,1)
  40e56b:	00 00 00 00 00 

000000000040e570 <_ZN14ConsumerUnsafe18qt_static_metacallEP7QObjectN11QMetaObject4CallEiPPv>:
  40e570:	48 83 ec 28          	sub    $0x28,%rsp
  40e574:	85 f6                	test   %esi,%esi
  40e576:	75 20                	jne    40e598 <_ZN14ConsumerUnsafe18qt_static_metacallEP7QObjectN11QMetaObject4CallEiPPv+0x28>
  40e578:	83 fa 01             	cmp    $0x1,%edx
  40e57b:	74 6b                	je     40e5e8 <_ZN14ConsumerUnsafe18qt_static_metacallEP7QObjectN11QMetaObject4CallEiPPv+0x78>
  40e57d:	83 fa 02             	cmp    $0x2,%edx
  40e580:	0f 84 d2 00 00 00    	je     40e658 <_ZN14ConsumerUnsafe18qt_static_metacallEP7QObjectN11QMetaObject4CallEiPPv+0xe8>
  40e586:	85 d2                	test   %edx,%edx
  40e588:	0f 84 92 00 00 00    	je     40e620 <_ZN14ConsumerUnsafe18qt_static_metacallEP7QObjectN11QMetaObject4CallEiPPv+0xb0>
  40e58e:	48 83 c4 28          	add    $0x28,%rsp
  40e592:	c3                   	retq   
  40e593:	0f 1f 44 00 00       	nopl   0x0(%rax,%rax,1)
  40e598:	83 fe 0a             	cmp    $0xa,%esi
  40e59b:	75 f1                	jne    40e58e <_ZN14ConsumerUnsafe18qt_static_metacallEP7QObjectN11QMetaObject4CallEiPPv+0x1e>
  40e59d:	48 8b 51 08          	mov    0x8(%rcx),%rdx
  40e5a1:	48 8b 31             	mov    (%rcx),%rsi
  40e5a4:	48 8d 0d 25 ff ff ff 	lea    -0xdb(%rip),%rcx        # 40e4d0 <_ZN14ConsumerUnsafe22bufferFillCountChangedEi>
  40e5ab:	48 8b 02             	mov    (%rdx),%rax
  40e5ae:	48 39 c8             	cmp    %rcx,%rax
  40e5b1:	0f 84 d9 00 00 00    	je     40e690 <_ZN14ConsumerUnsafe18qt_static_metacallEP7QObjectN11QMetaObject4CallEiPPv+0x120>
  40e5b7:	48 8d 0d 52 ff ff ff 	lea    -0xae(%rip),%rcx        # 40e510 <_ZN14ConsumerUnsafe20consumerCountChangedEi>
  40e5be:	48 39 c8             	cmp    %rcx,%rax
  40e5c1:	0f 84 a9 00 00 00    	je     40e670 <_ZN14ConsumerUnsafe18qt_static_metacallEP7QObjectN11QMetaObject4CallEiPPv+0x100>
  40e5c7:	48 8d 0d 82 ff ff ff 	lea    -0x7e(%rip),%rcx        # 40e550 <_ZN14ConsumerUnsafe17spectDataReceivedEv>
  40e5ce:	48 39 c8             	cmp    %rcx,%rax
  40e5d1:	75 bb                	jne    40e58e <_ZN14ConsumerUnsafe18qt_static_metacallEP7QObjectN11QMetaObject4CallEiPPv+0x1e>
  40e5d3:	48 83 7a 08 00       	cmpq   $0x0,0x8(%rdx)
  40e5d8:	75 b4                	jne    40e58e <_ZN14ConsumerUnsafe18qt_static_metacallEP7QObjectN11QMetaObject4CallEiPPv+0x1e>
  40e5da:	c7 06 02 00 00 00    	movl   $0x2,(%rsi)
  40e5e0:	eb ac                	jmp    40e58e <_ZN14ConsumerUnsafe18qt_static_metacallEP7QObjectN11QMetaObject4CallEiPPv+0x1e>
  40e5e2:	66 0f 1f 44 00 00    	nopw   0x0(%rax,%rax,1)
  40e5e8:	48 8b 41 08          	mov    0x8(%rcx),%rax
  40e5ec:	48 8d 35 ad 75 20 00 	lea    0x2075ad(%rip),%rsi        # 615ba0 <_ZN14ConsumerUnsafe16staticMetaObjectE>
  40e5f3:	48 8d 4c 24 10       	lea    0x10(%rsp),%rcx
  40e5f8:	ba 01 00 00 00       	mov    $0x1,%edx
  40e5fd:	8b 00                	mov    (%rax),%eax
  40e5ff:	48 c7 44 24 10 00 00 	movq   $0x0,0x10(%rsp)
  40e606:	00 00 
  40e608:	89 44 24 08          	mov    %eax,0x8(%rsp)
  40e60c:	48 8d 44 24 08       	lea    0x8(%rsp),%rax
  40e611:	48 89 44 24 18       	mov    %rax,0x18(%rsp)
  40e616:	e8 35 72 ff ff       	callq  405850 <_ZN11QMetaObject8activateEP7QObjectPKS_iPPv@plt>
  40e61b:	48 83 c4 28          	add    $0x28,%rsp
  40e61f:	c3                   	retq   
  40e620:	48 8b 41 08          	mov    0x8(%rcx),%rax
  40e624:	48 8d 35 75 75 20 00 	lea    0x207575(%rip),%rsi        # 615ba0 <_ZN14ConsumerUnsafe16staticMetaObjectE>
  40e62b:	48 8d 4c 24 10       	lea    0x10(%rsp),%rcx
  40e630:	8b 00                	mov    (%rax),%eax
  40e632:	48 c7 44 24 10 00 00 	movq   $0x0,0x10(%rsp)
  40e639:	00 00 
  40e63b:	89 44 24 0c          	mov    %eax,0xc(%rsp)
  40e63f:	48 8d 44 24 0c       	lea    0xc(%rsp),%rax
  40e644:	48 89 44 24 18       	mov    %rax,0x18(%rsp)
  40e649:	e8 02 72 ff ff       	callq  405850 <_ZN11QMetaObject8activateEP7QObjectPKS_iPPv@plt>
  40e64e:	48 83 c4 28          	add    $0x28,%rsp
  40e652:	c3                   	retq   
  40e653:	0f 1f 44 00 00       	nopl   0x0(%rax,%rax,1)
  40e658:	48 8d 35 41 75 20 00 	lea    0x207541(%rip),%rsi        # 615ba0 <_ZN14ConsumerUnsafe16staticMetaObjectE>
  40e65f:	31 c9                	xor    %ecx,%ecx
  40e661:	ba 02 00 00 00       	mov    $0x2,%edx
  40e666:	e8 e5 71 ff ff       	callq  405850 <_ZN11QMetaObject8activateEP7QObjectPKS_iPPv@plt>
  40e66b:	48 83 c4 28          	add    $0x28,%rsp
  40e66f:	c3                   	retq   
  40e670:	48 83 7a 08 00       	cmpq   $0x0,0x8(%rdx)
  40e675:	0f 85 13 ff ff ff    	jne    40e58e <_ZN14ConsumerUnsafe18qt_static_metacallEP7QObjectN11QMetaObject4CallEiPPv+0x1e>
  40e67b:	c7 06 01 00 00 00    	movl   $0x1,(%rsi)
  40e681:	48 8b 02             	mov    (%rdx),%rax
  40e684:	e9 3e ff ff ff       	jmpq   40e5c7 <_ZN14ConsumerUnsafe18qt_static_metacallEP7QObjectN11QMetaObject4CallEiPPv+0x57>
  40e689:	0f 1f 80 00 00 00 00 	nopl   0x0(%rax)
  40e690:	48 83 7a 08 00       	cmpq   $0x0,0x8(%rdx)
  40e695:	0f 85 f3 fe ff ff    	jne    40e58e <_ZN14ConsumerUnsafe18qt_static_metacallEP7QObjectN11QMetaObject4CallEiPPv+0x1e>
  40e69b:	c7 06 00 00 00 00    	movl   $0x0,(%rsi)
  40e6a1:	48 8b 02             	mov    (%rdx),%rax
  40e6a4:	e9 0e ff ff ff       	jmpq   40e5b7 <_ZN14ConsumerUnsafe18qt_static_metacallEP7QObjectN11QMetaObject4CallEiPPv+0x47>
  40e6a9:	90                   	nop
  40e6aa:	66 0f 1f 44 00 00    	nopw   0x0(%rax,%rax,1)

000000000040e6b0 <_ZN14ConsumerUnsafe11qt_metacastEPKc>:
  40e6b0:	55                   	push   %rbp
  40e6b1:	53                   	push   %rbx
  40e6b2:	48 89 f3             	mov    %rsi,%rbx
  40e6b5:	48 83 ec 08          	sub    $0x8,%rsp
  40e6b9:	48 85 f6             	test   %rsi,%rsi
  40e6bc:	74 3a                	je     40e6f8 <_ZN14ConsumerUnsafe11qt_metacastEPKc+0x48>
  40e6be:	48 8d 35 e3 0c 00 00 	lea    0xce3(%rip),%rsi        # 40f3a8 <_ZL33qt_meta_stringdata_ConsumerUnsafe+0xa8>
  40e6c5:	48 89 fd             	mov    %rdi,%rbp
  40e6c8:	48 89 df             	mov    %rbx,%rdi
  40e6cb:	e8 80 70 ff ff       	callq  405750 <strcmp@plt>
  40e6d0:	89 c2                	mov    %eax,%edx
  40e6d2:	48 89 e8             	mov    %rbp,%rax
  40e6d5:	85 d2                	test   %edx,%edx
  40e6d7:	75 07                	jne    40e6e0 <_ZN14ConsumerUnsafe11qt_metacastEPKc+0x30>
  40e6d9:	48 83 c4 08          	add    $0x8,%rsp
  40e6dd:	5b                   	pop    %rbx
  40e6de:	5d                   	pop    %rbp
  40e6df:	c3                   	retq   
  40e6e0:	48 83 c4 08          	add    $0x8,%rsp
  40e6e4:	48 89 de             	mov    %rbx,%rsi
  40e6e7:	48 89 ef             	mov    %rbp,%rdi
  40e6ea:	5b                   	pop    %rbx
  40e6eb:	5d                   	pop    %rbp
  40e6ec:	e9 9f 6a ff ff       	jmpq   405190 <_ZN7QThread11qt_metacastEPKc@plt>
  40e6f1:	0f 1f 80 00 00 00 00 	nopl   0x0(%rax)
  40e6f8:	31 c0                	xor    %eax,%eax
  40e6fa:	eb dd                	jmp    40e6d9 <_ZN14ConsumerUnsafe11qt_metacastEPKc+0x29>
  40e6fc:	0f 1f 40 00          	nopl   0x0(%rax)

000000000040e700 <_ZN14ConsumerUnsafe11qt_metacallEN11QMetaObject4CallEiPPv>:
  40e700:	41 54                	push   %r12
  40e702:	49 89 fc             	mov    %rdi,%r12
  40e705:	55                   	push   %rbp
  40e706:	48 89 cd             	mov    %rcx,%rbp
  40e709:	53                   	push   %rbx
  40e70a:	89 f3                	mov    %esi,%ebx
  40e70c:	48 83 ec 10          	sub    $0x10,%rsp
  40e710:	e8 3b 6f ff ff       	callq  405650 <_ZN7QThread11qt_metacallEN11QMetaObject4CallEiPPv@plt>
  40e715:	85 c0                	test   %eax,%eax
  40e717:	78 0c                	js     40e725 <_ZN14ConsumerUnsafe11qt_metacallEN11QMetaObject4CallEiPPv+0x25>
  40e719:	85 db                	test   %ebx,%ebx
  40e71b:	75 13                	jne    40e730 <_ZN14ConsumerUnsafe11qt_metacallEN11QMetaObject4CallEiPPv+0x30>
  40e71d:	83 f8 02             	cmp    $0x2,%eax
  40e720:	7e 2e                	jle    40e750 <_ZN14ConsumerUnsafe11qt_metacallEN11QMetaObject4CallEiPPv+0x50>
  40e722:	83 e8 03             	sub    $0x3,%eax
  40e725:	48 83 c4 10          	add    $0x10,%rsp
  40e729:	5b                   	pop    %rbx
  40e72a:	5d                   	pop    %rbp
  40e72b:	41 5c                	pop    %r12
  40e72d:	c3                   	retq   
  40e72e:	66 90                	xchg   %ax,%ax
  40e730:	83 fb 0c             	cmp    $0xc,%ebx
  40e733:	75 f0                	jne    40e725 <_ZN14ConsumerUnsafe11qt_metacallEN11QMetaObject4CallEiPPv+0x25>
  40e735:	83 f8 02             	cmp    $0x2,%eax
  40e738:	7f e8                	jg     40e722 <_ZN14ConsumerUnsafe11qt_metacallEN11QMetaObject4CallEiPPv+0x22>
  40e73a:	48 8b 55 00          	mov    0x0(%rbp),%rdx
  40e73e:	c7 02 ff ff ff ff    	movl   $0xffffffff,(%rdx)
  40e744:	eb dc                	jmp    40e722 <_ZN14ConsumerUnsafe11qt_metacallEN11QMetaObject4CallEiPPv+0x22>
  40e746:	66 2e 0f 1f 84 00 00 	nopw   %cs:0x0(%rax,%rax,1)
  40e74d:	00 00 00 
  40e750:	89 c2                	mov    %eax,%edx
  40e752:	48 89 e9             	mov    %rbp,%rcx
  40e755:	31 f6                	xor    %esi,%esi
  40e757:	4c 89 e7             	mov    %r12,%rdi
  40e75a:	89 44 24 0c          	mov    %eax,0xc(%rsp)
  40e75e:	e8 0d fe ff ff       	callq  40e570 <_ZN14ConsumerUnsafe18qt_static_metacallEP7QObjectN11QMetaObject4CallEiPPv>
  40e763:	8b 44 24 0c          	mov    0xc(%rsp),%eax
  40e767:	eb b9                	jmp    40e722 <_ZN14ConsumerUnsafe11qt_metacallEN11QMetaObject4CallEiPPv+0x22>
  40e769:	0f 1f 80 00 00 00 00 	nopl   0x0(%rax)

000000000040e770 <_ZN14ConsumerUnsafeD1Ev>:
  40e770:	48 8d 05 a9 73 20 00 	lea    0x2073a9(%rip),%rax        # 615b20 <_ZTV14ConsumerUnsafe>
  40e777:	48 83 c0 10          	add    $0x10,%rax
  40e77b:	48 89 07             	mov    %rax,(%rdi)
  40e77e:	e9 0d 73 ff ff       	jmpq   405a90 <_ZN7QThreadD2Ev@plt>
  40e783:	66 2e 0f 1f 84 00 00 	nopw   %cs:0x0(%rax,%rax,1)
  40e78a:	00 00 00 
  40e78d:	0f 1f 00             	nopl   (%rax)

000000000040e790 <_ZN14ConsumerUnsafeD0Ev>:
  40e790:	48 8d 05 89 73 20 00 	lea    0x207389(%rip),%rax        # 615b20 <_ZTV14ConsumerUnsafe>
  40e797:	53                   	push   %rbx
  40e798:	48 89 fb             	mov    %rdi,%rbx
  40e79b:	48 83 c0 10          	add    $0x10,%rax
  40e79f:	48 89 07             	mov    %rax,(%rdi)
  40e7a2:	e8 e9 72 ff ff       	callq  405a90 <_ZN7QThreadD2Ev@plt>
  40e7a7:	48 89 df             	mov    %rbx,%rdi
  40e7aa:	5b                   	pop    %rbx
  40e7ab:	e9 70 6c ff ff       	jmpq   405420 <_ZdlPv@plt>

000000000040e7b0 <_ZN8Pipeline18qt_static_metacallEP7QObjectN11QMetaObject4CallEiPPv>:
  40e7b0:	f3 c3                	repz retq 
  40e7b2:	66 66 66 66 66 2e 0f 	data32 data32 data32 data32 nopw %cs:0x0(%rax,%rax,1)
  40e7b9:	1f 84 00 00 00 00 00 

000000000040e7c0 <_ZNK8Pipeline10metaObjectEv>:
  40e7c0:	48 8b 7f 08          	mov    0x8(%rdi),%rdi
  40e7c4:	48 83 7f 28 00       	cmpq   $0x0,0x28(%rdi)
  40e7c9:	74 05                	je     40e7d0 <_ZNK8Pipeline10metaObjectEv+0x10>
  40e7cb:	e9 30 72 ff ff       	jmpq   405a00 <_ZNK11QObjectData17dynamicMetaObjectEv@plt>
  40e7d0:	48 8d 05 a9 74 20 00 	lea    0x2074a9(%rip),%rax        # 615c80 <_ZN8Pipeline16staticMetaObjectE>
  40e7d7:	c3                   	retq   
  40e7d8:	0f 1f 84 00 00 00 00 	nopl   0x0(%rax,%rax,1)
  40e7df:	00 

000000000040e7e0 <_ZN8Pipeline11qt_metacastEPKc>:
  40e7e0:	55                   	push   %rbp
  40e7e1:	53                   	push   %rbx
  40e7e2:	48 89 f3             	mov    %rsi,%rbx
  40e7e5:	48 83 ec 08          	sub    $0x8,%rsp
  40e7e9:	48 85 f6             	test   %rsi,%rsi
  40e7ec:	74 3a                	je     40e828 <_ZN8Pipeline11qt_metacastEPKc+0x48>
  40e7ee:	48 8d 35 a3 0c 00 00 	lea    0xca3(%rip),%rsi        # 40f498 <_ZL27qt_meta_stringdata_Pipeline+0x18>
  40e7f5:	48 89 fd             	mov    %rdi,%rbp
  40e7f8:	48 89 df             	mov    %rbx,%rdi
  40e7fb:	e8 50 6f ff ff       	callq  405750 <strcmp@plt>
  40e800:	89 c2                	mov    %eax,%edx
  40e802:	48 89 e8             	mov    %rbp,%rax
  40e805:	85 d2                	test   %edx,%edx
  40e807:	75 07                	jne    40e810 <_ZN8Pipeline11qt_metacastEPKc+0x30>
  40e809:	48 83 c4 08          	add    $0x8,%rsp
  40e80d:	5b                   	pop    %rbx
  40e80e:	5d                   	pop    %rbp
  40e80f:	c3                   	retq   
  40e810:	48 83 c4 08          	add    $0x8,%rsp
  40e814:	48 89 de             	mov    %rbx,%rsi
  40e817:	48 89 ef             	mov    %rbp,%rdi
  40e81a:	5b                   	pop    %rbx
  40e81b:	5d                   	pop    %rbp
  40e81c:	e9 6f 69 ff ff       	jmpq   405190 <_ZN7QThread11qt_metacastEPKc@plt>
  40e821:	0f 1f 80 00 00 00 00 	nopl   0x0(%rax)
  40e828:	31 c0                	xor    %eax,%eax
  40e82a:	eb dd                	jmp    40e809 <_ZN8Pipeline11qt_metacastEPKc+0x29>
  40e82c:	0f 1f 40 00          	nopl   0x0(%rax)

000000000040e830 <_ZN8Pipeline11qt_metacallEN11QMetaObject4CallEiPPv>:
  40e830:	e9 1b 6e ff ff       	jmpq   405650 <_ZN7QThread11qt_metacallEN11QMetaObject4CallEiPPv@plt>
  40e835:	66 2e 0f 1f 84 00 00 	nopw   %cs:0x0(%rax,%rax,1)
  40e83c:	00 00 00 
  40e83f:	90                   	nop

000000000040e840 <_ZNK7Plotter10metaObjectEv>:
  40e840:	48 8b 7f 08          	mov    0x8(%rdi),%rdi
  40e844:	48 83 7f 28 00       	cmpq   $0x0,0x28(%rdi)
  40e849:	74 05                	je     40e850 <_ZNK7Plotter10metaObjectEv+0x10>
  40e84b:	e9 b0 71 ff ff       	jmpq   405a00 <_ZNK11QObjectData17dynamicMetaObjectEv@plt>
  40e850:	48 8d 05 09 75 20 00 	lea    0x207509(%rip),%rax        # 615d60 <_ZN7Plotter16staticMetaObjectE>
  40e857:	c3                   	retq   
  40e858:	0f 1f 84 00 00 00 00 	nopl   0x0(%rax,%rax,1)
  40e85f:	00 

000000000040e860 <_ZN7Plotter12readyForPlotEv>:
  40e860:	48 8d 35 f9 74 20 00 	lea    0x2074f9(%rip),%rsi        # 615d60 <_ZN7Plotter16staticMetaObjectE>
  40e867:	31 c9                	xor    %ecx,%ecx
  40e869:	31 d2                	xor    %edx,%edx
  40e86b:	e9 e0 6f ff ff       	jmpq   405850 <_ZN11QMetaObject8activateEP7QObjectPKS_iPPv@plt>

000000000040e870 <_ZN7Plotter18qt_static_metacallEP7QObjectN11QMetaObject4CallEiPPv>:
  40e870:	85 f6                	test   %esi,%esi
  40e872:	75 0c                	jne    40e880 <_ZN7Plotter18qt_static_metacallEP7QObjectN11QMetaObject4CallEiPPv+0x10>
  40e874:	85 d2                	test   %edx,%edx
  40e876:	74 38                	je     40e8b0 <_ZN7Plotter18qt_static_metacallEP7QObjectN11QMetaObject4CallEiPPv+0x40>
  40e878:	f3 c3                	repz retq 
  40e87a:	66 0f 1f 44 00 00    	nopw   0x0(%rax,%rax,1)
  40e880:	83 fe 0a             	cmp    $0xa,%esi
  40e883:	75 f3                	jne    40e878 <_ZN7Plotter18qt_static_metacallEP7QObjectN11QMetaObject4CallEiPPv+0x8>
  40e885:	48 8b 41 08          	mov    0x8(%rcx),%rax
  40e889:	48 8d 15 d0 ff ff ff 	lea    -0x30(%rip),%rdx        # 40e860 <_ZN7Plotter12readyForPlotEv>
  40e890:	48 8b 31             	mov    (%rcx),%rsi
  40e893:	48 39 10             	cmp    %rdx,(%rax)
  40e896:	75 e0                	jne    40e878 <_ZN7Plotter18qt_static_metacallEP7QObjectN11QMetaObject4CallEiPPv+0x8>
  40e898:	48 83 78 08 00       	cmpq   $0x0,0x8(%rax)
  40e89d:	75 d9                	jne    40e878 <_ZN7Plotter18qt_static_metacallEP7QObjectN11QMetaObject4CallEiPPv+0x8>
  40e89f:	c7 06 00 00 00 00    	movl   $0x0,(%rsi)
  40e8a5:	c3                   	retq   
  40e8a6:	66 2e 0f 1f 84 00 00 	nopw   %cs:0x0(%rax,%rax,1)
  40e8ad:	00 00 00 
  40e8b0:	48 8d 35 a9 74 20 00 	lea    0x2074a9(%rip),%rsi        # 615d60 <_ZN7Plotter16staticMetaObjectE>
  40e8b7:	31 c9                	xor    %ecx,%ecx
  40e8b9:	e9 92 6f ff ff       	jmpq   405850 <_ZN11QMetaObject8activateEP7QObjectPKS_iPPv@plt>
  40e8be:	66 90                	xchg   %ax,%ax

000000000040e8c0 <_ZN7Plotter11qt_metacastEPKc>:
  40e8c0:	55                   	push   %rbp
  40e8c1:	53                   	push   %rbx
  40e8c2:	48 89 f3             	mov    %rsi,%rbx
  40e8c5:	48 83 ec 08          	sub    $0x8,%rsp
  40e8c9:	48 85 f6             	test   %rsi,%rsi
  40e8cc:	74 3a                	je     40e908 <_ZN7Plotter11qt_metacastEPKc+0x48>
  40e8ce:	48 8d 35 93 0c 00 00 	lea    0xc93(%rip),%rsi        # 40f568 <_ZL26qt_meta_stringdata_Plotter+0x48>
  40e8d5:	48 89 fd             	mov    %rdi,%rbp
  40e8d8:	48 89 df             	mov    %rbx,%rdi
  40e8db:	e8 70 6e ff ff       	callq  405750 <strcmp@plt>
  40e8e0:	89 c2                	mov    %eax,%edx
  40e8e2:	48 89 e8             	mov    %rbp,%rax
  40e8e5:	85 d2                	test   %edx,%edx
  40e8e7:	75 07                	jne    40e8f0 <_ZN7Plotter11qt_metacastEPKc+0x30>
  40e8e9:	48 83 c4 08          	add    $0x8,%rsp
  40e8ed:	5b                   	pop    %rbx
  40e8ee:	5d                   	pop    %rbp
  40e8ef:	c3                   	retq   
  40e8f0:	48 83 c4 08          	add    $0x8,%rsp
  40e8f4:	48 89 de             	mov    %rbx,%rsi
  40e8f7:	48 89 ef             	mov    %rbp,%rdi
  40e8fa:	5b                   	pop    %rbx
  40e8fb:	5d                   	pop    %rbp
  40e8fc:	e9 8f 68 ff ff       	jmpq   405190 <_ZN7QThread11qt_metacastEPKc@plt>
  40e901:	0f 1f 80 00 00 00 00 	nopl   0x0(%rax)
  40e908:	31 c0                	xor    %eax,%eax
  40e90a:	eb dd                	jmp    40e8e9 <_ZN7Plotter11qt_metacastEPKc+0x29>
  40e90c:	0f 1f 40 00          	nopl   0x0(%rax)

000000000040e910 <_ZN7Plotter11qt_metacallEN11QMetaObject4CallEiPPv>:
  40e910:	41 54                	push   %r12
  40e912:	49 89 fc             	mov    %rdi,%r12
  40e915:	55                   	push   %rbp
  40e916:	48 89 cd             	mov    %rcx,%rbp
  40e919:	53                   	push   %rbx
  40e91a:	89 f3                	mov    %esi,%ebx
  40e91c:	48 83 ec 10          	sub    $0x10,%rsp
  40e920:	e8 2b 6d ff ff       	callq  405650 <_ZN7QThread11qt_metacallEN11QMetaObject4CallEiPPv@plt>
  40e925:	85 c0                	test   %eax,%eax
  40e927:	78 0c                	js     40e935 <_ZN7Plotter11qt_metacallEN11QMetaObject4CallEiPPv+0x25>
  40e929:	85 db                	test   %ebx,%ebx
  40e92b:	75 13                	jne    40e940 <_ZN7Plotter11qt_metacallEN11QMetaObject4CallEiPPv+0x30>
  40e92d:	85 c0                	test   %eax,%eax
  40e92f:	90                   	nop
  40e930:	74 26                	je     40e958 <_ZN7Plotter11qt_metacallEN11QMetaObject4CallEiPPv+0x48>
  40e932:	83 e8 01             	sub    $0x1,%eax
  40e935:	48 83 c4 10          	add    $0x10,%rsp
  40e939:	5b                   	pop    %rbx
  40e93a:	5d                   	pop    %rbp
  40e93b:	41 5c                	pop    %r12
  40e93d:	c3                   	retq   
  40e93e:	66 90                	xchg   %ax,%ax
  40e940:	83 fb 0c             	cmp    $0xc,%ebx
  40e943:	75 f0                	jne    40e935 <_ZN7Plotter11qt_metacallEN11QMetaObject4CallEiPPv+0x25>
  40e945:	85 c0                	test   %eax,%eax
  40e947:	75 e9                	jne    40e932 <_ZN7Plotter11qt_metacallEN11QMetaObject4CallEiPPv+0x22>
  40e949:	48 8b 55 00          	mov    0x0(%rbp),%rdx
  40e94d:	c7 02 ff ff ff ff    	movl   $0xffffffff,(%rdx)
  40e953:	eb dd                	jmp    40e932 <_ZN7Plotter11qt_metacallEN11QMetaObject4CallEiPPv+0x22>
  40e955:	0f 1f 00             	nopl   (%rax)
  40e958:	48 89 e9             	mov    %rbp,%rcx
  40e95b:	31 d2                	xor    %edx,%edx
  40e95d:	31 f6                	xor    %esi,%esi
  40e95f:	4c 89 e7             	mov    %r12,%rdi
  40e962:	89 44 24 0c          	mov    %eax,0xc(%rsp)
  40e966:	e8 05 ff ff ff       	callq  40e870 <_ZN7Plotter18qt_static_metacallEP7QObjectN11QMetaObject4CallEiPPv>
  40e96b:	8b 44 24 0c          	mov    0xc(%rsp),%eax
  40e96f:	eb c1                	jmp    40e932 <_ZN7Plotter11qt_metacallEN11QMetaObject4CallEiPPv+0x22>
  40e971:	66 2e 0f 1f 84 00 00 	nopw   %cs:0x0(%rax,%rax,1)
  40e978:	00 00 00 
  40e97b:	0f 1f 44 00 00       	nopl   0x0(%rax,%rax,1)

000000000040e980 <_ZN7PlotterD1Ev>:
  40e980:	48 8d 05 59 73 20 00 	lea    0x207359(%rip),%rax        # 615ce0 <_ZTV7Plotter>
  40e987:	48 83 c0 10          	add    $0x10,%rax
  40e98b:	48 89 07             	mov    %rax,(%rdi)
  40e98e:	e9 fd 70 ff ff       	jmpq   405a90 <_ZN7QThreadD2Ev@plt>
  40e993:	66 2e 0f 1f 84 00 00 	nopw   %cs:0x0(%rax,%rax,1)
  40e99a:	00 00 00 
  40e99d:	0f 1f 00             	nopl   (%rax)

000000000040e9a0 <_ZN7PlotterD0Ev>:
  40e9a0:	48 8d 05 39 73 20 00 	lea    0x207339(%rip),%rax        # 615ce0 <_ZTV7Plotter>
  40e9a7:	53                   	push   %rbx
  40e9a8:	48 89 fb             	mov    %rdi,%rbx
  40e9ab:	48 83 c0 10          	add    $0x10,%rax
  40e9af:	48 89 07             	mov    %rax,(%rdi)
  40e9b2:	e8 d9 70 ff ff       	callq  405a90 <_ZN7QThreadD2Ev@plt>
  40e9b7:	48 89 df             	mov    %rbx,%rdi
  40e9ba:	5b                   	pop    %rbx
  40e9bb:	e9 60 6a ff ff       	jmpq   405420 <_ZdlPv@plt>

000000000040e9c0 <__libc_csu_init>:
  40e9c0:	41 57                	push   %r15
  40e9c2:	41 89 ff             	mov    %edi,%r15d
  40e9c5:	41 56                	push   %r14
  40e9c7:	49 89 f6             	mov    %rsi,%r14
  40e9ca:	41 55                	push   %r13
  40e9cc:	49 89 d5             	mov    %rdx,%r13
  40e9cf:	41 54                	push   %r12
  40e9d1:	4c 8d 25 68 68 20 00 	lea    0x206868(%rip),%r12        # 615240 <__frame_dummy_init_array_entry>
  40e9d8:	55                   	push   %rbp
  40e9d9:	48 8d 2d 10 69 20 00 	lea    0x206910(%rip),%rbp        # 6152f0 <__init_array_end>
  40e9e0:	53                   	push   %rbx
  40e9e1:	4c 29 e5             	sub    %r12,%rbp
  40e9e4:	31 db                	xor    %ebx,%ebx
  40e9e6:	48 c1 fd 03          	sar    $0x3,%rbp
  40e9ea:	48 83 ec 08          	sub    $0x8,%rsp
  40e9ee:	e8 55 65 ff ff       	callq  404f48 <_init>
  40e9f3:	48 85 ed             	test   %rbp,%rbp
  40e9f6:	74 1e                	je     40ea16 <__libc_csu_init+0x56>
  40e9f8:	0f 1f 84 00 00 00 00 	nopl   0x0(%rax,%rax,1)
  40e9ff:	00 
  40ea00:	4c 89 ea             	mov    %r13,%rdx
  40ea03:	4c 89 f6             	mov    %r14,%rsi
  40ea06:	44 89 ff             	mov    %r15d,%edi
  40ea09:	41 ff 14 dc          	callq  *(%r12,%rbx,8)
  40ea0d:	48 83 c3 01          	add    $0x1,%rbx
  40ea11:	48 39 eb             	cmp    %rbp,%rbx
  40ea14:	75 ea                	jne    40ea00 <__libc_csu_init+0x40>
  40ea16:	48 83 c4 08          	add    $0x8,%rsp
  40ea1a:	5b                   	pop    %rbx
  40ea1b:	5d                   	pop    %rbp
  40ea1c:	41 5c                	pop    %r12
  40ea1e:	41 5d                	pop    %r13
  40ea20:	41 5e                	pop    %r14
  40ea22:	41 5f                	pop    %r15
  40ea24:	c3                   	retq   
  40ea25:	66 66 2e 0f 1f 84 00 	data32 nopw %cs:0x0(%rax,%rax,1)
  40ea2c:	00 00 00 00 

000000000040ea30 <__libc_csu_fini>:
  40ea30:	f3 c3                	repz retq 

Disassembly of section .fini:

000000000040ea34 <_fini>:
  40ea34:	48 83 ec 08          	sub    $0x8,%rsp
  40ea38:	48 83 c4 08          	add    $0x8,%rsp
  40ea3c:	c3                   	retq   
